
MotionC.elf:     file format elf32-littlearm
architecture: arm, flags 0x00000112:
EXEC_P, HAS_SYMS, D_PAGED
start address 0x00003375


Disassembly of section .text:

00000000 <__isr_vector>:
       0:	10008000 	.word	0x10008000
       4:	00003375 	.word	0x00003375
       8:	000033a9 	.word	0x000033a9
       c:	000033ab 	.word	0x000033ab
      10:	000033ad 	.word	0x000033ad
      14:	000033af 	.word	0x000033af
      18:	000033b1 	.word	0x000033b1
	...
      2c:	000033b3 	.word	0x000033b3
      30:	000033b5 	.word	0x000033b5
      34:	00000000 	.word	0x00000000
      38:	000033b7 	.word	0x000033b7
      3c:	000033b9 	.word	0x000033b9
      40:	000033bd 	.word	0x000033bd
      44:	000033bf 	.word	0x000033bf
      48:	000033c1 	.word	0x000033c1
      4c:	000033c3 	.word	0x000033c3
      50:	000033c5 	.word	0x000033c5
      54:	000033c7 	.word	0x000033c7
      58:	000033c9 	.word	0x000033c9
      5c:	000033cb 	.word	0x000033cb
      60:	000033cd 	.word	0x000033cd
      64:	000033cf 	.word	0x000033cf
      68:	000033d1 	.word	0x000033d1
      6c:	000033d3 	.word	0x000033d3
      70:	000033d5 	.word	0x000033d5
      74:	000033d7 	.word	0x000033d7
      78:	000033d9 	.word	0x000033d9
      7c:	000033db 	.word	0x000033db
      80:	000033dd 	.word	0x000033dd
      84:	000033df 	.word	0x000033df
      88:	000033e1 	.word	0x000033e1
      8c:	000033e3 	.word	0x000033e3
      90:	000033e5 	.word	0x000033e5
      94:	000033e7 	.word	0x000033e7
      98:	000033e9 	.word	0x000033e9
      9c:	000033eb 	.word	0x000033eb
      a0:	000033ed 	.word	0x000033ed
      a4:	000033ef 	.word	0x000033ef
      a8:	000033f1 	.word	0x000033f1
      ac:	000033f3 	.word	0x000033f3
      b0:	000033f5 	.word	0x000033f5
      b4:	000033f7 	.word	0x000033f7
      b8:	000033f9 	.word	0x000033f9
      bc:	000033fb 	.word	0x000033fb
      c0:	000033fd 	.word	0x000033fd
      c4:	000033ff 	.word	0x000033ff
      c8:	00003401 	.word	0x00003401

000000cc <__do_global_dtors_aux>:
      cc:	b510      	push	{r4, lr}
      ce:	4c05      	ldr	r4, [pc, #20]	; (e4 <__do_global_dtors_aux+0x18>)
      d0:	7823      	ldrb	r3, [r4, #0]
      d2:	b933      	cbnz	r3, e2 <__do_global_dtors_aux+0x16>
      d4:	4804      	ldr	r0, [pc, #16]	; (e8 <__do_global_dtors_aux+0x1c>)
      d6:	b110      	cbz	r0, de <__do_global_dtors_aux+0x12>
      d8:	4804      	ldr	r0, [pc, #16]	; (ec <__do_global_dtors_aux+0x20>)
      da:	f3af 8000 	nop.w
      de:	2101      	movs	r1, #1
      e0:	7021      	strb	r1, [r4, #0]
      e2:	bd10      	pop	{r4, pc}
      e4:	10000148 	.word	0x10000148
      e8:	00000000 	.word	0x00000000
      ec:	0000985c 	.word	0x0000985c

000000f0 <frame_dummy>:
      f0:	b508      	push	{r3, lr}
      f2:	4b06      	ldr	r3, [pc, #24]	; (10c <frame_dummy+0x1c>)
      f4:	b11b      	cbz	r3, fe <frame_dummy+0xe>
      f6:	4806      	ldr	r0, [pc, #24]	; (110 <frame_dummy+0x20>)
      f8:	4906      	ldr	r1, [pc, #24]	; (114 <frame_dummy+0x24>)
      fa:	f3af 8000 	nop.w
      fe:	4806      	ldr	r0, [pc, #24]	; (118 <frame_dummy+0x28>)
     100:	6801      	ldr	r1, [r0, #0]
     102:	b111      	cbz	r1, 10a <frame_dummy+0x1a>
     104:	4a05      	ldr	r2, [pc, #20]	; (11c <frame_dummy+0x2c>)
     106:	b102      	cbz	r2, 10a <frame_dummy+0x1a>
     108:	4790      	blx	r2
     10a:	bd08      	pop	{r3, pc}
     10c:	00000000 	.word	0x00000000
     110:	0000985c 	.word	0x0000985c
     114:	1000014c 	.word	0x1000014c
     118:	10000148 	.word	0x10000148
     11c:	00000000 	.word	0x00000000

00000120 <_ZNK8std_msgs4Time9serializeEPh>:
     120:	6842      	ldr	r2, [r0, #4]
     122:	4603      	mov	r3, r0
     124:	700a      	strb	r2, [r1, #0]
     126:	6842      	ldr	r2, [r0, #4]
     128:	2008      	movs	r0, #8
     12a:	fa22 f200 	lsr.w	r2, r2, r0
     12e:	704a      	strb	r2, [r1, #1]
     130:	88da      	ldrh	r2, [r3, #6]
     132:	708a      	strb	r2, [r1, #2]
     134:	79da      	ldrb	r2, [r3, #7]
     136:	70ca      	strb	r2, [r1, #3]
     138:	689a      	ldr	r2, [r3, #8]
     13a:	710a      	strb	r2, [r1, #4]
     13c:	689a      	ldr	r2, [r3, #8]
     13e:	fa22 f200 	lsr.w	r2, r2, r0
     142:	714a      	strb	r2, [r1, #5]
     144:	895a      	ldrh	r2, [r3, #10]
     146:	718a      	strb	r2, [r1, #6]
     148:	7adb      	ldrb	r3, [r3, #11]
     14a:	71cb      	strb	r3, [r1, #7]
     14c:	4770      	bx	lr
     14e:	bf00      	nop

00000150 <_ZN8std_msgs4Time11deserializeEPh>:
     150:	b410      	push	{r4}
     152:	780a      	ldrb	r2, [r1, #0]
     154:	4603      	mov	r3, r0
     156:	6042      	str	r2, [r0, #4]
     158:	784c      	ldrb	r4, [r1, #1]
     15a:	2008      	movs	r0, #8
     15c:	ea42 2204 	orr.w	r2, r2, r4, lsl #8
     160:	605a      	str	r2, [r3, #4]
     162:	788c      	ldrb	r4, [r1, #2]
     164:	ea42 4204 	orr.w	r2, r2, r4, lsl #16
     168:	605a      	str	r2, [r3, #4]
     16a:	78cc      	ldrb	r4, [r1, #3]
     16c:	ea42 6204 	orr.w	r2, r2, r4, lsl #24
     170:	605a      	str	r2, [r3, #4]
     172:	790a      	ldrb	r2, [r1, #4]
     174:	609a      	str	r2, [r3, #8]
     176:	794c      	ldrb	r4, [r1, #5]
     178:	ea42 2204 	orr.w	r2, r2, r4, lsl #8
     17c:	609a      	str	r2, [r3, #8]
     17e:	798c      	ldrb	r4, [r1, #6]
     180:	ea42 4204 	orr.w	r2, r2, r4, lsl #16
     184:	609a      	str	r2, [r3, #8]
     186:	79c9      	ldrb	r1, [r1, #7]
     188:	ea42 6201 	orr.w	r2, r2, r1, lsl #24
     18c:	609a      	str	r2, [r3, #8]
     18e:	bc10      	pop	{r4}
     190:	4770      	bx	lr
     192:	bf00      	nop

00000194 <_ZN8std_msgs4Time7getTypeEv>:
     194:	f648 4014 	movw	r0, #35860	; 0x8c14
     198:	f2c0 0000 	movt	r0, #0
     19c:	4770      	bx	lr
     19e:	bf00      	nop

000001a0 <_ZN8std_msgs4Time6getMD5Ev>:
     1a0:	f648 4024 	movw	r0, #35876	; 0x8c24
     1a4:	f2c0 0000 	movt	r0, #0
     1a8:	4770      	bx	lr
     1aa:	bf00      	nop

000001ac <_ZN14rosserial_msgs9TopicInfo7getTypeEv>:
     1ac:	f648 4048 	movw	r0, #35912	; 0x8c48
     1b0:	f2c0 0000 	movt	r0, #0
     1b4:	4770      	bx	lr
     1b6:	bf00      	nop

000001b8 <_ZN14rosserial_msgs9TopicInfo6getMD5Ev>:
     1b8:	f648 4064 	movw	r0, #35940	; 0x8c64
     1bc:	f2c0 0000 	movt	r0, #0
     1c0:	4770      	bx	lr
     1c2:	bf00      	nop

000001c4 <_ZN14rosserial_msgs3Log7getTypeEv>:
     1c4:	f648 4088 	movw	r0, #35976	; 0x8c88
     1c8:	f2c0 0000 	movt	r0, #0
     1cc:	4770      	bx	lr
     1ce:	bf00      	nop

000001d0 <_ZN14rosserial_msgs3Log6getMD5Ev>:
     1d0:	f648 409c 	movw	r0, #35996	; 0x8c9c
     1d4:	f2c0 0000 	movt	r0, #0
     1d8:	4770      	bx	lr
     1da:	bf00      	nop

000001dc <_ZN14rosserial_msgs20RequestParamResponse7getTypeEv>:
     1dc:	f648 50a4 	movw	r0, #36260	; 0x8da4
     1e0:	f2c0 0000 	movt	r0, #0
     1e4:	4770      	bx	lr
     1e6:	bf00      	nop

000001e8 <_ZN14rosserial_msgs20RequestParamResponse6getMD5Ev>:
     1e8:	f648 40c0 	movw	r0, #36032	; 0x8cc0
     1ec:	f2c0 0000 	movt	r0, #0
     1f0:	4770      	bx	lr
     1f2:	bf00      	nop

000001f4 <_ZN8std_msgs6String7getTypeEv>:
     1f4:	f648 40e4 	movw	r0, #36068	; 0x8ce4
     1f8:	f2c0 0000 	movt	r0, #0
     1fc:	4770      	bx	lr
     1fe:	bf00      	nop

00000200 <_ZN8std_msgs6String6getMD5Ev>:
     200:	f648 40f4 	movw	r0, #36084	; 0x8cf4
     204:	f2c0 0000 	movt	r0, #0
     208:	4770      	bx	lr
     20a:	bf00      	nop

0000020c <_ZNK13geometry_msgs6Pose2D9serializeEPh>:
     20c:	b5f8      	push	{r3, r4, r5, r6, r7, lr}
     20e:	6843      	ldr	r3, [r0, #4]
     210:	460c      	mov	r4, r1
     212:	f3c3 51c7 	ubfx	r1, r3, #23, #8
     216:	4605      	mov	r5, r0
     218:	2900      	cmp	r1, #0
     21a:	d06b      	beq.n	2f4 <_ZNK13geometry_msgs6Pose2D9serializeEPh+0xe8>
     21c:	f501 7260 	add.w	r2, r1, #896	; 0x380
     220:	0117      	lsls	r7, r2, #4
     222:	1116      	asrs	r6, r2, #4
     224:	b2f8      	uxtb	r0, r7
     226:	b2f1      	uxtb	r1, r6
     228:	f3c3 4cc3 	ubfx	r12, r3, #19, #4
     22c:	2200      	movs	r2, #0
     22e:	ea4f 1e43 	mov.w	lr, r3, lsl #5
     232:	10df      	asrs	r7, r3, #3
     234:	ea40 000c 	orr.w	r0, r0, r12
     238:	12db      	asrs	r3, r3, #11
     23a:	71e1      	strb	r1, [r4, #7]
     23c:	7022      	strb	r2, [r4, #0]
     23e:	7062      	strb	r2, [r4, #1]
     240:	70a2      	strb	r2, [r4, #2]
     242:	f884 e003 	strb.w	lr, [r4, #3]
     246:	7127      	strb	r7, [r4, #4]
     248:	7163      	strb	r3, [r4, #5]
     24a:	71a0      	strb	r0, [r4, #6]
     24c:	6868      	ldr	r0, [r5, #4]
     24e:	2100      	movs	r1, #0
     250:	f005 ffc8 	bl	61e4 <__aeabi_fcmplt>
     254:	2800      	cmp	r0, #0
     256:	d154      	bne.n	302 <_ZNK13geometry_msgs6Pose2D9serializeEPh+0xf6>
     258:	68ab      	ldr	r3, [r5, #8]
     25a:	f3c3 51c7 	ubfx	r1, r3, #23, #8
     25e:	2900      	cmp	r1, #0
     260:	d045      	beq.n	2ee <_ZNK13geometry_msgs6Pose2D9serializeEPh+0xe2>
     262:	f501 7260 	add.w	r2, r1, #896	; 0x380
     266:	0117      	lsls	r7, r2, #4
     268:	1116      	asrs	r6, r2, #4
     26a:	b2f8      	uxtb	r0, r7
     26c:	b2f1      	uxtb	r1, r6
     26e:	f3c3 4cc3 	ubfx	r12, r3, #19, #4
     272:	2200      	movs	r2, #0
     274:	ea4f 1e43 	mov.w	lr, r3, lsl #5
     278:	10df      	asrs	r7, r3, #3
     27a:	ea40 000c 	orr.w	r0, r0, r12
     27e:	12db      	asrs	r3, r3, #11
     280:	73e1      	strb	r1, [r4, #15]
     282:	7222      	strb	r2, [r4, #8]
     284:	7262      	strb	r2, [r4, #9]
     286:	72a2      	strb	r2, [r4, #10]
     288:	f884 e00b 	strb.w	lr, [r4, #11]
     28c:	7327      	strb	r7, [r4, #12]
     28e:	7363      	strb	r3, [r4, #13]
     290:	73a0      	strb	r0, [r4, #14]
     292:	68a8      	ldr	r0, [r5, #8]
     294:	2100      	movs	r1, #0
     296:	f005 ffa5 	bl	61e4 <__aeabi_fcmplt>
     29a:	bb70      	cbnz	r0, 2fa <_ZNK13geometry_msgs6Pose2D9serializeEPh+0xee>
     29c:	68eb      	ldr	r3, [r5, #12]
     29e:	f3c3 51c7 	ubfx	r1, r3, #23, #8
     2a2:	b309      	cbz	r1, 2e8 <_ZNK13geometry_msgs6Pose2D9serializeEPh+0xdc>
     2a4:	f501 7660 	add.w	r6, r1, #896	; 0x380
     2a8:	0132      	lsls	r2, r6, #4
     2aa:	1136      	asrs	r6, r6, #4
     2ac:	b2d0      	uxtb	r0, r2
     2ae:	b2f1      	uxtb	r1, r6
     2b0:	f3c3 4cc3 	ubfx	r12, r3, #19, #4
     2b4:	2200      	movs	r2, #0
     2b6:	ea4f 1e43 	mov.w	lr, r3, lsl #5
     2ba:	10df      	asrs	r7, r3, #3
     2bc:	ea40 000c 	orr.w	r0, r0, r12
     2c0:	12db      	asrs	r3, r3, #11
     2c2:	75e1      	strb	r1, [r4, #23]
     2c4:	7422      	strb	r2, [r4, #16]
     2c6:	7462      	strb	r2, [r4, #17]
     2c8:	74a2      	strb	r2, [r4, #18]
     2ca:	f884 e013 	strb.w	lr, [r4, #19]
     2ce:	7527      	strb	r7, [r4, #20]
     2d0:	7563      	strb	r3, [r4, #21]
     2d2:	75a0      	strb	r0, [r4, #22]
     2d4:	68e8      	ldr	r0, [r5, #12]
     2d6:	2100      	movs	r1, #0
     2d8:	f005 ff84 	bl	61e4 <__aeabi_fcmplt>
     2dc:	b110      	cbz	r0, 2e4 <_ZNK13geometry_msgs6Pose2D9serializeEPh+0xd8>
     2de:	f046 0680 	orr.w	r6, r6, #128	; 0x80
     2e2:	75e6      	strb	r6, [r4, #23]
     2e4:	2018      	movs	r0, #24
     2e6:	bdf8      	pop	{r3, r4, r5, r6, r7, pc}
     2e8:	460e      	mov	r6, r1
     2ea:	4608      	mov	r0, r1
     2ec:	e7e0      	b.n	2b0 <_ZNK13geometry_msgs6Pose2D9serializeEPh+0xa4>
     2ee:	460e      	mov	r6, r1
     2f0:	4608      	mov	r0, r1
     2f2:	e7bc      	b.n	26e <_ZNK13geometry_msgs6Pose2D9serializeEPh+0x62>
     2f4:	460e      	mov	r6, r1
     2f6:	4608      	mov	r0, r1
     2f8:	e796      	b.n	228 <_ZNK13geometry_msgs6Pose2D9serializeEPh+0x1c>
     2fa:	f046 0180 	orr.w	r1, r6, #128	; 0x80
     2fe:	73e1      	strb	r1, [r4, #15]
     300:	e7cc      	b.n	29c <_ZNK13geometry_msgs6Pose2D9serializeEPh+0x90>
     302:	f046 0180 	orr.w	r1, r6, #128	; 0x80
     306:	71e1      	strb	r1, [r4, #7]
     308:	e7a6      	b.n	258 <_ZNK13geometry_msgs6Pose2D9serializeEPh+0x4c>
     30a:	bf00      	nop

0000030c <_ZN13geometry_msgs6Pose2D11deserializeEPh>:
     30c:	b430      	push	{r4, r5}
     30e:	78cb      	ldrb	r3, [r1, #3]
     310:	095c      	lsrs	r4, r3, #5
     312:	6044      	str	r4, [r0, #4]
     314:	790a      	ldrb	r2, [r1, #4]
     316:	ea44 05c2 	orr.w	r5, r4, r2, lsl #3
     31a:	6045      	str	r5, [r0, #4]
     31c:	794b      	ldrb	r3, [r1, #5]
     31e:	ea45 24c3 	orr.w	r4, r5, r3, lsl #11
     322:	6044      	str	r4, [r0, #4]
     324:	798a      	ldrb	r2, [r1, #6]
     326:	f002 050f 	and.w	r5, r2, #15
     32a:	ea44 42c5 	orr.w	r2, r4, r5, lsl #19
     32e:	6042      	str	r2, [r0, #4]
     330:	79cb      	ldrb	r3, [r1, #7]
     332:	798d      	ldrb	r5, [r1, #6]
     334:	f003 047f 	and.w	r4, r3, #127	; 0x7f
     338:	0124      	lsls	r4, r4, #4
     33a:	ea54 1515 	orrs.w	r5, r4, r5, lsr #4
     33e:	d005      	beq.n	34c <_ZN13geometry_msgs6Pose2D11deserializeEPh+0x40>
     340:	f5a5 7360 	sub.w	r3, r5, #896	; 0x380
     344:	ea42 54c3 	orr.w	r4, r2, r3, lsl #23
     348:	6044      	str	r4, [r0, #4]
     34a:	79cb      	ldrb	r3, [r1, #7]
     34c:	f003 0580 	and.w	r5, r3, #128	; 0x80
     350:	b2ec      	uxtb	r4, r5
     352:	b114      	cbz	r4, 35a <_ZN13geometry_msgs6Pose2D11deserializeEPh+0x4e>
     354:	f102 4200 	add.w	r2, r2, #2147483648	; 0x80000000
     358:	6042      	str	r2, [r0, #4]
     35a:	7acb      	ldrb	r3, [r1, #11]
     35c:	095d      	lsrs	r5, r3, #5
     35e:	6085      	str	r5, [r0, #8]
     360:	7b0c      	ldrb	r4, [r1, #12]
     362:	ea45 03c4 	orr.w	r3, r5, r4, lsl #3
     366:	6083      	str	r3, [r0, #8]
     368:	7b4a      	ldrb	r2, [r1, #13]
     36a:	ea43 25c2 	orr.w	r5, r3, r2, lsl #11
     36e:	6085      	str	r5, [r0, #8]
     370:	7b8c      	ldrb	r4, [r1, #14]
     372:	f004 030f 	and.w	r3, r4, #15
     376:	ea45 42c3 	orr.w	r2, r5, r3, lsl #19
     37a:	6082      	str	r2, [r0, #8]
     37c:	7bcb      	ldrb	r3, [r1, #15]
     37e:	7b8d      	ldrb	r5, [r1, #14]
     380:	f003 047f 	and.w	r4, r3, #127	; 0x7f
     384:	0124      	lsls	r4, r4, #4
     386:	ea54 1515 	orrs.w	r5, r4, r5, lsr #4
     38a:	d005      	beq.n	398 <_ZN13geometry_msgs6Pose2D11deserializeEPh+0x8c>
     38c:	f5a5 7360 	sub.w	r3, r5, #896	; 0x380
     390:	ea42 54c3 	orr.w	r4, r2, r3, lsl #23
     394:	6084      	str	r4, [r0, #8]
     396:	7bcb      	ldrb	r3, [r1, #15]
     398:	f003 0580 	and.w	r5, r3, #128	; 0x80
     39c:	b2ec      	uxtb	r4, r5
     39e:	b114      	cbz	r4, 3a6 <_ZN13geometry_msgs6Pose2D11deserializeEPh+0x9a>
     3a0:	f102 4200 	add.w	r2, r2, #2147483648	; 0x80000000
     3a4:	6082      	str	r2, [r0, #8]
     3a6:	7ccb      	ldrb	r3, [r1, #19]
     3a8:	095d      	lsrs	r5, r3, #5
     3aa:	60c5      	str	r5, [r0, #12]
     3ac:	7d0c      	ldrb	r4, [r1, #20]
     3ae:	ea45 03c4 	orr.w	r3, r5, r4, lsl #3
     3b2:	60c3      	str	r3, [r0, #12]
     3b4:	7d4a      	ldrb	r2, [r1, #21]
     3b6:	ea43 25c2 	orr.w	r5, r3, r2, lsl #11
     3ba:	60c5      	str	r5, [r0, #12]
     3bc:	7d8c      	ldrb	r4, [r1, #22]
     3be:	f004 030f 	and.w	r3, r4, #15
     3c2:	ea45 42c3 	orr.w	r2, r5, r3, lsl #19
     3c6:	60c2      	str	r2, [r0, #12]
     3c8:	7dcb      	ldrb	r3, [r1, #23]
     3ca:	7d8d      	ldrb	r5, [r1, #22]
     3cc:	f003 047f 	and.w	r4, r3, #127	; 0x7f
     3d0:	0124      	lsls	r4, r4, #4
     3d2:	ea54 1415 	orrs.w	r4, r4, r5, lsr #4
     3d6:	d005      	beq.n	3e4 <_ZN13geometry_msgs6Pose2D11deserializeEPh+0xd8>
     3d8:	f5a4 7360 	sub.w	r3, r4, #896	; 0x380
     3dc:	ea42 54c3 	orr.w	r4, r2, r3, lsl #23
     3e0:	60c4      	str	r4, [r0, #12]
     3e2:	7dcb      	ldrb	r3, [r1, #23]
     3e4:	f003 0180 	and.w	r1, r3, #128	; 0x80
     3e8:	b2cb      	uxtb	r3, r1
     3ea:	b113      	cbz	r3, 3f2 <_ZN13geometry_msgs6Pose2D11deserializeEPh+0xe6>
     3ec:	f102 4200 	add.w	r2, r2, #2147483648	; 0x80000000
     3f0:	60c2      	str	r2, [r0, #12]
     3f2:	2018      	movs	r0, #24
     3f4:	bc30      	pop	{r4, r5}
     3f6:	4770      	bx	lr

000003f8 <_ZN13geometry_msgs6Pose2D7getTypeEv>:
     3f8:	f648 5018 	movw	r0, #36120	; 0x8d18
     3fc:	f2c0 0000 	movt	r0, #0
     400:	4770      	bx	lr
     402:	bf00      	nop

00000404 <_ZN13geometry_msgs6Pose2D6getMD5Ev>:
     404:	f648 5030 	movw	r0, #36144	; 0x8d30
     408:	f2c0 0000 	movt	r0, #0
     40c:	4770      	bx	lr
     40e:	bf00      	nop

00000410 <_ZN3ros10SubscriberIN8std_msgs6StringEE15getEndpointTypeEv>:
     410:	6980      	ldr	r0, [r0, #24]
     412:	4770      	bx	lr

00000414 <_ZN3ros10SubscriberIN8std_msgs6StringEE10getMsgTypeEv>:
     414:	f648 40e4 	movw	r0, #36068	; 0x8ce4
     418:	f2c0 0000 	movt	r0, #0
     41c:	4770      	bx	lr
     41e:	bf00      	nop

00000420 <_ZN3ros10SubscriberIN8std_msgs6StringEE9getMsgMD5Ev>:
     420:	f648 40f4 	movw	r0, #36084	; 0x8cf4
     424:	f2c0 0000 	movt	r0, #0
     428:	4770      	bx	lr
     42a:	bf00      	nop

0000042c <_ZN3ros11NodeHandle_I12MbedHardwareLi25ELi25ELi512ELi512EE9connectedEv>:
     42c:	f890 05fc 	ldrb.w	r0, [r0, #1532]	; 0x5fc
     430:	4770      	bx	lr
     432:	bf00      	nop

00000434 <_Z13getCommand_cbRKN8std_msgs6StringE>:
     434:	b538      	push	{r3, r4, r5, lr}
     436:	f240 74c0 	movw	r4, #1984	; 0x7c0
     43a:	f2c1 0400 	movt	r4, #4096	; 0x1000
     43e:	2100      	movs	r1, #0
     440:	2264      	movs	r2, #100	; 0x64
     442:	4605      	mov	r5, r0
     444:	4620      	mov	r0, r4
     446:	f006 fd6d 	bl	6f24 <memset>
     44a:	686d      	ldr	r5, [r5, #4]
     44c:	4628      	mov	r0, r5
     44e:	f007 f80d 	bl	746c <strlen>
     452:	4629      	mov	r1, r5
     454:	4602      	mov	r2, r0
     456:	4620      	mov	r0, r4
     458:	e8bd 4038 	ldmia.w	sp!, {r3, r4, r5, lr}
     45c:	f006 bd3f 	b.w	6ede <memcpy>

00000460 <_ZN8std_msgs6String11deserializeEPh>:
     460:	b4f0      	push	{r4, r5, r6, r7}
     462:	4606      	mov	r6, r0
     464:	6808      	ldr	r0, [r1, #0]
     466:	b082      	sub	sp, #8
     468:	9001      	str	r0, [sp, #4]
     46a:	9d01      	ldr	r5, [sp, #4]
     46c:	1ccf      	adds	r7, r1, #3
     46e:	1d28      	adds	r0, r5, #4
     470:	2804      	cmp	r0, #4
     472:	d91d      	bls.n	4b0 <_ZN8std_msgs6String11deserializeEPh+0x50>
     474:	460b      	mov	r3, r1
     476:	f813 7f04 	ldrb.w	r7, [r3, #4]!
     47a:	2205      	movs	r2, #5
     47c:	1e6c      	subs	r4, r5, #1
     47e:	f803 7c01 	strb.w	r7, [r3, #-1]
     482:	1ccf      	adds	r7, r1, #3
     484:	4282      	cmp	r2, r0
     486:	f004 0401 	and.w	r4, r4, #1
     48a:	d011      	beq.n	4b0 <_ZN8std_msgs6String11deserializeEPh+0x50>
     48c:	b13c      	cbz	r4, 49e <_ZN8std_msgs6String11deserializeEPh+0x3e>
     48e:	460b      	mov	r3, r1
     490:	f813 4f05 	ldrb.w	r4, [r3, #5]!
     494:	2206      	movs	r2, #6
     496:	4282      	cmp	r2, r0
     498:	f803 4c01 	strb.w	r4, [r3, #-1]
     49c:	d008      	beq.n	4b0 <_ZN8std_msgs6String11deserializeEPh+0x50>
     49e:	785c      	ldrb	r4, [r3, #1]
     4a0:	3202      	adds	r2, #2
     4a2:	f803 4b01 	strb.w	r4, [r3], #1
     4a6:	785c      	ldrb	r4, [r3, #1]
     4a8:	4282      	cmp	r2, r0
     4aa:	f803 4b01 	strb.w	r4, [r3], #1
     4ae:	d1f6      	bne.n	49e <_ZN8std_msgs6String11deserializeEPh+0x3e>
     4b0:	1949      	adds	r1, r1, r5
     4b2:	2300      	movs	r3, #0
     4b4:	70cb      	strb	r3, [r1, #3]
     4b6:	6077      	str	r7, [r6, #4]
     4b8:	b002      	add	sp, #8
     4ba:	bcf0      	pop	{r4, r5, r6, r7}
     4bc:	4770      	bx	lr
     4be:	bf00      	nop

000004c0 <_ZNK8std_msgs6String9serializeEPh>:
     4c0:	b570      	push	{r4, r5, r6, lr}
     4c2:	4605      	mov	r5, r0
     4c4:	b082      	sub	sp, #8
     4c6:	6840      	ldr	r0, [r0, #4]
     4c8:	460e      	mov	r6, r1
     4ca:	f006 ffcf 	bl	746c <strlen>
     4ce:	ab02      	add	r3, sp, #8
     4d0:	f843 0d04 	str.w	r0, [r3, #-4]!
     4d4:	4604      	mov	r4, r0
     4d6:	6818      	ldr	r0, [r3, #0]
     4d8:	4631      	mov	r1, r6
     4da:	f841 0b04 	str.w	r0, [r1], #4
     4de:	4608      	mov	r0, r1
     4e0:	4622      	mov	r2, r4
     4e2:	6869      	ldr	r1, [r5, #4]
     4e4:	f006 fcfb 	bl	6ede <memcpy>
     4e8:	1d20      	adds	r0, r4, #4
     4ea:	b002      	add	sp, #8
     4ec:	bd70      	pop	{r4, r5, r6, pc}
     4ee:	bf00      	nop

000004f0 <_ZNK14rosserial_msgs20RequestParamResponse9serializeEPh>:
     4f0:	e92d 43f0 	stmdb	sp!, {r4, r5, r6, r7, r8, r9, lr}
     4f4:	7903      	ldrb	r3, [r0, #4]
     4f6:	460e      	mov	r6, r1
     4f8:	2100      	movs	r1, #0
     4fa:	7033      	strb	r3, [r6, #0]
     4fc:	7071      	strb	r1, [r6, #1]
     4fe:	70b1      	strb	r1, [r6, #2]
     500:	70f1      	strb	r1, [r6, #3]
     502:	4604      	mov	r4, r0
     504:	7900      	ldrb	r0, [r0, #4]
     506:	b083      	sub	sp, #12
     508:	2800      	cmp	r0, #0
     50a:	d065      	beq.n	5d8 <_ZNK14rosserial_msgs20RequestParamResponse9serializeEPh+0xe8>
     50c:	4633      	mov	r3, r6
     50e:	2004      	movs	r0, #4
     510:	68e2      	ldr	r2, [r4, #12]
     512:	1c4d      	adds	r5, r1, #1
     514:	f852 2021 	ldr.w	r2, [r2, r1, lsl #2]
     518:	b2e9      	uxtb	r1, r5
     51a:	0c17      	lsrs	r7, r2, #16
     51c:	0e15      	lsrs	r5, r2, #24
     51e:	ea4f 2c12 	mov.w	r12, r2, lsr #8
     522:	711a      	strb	r2, [r3, #4]
     524:	f883 c005 	strb.w	r12, [r3, #5]
     528:	719f      	strb	r7, [r3, #6]
     52a:	71dd      	strb	r5, [r3, #7]
     52c:	7922      	ldrb	r2, [r4, #4]
     52e:	3004      	adds	r0, #4
     530:	3304      	adds	r3, #4
     532:	428a      	cmp	r2, r1
     534:	d8ec      	bhi.n	510 <_ZNK14rosserial_msgs20RequestParamResponse9serializeEPh+0x20>
     536:	4603      	mov	r3, r0
     538:	3004      	adds	r0, #4
     53a:	f103 0801 	add.w	r8, r3, #1
     53e:	f103 0c02 	add.w	r12, r3, #2
     542:	1cdf      	adds	r7, r3, #3
     544:	4602      	mov	r2, r0
     546:	7c25      	ldrb	r5, [r4, #16]
     548:	2100      	movs	r1, #0
     54a:	54f5      	strb	r5, [r6, r3]
     54c:	f806 1008 	strb.w	r1, [r6, r8]
     550:	f806 100c 	strb.w	r1, [r6, r12]
     554:	55f1      	strb	r1, [r6, r7]
     556:	7c23      	ldrb	r3, [r4, #16]
     558:	b1a3      	cbz	r3, 584 <_ZNK14rosserial_msgs20RequestParamResponse9serializeEPh+0x94>
     55a:	1833      	adds	r3, r6, r0
     55c:	69a7      	ldr	r7, [r4, #24]
     55e:	1c4d      	adds	r5, r1, #1
     560:	f857 2021 	ldr.w	r2, [r7, r1, lsl #2]
     564:	b2e9      	uxtb	r1, r5
     566:	0c17      	lsrs	r7, r2, #16
     568:	0e15      	lsrs	r5, r2, #24
     56a:	ea4f 2812 	mov.w	r8, r2, lsr #8
     56e:	5432      	strb	r2, [r6, r0]
     570:	f883 8001 	strb.w	r8, [r3, #1]
     574:	709f      	strb	r7, [r3, #2]
     576:	70dd      	strb	r5, [r3, #3]
     578:	7c22      	ldrb	r2, [r4, #16]
     57a:	3004      	adds	r0, #4
     57c:	3304      	adds	r3, #4
     57e:	428a      	cmp	r2, r1
     580:	d8ec      	bhi.n	55c <_ZNK14rosserial_msgs20RequestParamResponse9serializeEPh+0x6c>
     582:	4602      	mov	r2, r0
     584:	7f21      	ldrb	r1, [r4, #28]
     586:	1833      	adds	r3, r6, r0
     588:	2500      	movs	r5, #0
     58a:	54b1      	strb	r1, [r6, r2]
     58c:	705d      	strb	r5, [r3, #1]
     58e:	709d      	strb	r5, [r3, #2]
     590:	70dd      	strb	r5, [r3, #3]
     592:	7f22      	ldrb	r2, [r4, #28]
     594:	f100 0804 	add.w	r8, r0, #4
     598:	b1d2      	cbz	r2, 5d0 <_ZNK14rosserial_msgs20RequestParamResponse9serializeEPh+0xe0>
     59a:	6a67      	ldr	r7, [r4, #36]	; 0x24
     59c:	f108 0904 	add.w	r9, r8, #4
     5a0:	f857 0025 	ldr.w	r0, [r7, r5, lsl #2]
     5a4:	f006 ff62 	bl	746c <strlen>
     5a8:	9001      	str	r0, [sp, #4]
     5aa:	4607      	mov	r7, r0
     5ac:	9801      	ldr	r0, [sp, #4]
     5ae:	463a      	mov	r2, r7
     5b0:	f846 0008 	str.w	r0, [r6, r8]
     5b4:	6a61      	ldr	r1, [r4, #36]	; 0x24
     5b6:	eb06 0009 	add.w	r0, r6, r9
     5ba:	f851 1025 	ldr.w	r1, [r1, r5, lsl #2]
     5be:	f006 fc8e 	bl	6ede <memcpy>
     5c2:	3501      	adds	r5, #1
     5c4:	7f23      	ldrb	r3, [r4, #28]
     5c6:	b2ed      	uxtb	r5, r5
     5c8:	42ab      	cmp	r3, r5
     5ca:	eb09 0807 	add.w	r8, r9, r7
     5ce:	d8e4      	bhi.n	59a <_ZNK14rosserial_msgs20RequestParamResponse9serializeEPh+0xaa>
     5d0:	4640      	mov	r0, r8
     5d2:	b003      	add	sp, #12
     5d4:	e8bd 83f0 	ldmia.w	sp!, {r4, r5, r6, r7, r8, r9, pc}
     5d8:	2208      	movs	r2, #8
     5da:	4610      	mov	r0, r2
     5dc:	2707      	movs	r7, #7
     5de:	f04f 0c06 	mov.w	r12, #6
     5e2:	f04f 0805 	mov.w	r8, #5
     5e6:	2304      	movs	r3, #4
     5e8:	e7ad      	b.n	546 <_ZNK14rosserial_msgs20RequestParamResponse9serializeEPh+0x56>
     5ea:	bf00      	nop

000005ec <_ZN14rosserial_msgs3Log11deserializeEPh>:
     5ec:	b4f0      	push	{r4, r5, r6, r7}
     5ee:	460b      	mov	r3, r1
     5f0:	f813 2b01 	ldrb.w	r2, [r3], #1
     5f4:	4606      	mov	r6, r0
     5f6:	7102      	strb	r2, [r0, #4]
     5f8:	6818      	ldr	r0, [r3, #0]
     5fa:	b082      	sub	sp, #8
     5fc:	9001      	str	r0, [sp, #4]
     5fe:	9d01      	ldr	r5, [sp, #4]
     600:	1d0f      	adds	r7, r1, #4
     602:	1d68      	adds	r0, r5, #5
     604:	2805      	cmp	r0, #5
     606:	d91d      	bls.n	644 <_ZN14rosserial_msgs3Log11deserializeEPh+0x58>
     608:	460b      	mov	r3, r1
     60a:	f813 7f05 	ldrb.w	r7, [r3, #5]!
     60e:	2206      	movs	r2, #6
     610:	1e6c      	subs	r4, r5, #1
     612:	f803 7c01 	strb.w	r7, [r3, #-1]
     616:	1d0f      	adds	r7, r1, #4
     618:	4282      	cmp	r2, r0
     61a:	f004 0401 	and.w	r4, r4, #1
     61e:	d011      	beq.n	644 <_ZN14rosserial_msgs3Log11deserializeEPh+0x58>
     620:	b13c      	cbz	r4, 632 <_ZN14rosserial_msgs3Log11deserializeEPh+0x46>
     622:	460b      	mov	r3, r1
     624:	f813 4f06 	ldrb.w	r4, [r3, #6]!
     628:	2207      	movs	r2, #7
     62a:	4282      	cmp	r2, r0
     62c:	f803 4c01 	strb.w	r4, [r3, #-1]
     630:	d008      	beq.n	644 <_ZN14rosserial_msgs3Log11deserializeEPh+0x58>
     632:	785c      	ldrb	r4, [r3, #1]
     634:	3202      	adds	r2, #2
     636:	f803 4b01 	strb.w	r4, [r3], #1
     63a:	785c      	ldrb	r4, [r3, #1]
     63c:	4282      	cmp	r2, r0
     63e:	f803 4b01 	strb.w	r4, [r3], #1
     642:	d1f6      	bne.n	632 <_ZN14rosserial_msgs3Log11deserializeEPh+0x46>
     644:	1949      	adds	r1, r1, r5
     646:	2300      	movs	r3, #0
     648:	710b      	strb	r3, [r1, #4]
     64a:	60b7      	str	r7, [r6, #8]
     64c:	b002      	add	sp, #8
     64e:	bcf0      	pop	{r4, r5, r6, r7}
     650:	4770      	bx	lr
     652:	bf00      	nop

00000654 <_ZNK14rosserial_msgs3Log9serializeEPh>:
     654:	b570      	push	{r4, r5, r6, lr}
     656:	7903      	ldrb	r3, [r0, #4]
     658:	b082      	sub	sp, #8
     65a:	700b      	strb	r3, [r1, #0]
     65c:	4606      	mov	r6, r0
     65e:	6880      	ldr	r0, [r0, #8]
     660:	460d      	mov	r5, r1
     662:	f006 ff03 	bl	746c <strlen>
     666:	4604      	mov	r4, r0
     668:	a802      	add	r0, sp, #8
     66a:	f840 4d04 	str.w	r4, [r0, #-4]!
     66e:	6801      	ldr	r1, [r0, #0]
     670:	4622      	mov	r2, r4
     672:	f8c5 1001 	str.w	r1, [r5, #1]
     676:	68b1      	ldr	r1, [r6, #8]
     678:	1d68      	adds	r0, r5, #5
     67a:	f006 fc30 	bl	6ede <memcpy>
     67e:	1d60      	adds	r0, r4, #5
     680:	b002      	add	sp, #8
     682:	bd70      	pop	{r4, r5, r6, pc}

00000684 <_ZN14rosserial_msgs9TopicInfo11deserializeEPh>:
     684:	b4f0      	push	{r4, r5, r6, r7}
     686:	780b      	ldrb	r3, [r1, #0]
     688:	4606      	mov	r6, r0
     68a:	8083      	strh	r3, [r0, #4]
     68c:	784a      	ldrb	r2, [r1, #1]
     68e:	b084      	sub	sp, #16
     690:	ea43 2002 	orr.w	r0, r3, r2, lsl #8
     694:	80b0      	strh	r0, [r6, #4]
     696:	f8d1 4002 	ldr.w	r4, [r1, #2]
     69a:	1d4d      	adds	r5, r1, #5
     69c:	9401      	str	r4, [sp, #4]
     69e:	9c01      	ldr	r4, [sp, #4]
     6a0:	1da7      	adds	r7, r4, #6
     6a2:	2f06      	cmp	r7, #6
     6a4:	d91d      	bls.n	6e2 <_ZN14rosserial_msgs9TopicInfo11deserializeEPh+0x5e>
     6a6:	460b      	mov	r3, r1
     6a8:	f813 5f06 	ldrb.w	r5, [r3, #6]!
     6ac:	2207      	movs	r2, #7
     6ae:	1e60      	subs	r0, r4, #1
     6b0:	f803 5c01 	strb.w	r5, [r3, #-1]
     6b4:	1d4d      	adds	r5, r1, #5
     6b6:	42ba      	cmp	r2, r7
     6b8:	f000 0001 	and.w	r0, r0, #1
     6bc:	d011      	beq.n	6e2 <_ZN14rosserial_msgs9TopicInfo11deserializeEPh+0x5e>
     6be:	b138      	cbz	r0, 6d0 <_ZN14rosserial_msgs9TopicInfo11deserializeEPh+0x4c>
     6c0:	460b      	mov	r3, r1
     6c2:	f813 0f07 	ldrb.w	r0, [r3, #7]!
     6c6:	2208      	movs	r2, #8
     6c8:	42ba      	cmp	r2, r7
     6ca:	f803 0c01 	strb.w	r0, [r3, #-1]
     6ce:	d008      	beq.n	6e2 <_ZN14rosserial_msgs9TopicInfo11deserializeEPh+0x5e>
     6d0:	7858      	ldrb	r0, [r3, #1]
     6d2:	3202      	adds	r2, #2
     6d4:	f803 0b01 	strb.w	r0, [r3], #1
     6d8:	7858      	ldrb	r0, [r3, #1]
     6da:	42ba      	cmp	r2, r7
     6dc:	f803 0b01 	strb.w	r0, [r3], #1
     6e0:	d1f6      	bne.n	6d0 <_ZN14rosserial_msgs9TopicInfo11deserializeEPh+0x4c>
     6e2:	190b      	adds	r3, r1, r4
     6e4:	2200      	movs	r2, #0
     6e6:	715a      	strb	r2, [r3, #5]
     6e8:	60b5      	str	r5, [r6, #8]
     6ea:	59cc      	ldr	r4, [r1, r7]
     6ec:	f107 0c04 	add.w	r12, r7, #4
     6f0:	9402      	str	r4, [sp, #8]
     6f2:	9d02      	ldr	r5, [sp, #8]
     6f4:	4465      	add	r5, r12
     6f6:	45ac      	cmp	r12, r5
     6f8:	d21a      	bcs.n	730 <_ZN14rosserial_msgs9TopicInfo11deserializeEPh+0xac>
     6fa:	7a98      	ldrb	r0, [r3, #10]
     6fc:	ea6f 020c 	mvn.w	r2, r12
     700:	1d7c      	adds	r4, r7, #5
     702:	7258      	strb	r0, [r3, #9]
     704:	1952      	adds	r2, r2, r5
     706:	3301      	adds	r3, #1
     708:	42ac      	cmp	r4, r5
     70a:	f002 0001 	and.w	r0, r2, #1
     70e:	d20f      	bcs.n	730 <_ZN14rosserial_msgs9TopicInfo11deserializeEPh+0xac>
     710:	b128      	cbz	r0, 71e <_ZN14rosserial_msgs9TopicInfo11deserializeEPh+0x9a>
     712:	7a9a      	ldrb	r2, [r3, #10]
     714:	1dbc      	adds	r4, r7, #6
     716:	725a      	strb	r2, [r3, #9]
     718:	3301      	adds	r3, #1
     71a:	42ac      	cmp	r4, r5
     71c:	d208      	bcs.n	730 <_ZN14rosserial_msgs9TopicInfo11deserializeEPh+0xac>
     71e:	7a9f      	ldrb	r7, [r3, #10]
     720:	1c58      	adds	r0, r3, #1
     722:	7ada      	ldrb	r2, [r3, #11]
     724:	3402      	adds	r4, #2
     726:	725f      	strb	r7, [r3, #9]
     728:	1c43      	adds	r3, r0, #1
     72a:	42ac      	cmp	r4, r5
     72c:	7242      	strb	r2, [r0, #9]
     72e:	d3f6      	bcc.n	71e <_ZN14rosserial_msgs9TopicInfo11deserializeEPh+0x9a>
     730:	f10c 34ff 	add.w	r4, r12, #4294967295	; 0xffffffff
     734:	190f      	adds	r7, r1, r4
     736:	2000      	movs	r0, #0
     738:	194b      	adds	r3, r1, r5
     73a:	f803 0c01 	strb.w	r0, [r3, #-1]
     73e:	60f7      	str	r7, [r6, #12]
     740:	681a      	ldr	r2, [r3, #0]
     742:	1d2f      	adds	r7, r5, #4
     744:	9203      	str	r2, [sp, #12]
     746:	9c03      	ldr	r4, [sp, #12]
     748:	1938      	adds	r0, r7, r4
     74a:	4287      	cmp	r7, r0
     74c:	d21b      	bcs.n	786 <_ZN14rosserial_msgs9TopicInfo11deserializeEPh+0x102>
     74e:	f893 c004 	ldrb.w	r12, [r3, #4]
     752:	43fa      	mvns	r2, r7
     754:	1d6c      	adds	r4, r5, #5
     756:	1812      	adds	r2, r2, r0
     758:	f883 c003 	strb.w	r12, [r3, #3]
     75c:	3301      	adds	r3, #1
     75e:	4284      	cmp	r4, r0
     760:	f002 0201 	and.w	r2, r2, #1
     764:	d20f      	bcs.n	786 <_ZN14rosserial_msgs9TopicInfo11deserializeEPh+0x102>
     766:	b12a      	cbz	r2, 774 <_ZN14rosserial_msgs9TopicInfo11deserializeEPh+0xf0>
     768:	791a      	ldrb	r2, [r3, #4]
     76a:	1dac      	adds	r4, r5, #6
     76c:	70da      	strb	r2, [r3, #3]
     76e:	3301      	adds	r3, #1
     770:	4284      	cmp	r4, r0
     772:	d208      	bcs.n	786 <_ZN14rosserial_msgs9TopicInfo11deserializeEPh+0x102>
     774:	791d      	ldrb	r5, [r3, #4]
     776:	1c5a      	adds	r2, r3, #1
     778:	70dd      	strb	r5, [r3, #3]
     77a:	795b      	ldrb	r3, [r3, #5]
     77c:	3402      	adds	r4, #2
     77e:	70d3      	strb	r3, [r2, #3]
     780:	1c53      	adds	r3, r2, #1
     782:	4284      	cmp	r4, r0
     784:	d3f6      	bcc.n	774 <_ZN14rosserial_msgs9TopicInfo11deserializeEPh+0xf0>
     786:	1e7c      	subs	r4, r7, #1
     788:	180b      	adds	r3, r1, r0
     78a:	190f      	adds	r7, r1, r4
     78c:	2500      	movs	r5, #0
     78e:	f803 5c01 	strb.w	r5, [r3, #-1]
     792:	6137      	str	r7, [r6, #16]
     794:	789a      	ldrb	r2, [r3, #2]
     796:	785d      	ldrb	r5, [r3, #1]
     798:	5c09      	ldrb	r1, [r1, r0]
     79a:	0414      	lsls	r4, r2, #16
     79c:	78da      	ldrb	r2, [r3, #3]
     79e:	ea44 2305 	orr.w	r3, r4, r5, lsl #8
     7a2:	430b      	orrs	r3, r1
     7a4:	ea43 6102 	orr.w	r1, r3, r2, lsl #24
     7a8:	6171      	str	r1, [r6, #20]
     7aa:	3004      	adds	r0, #4
     7ac:	b004      	add	sp, #16
     7ae:	bcf0      	pop	{r4, r5, r6, r7}
     7b0:	4770      	bx	lr
     7b2:	bf00      	nop

000007b4 <_ZNK14rosserial_msgs9TopicInfo9serializeEPh>:
     7b4:	8883      	ldrh	r3, [r0, #4]
     7b6:	e92d 41f0 	stmdb	sp!, {r4, r5, r6, r7, r8, lr}
     7ba:	700b      	strb	r3, [r1, #0]
     7bc:	4605      	mov	r5, r0
     7be:	8880      	ldrh	r0, [r0, #4]
     7c0:	460c      	mov	r4, r1
     7c2:	0a01      	lsrs	r1, r0, #8
     7c4:	7061      	strb	r1, [r4, #1]
     7c6:	b084      	sub	sp, #16
     7c8:	68a8      	ldr	r0, [r5, #8]
     7ca:	f006 fe4f 	bl	746c <strlen>
     7ce:	aa04      	add	r2, sp, #16
     7d0:	f842 0d0c 	str.w	r0, [r2, #-12]!
     7d4:	6817      	ldr	r7, [r2, #0]
     7d6:	4606      	mov	r6, r0
     7d8:	f8c4 7002 	str.w	r7, [r4, #2]
     7dc:	4602      	mov	r2, r0
     7de:	68a9      	ldr	r1, [r5, #8]
     7e0:	1da0      	adds	r0, r4, #6
     7e2:	f006 fb7c 	bl	6ede <memcpy>
     7e6:	68e8      	ldr	r0, [r5, #12]
     7e8:	f006 fe40 	bl	746c <strlen>
     7ec:	ab04      	add	r3, sp, #16
     7ee:	f843 0d08 	str.w	r0, [r3, #-8]!
     7f2:	4680      	mov	r8, r0
     7f4:	6818      	ldr	r0, [r3, #0]
     7f6:	1db1      	adds	r1, r6, #6
     7f8:	5060      	str	r0, [r4, r1]
     7fa:	360a      	adds	r6, #10
     7fc:	68e9      	ldr	r1, [r5, #12]
     7fe:	4642      	mov	r2, r8
     800:	19a0      	adds	r0, r4, r6
     802:	f006 fb6c 	bl	6ede <memcpy>
     806:	6928      	ldr	r0, [r5, #16]
     808:	f006 fe30 	bl	746c <strlen>
     80c:	aa04      	add	r2, sp, #16
     80e:	f842 0d04 	str.w	r0, [r2, #-4]!
     812:	6813      	ldr	r3, [r2, #0]
     814:	4446      	add	r6, r8
     816:	51a3      	str	r3, [r4, r6]
     818:	4607      	mov	r7, r0
     81a:	f106 0804 	add.w	r8, r6, #4
     81e:	6929      	ldr	r1, [r5, #16]
     820:	463a      	mov	r2, r7
     822:	eb04 0008 	add.w	r0, r4, r8
     826:	f006 fb5a 	bl	6ede <memcpy>
     82a:	696b      	ldr	r3, [r5, #20]
     82c:	eb08 0007 	add.w	r0, r8, r7
     830:	1822      	adds	r2, r4, r0
     832:	0a1e      	lsrs	r6, r3, #8
     834:	0c1d      	lsrs	r5, r3, #16
     836:	0e19      	lsrs	r1, r3, #24
     838:	5423      	strb	r3, [r4, r0]
     83a:	3004      	adds	r0, #4
     83c:	7056      	strb	r6, [r2, #1]
     83e:	7095      	strb	r5, [r2, #2]
     840:	70d1      	strb	r1, [r2, #3]
     842:	b004      	add	sp, #16
     844:	e8bd 81f0 	ldmia.w	sp!, {r4, r5, r6, r7, r8, pc}

00000848 <_ZN14rosserial_msgs20RequestParamResponse11deserializeEPh>:
     848:	e92d 47f0 	stmdb	sp!, {r4, r5, r6, r7, r8, r9, r10, lr}
     84c:	780c      	ldrb	r4, [r1, #0]
     84e:	7903      	ldrb	r3, [r0, #4]
     850:	b082      	sub	sp, #8
     852:	42a3      	cmp	r3, r4
     854:	4606      	mov	r6, r0
     856:	4688      	mov	r8, r1
     858:	f0c0 808f 	bcc.w	97a <_ZN14rosserial_msgs20RequestParamResponse11deserializeEPh+0x132>
     85c:	7134      	strb	r4, [r6, #4]
     85e:	2c00      	cmp	r4, #0
     860:	f000 8094 	beq.w	98c <_ZN14rosserial_msgs20RequestParamResponse11deserializeEPh+0x144>
     864:	4643      	mov	r3, r8
     866:	2200      	movs	r2, #0
     868:	2104      	movs	r1, #4
     86a:	f106 0708 	add.w	r7, r6, #8
     86e:	7998      	ldrb	r0, [r3, #6]
     870:	f893 c005 	ldrb.w	r12, [r3, #5]
     874:	791d      	ldrb	r5, [r3, #4]
     876:	0400      	lsls	r0, r0, #16
     878:	79dc      	ldrb	r4, [r3, #7]
     87a:	ea40 200c 	orr.w	r0, r0, r12, lsl #8
     87e:	4328      	orrs	r0, r5
     880:	ea40 6504 	orr.w	r5, r0, r4, lsl #24
     884:	60b5      	str	r5, [r6, #8]
     886:	68f0      	ldr	r0, [r6, #12]
     888:	683d      	ldr	r5, [r7, #0]
     88a:	1c54      	adds	r4, r2, #1
     88c:	f840 5022 	str.w	r5, [r0, r2, lsl #2]
     890:	7930      	ldrb	r0, [r6, #4]
     892:	b2e2      	uxtb	r2, r4
     894:	3104      	adds	r1, #4
     896:	3304      	adds	r3, #4
     898:	4290      	cmp	r0, r2
     89a:	d8e8      	bhi.n	86e <_ZN14rosserial_msgs20RequestParamResponse11deserializeEPh+0x26>
     89c:	1d0c      	adds	r4, r1, #4
     89e:	f818 5001 	ldrb.w	r5, [r8, r1]
     8a2:	7c31      	ldrb	r1, [r6, #16]
     8a4:	4627      	mov	r7, r4
     8a6:	42a9      	cmp	r1, r5
     8a8:	d378      	bcc.n	99c <_ZN14rosserial_msgs20RequestParamResponse11deserializeEPh+0x154>
     8aa:	7435      	strb	r5, [r6, #16]
     8ac:	b1ed      	cbz	r5, 8ea <_ZN14rosserial_msgs20RequestParamResponse11deserializeEPh+0xa2>
     8ae:	eb08 0304 	add.w	r3, r8, r4
     8b2:	2100      	movs	r1, #0
     8b4:	f106 0714 	add.w	r7, r6, #20
     8b8:	7898      	ldrb	r0, [r3, #2]
     8ba:	f893 c001 	ldrb.w	r12, [r3, #1]
     8be:	f818 5004 	ldrb.w	r5, [r8, r4]
     8c2:	0402      	lsls	r2, r0, #16
     8c4:	ea42 220c 	orr.w	r2, r2, r12, lsl #8
     8c8:	78d8      	ldrb	r0, [r3, #3]
     8ca:	432a      	orrs	r2, r5
     8cc:	ea42 6500 	orr.w	r5, r2, r0, lsl #24
     8d0:	6175      	str	r5, [r6, #20]
     8d2:	69b2      	ldr	r2, [r6, #24]
     8d4:	683d      	ldr	r5, [r7, #0]
     8d6:	1c48      	adds	r0, r1, #1
     8d8:	f842 5021 	str.w	r5, [r2, r1, lsl #2]
     8dc:	7c32      	ldrb	r2, [r6, #16]
     8de:	b2c1      	uxtb	r1, r0
     8e0:	3404      	adds	r4, #4
     8e2:	3304      	adds	r3, #4
     8e4:	428a      	cmp	r2, r1
     8e6:	d8e7      	bhi.n	8b8 <_ZN14rosserial_msgs20RequestParamResponse11deserializeEPh+0x70>
     8e8:	4627      	mov	r7, r4
     8ea:	f818 5007 	ldrb.w	r5, [r8, r7]
     8ee:	7f30      	ldrb	r0, [r6, #28]
     8f0:	42a8      	cmp	r0, r5
     8f2:	d359      	bcc.n	9a8 <_ZN14rosserial_msgs20RequestParamResponse11deserializeEPh+0x160>
     8f4:	1d22      	adds	r2, r4, #4
     8f6:	7735      	strb	r5, [r6, #28]
     8f8:	2d00      	cmp	r5, #0
     8fa:	d03a      	beq.n	972 <_ZN14rosserial_msgs20RequestParamResponse11deserializeEPh+0x12a>
     8fc:	2100      	movs	r1, #0
     8fe:	f106 0920 	add.w	r9, r6, #32
     902:	468c      	mov	r12, r1
     904:	eb08 0302 	add.w	r3, r8, r2
     908:	681d      	ldr	r5, [r3, #0]
     90a:	1d17      	adds	r7, r2, #4
     90c:	9501      	str	r5, [sp, #4]
     90e:	9801      	ldr	r0, [sp, #4]
     910:	183d      	adds	r5, r7, r0
     912:	42af      	cmp	r7, r5
     914:	d21b      	bcs.n	94e <_ZN14rosserial_msgs20RequestParamResponse11deserializeEPh+0x106>
     916:	43fc      	mvns	r4, r7
     918:	f893 a004 	ldrb.w	r10, [r3, #4]
     91c:	1960      	adds	r0, r4, r5
     91e:	1d54      	adds	r4, r2, #5
     920:	f883 a003 	strb.w	r10, [r3, #3]
     924:	3301      	adds	r3, #1
     926:	42ac      	cmp	r4, r5
     928:	f000 0001 	and.w	r0, r0, #1
     92c:	d20f      	bcs.n	94e <_ZN14rosserial_msgs20RequestParamResponse11deserializeEPh+0x106>
     92e:	b128      	cbz	r0, 93c <_ZN14rosserial_msgs20RequestParamResponse11deserializeEPh+0xf4>
     930:	7918      	ldrb	r0, [r3, #4]
     932:	1d94      	adds	r4, r2, #6
     934:	70d8      	strb	r0, [r3, #3]
     936:	3301      	adds	r3, #1
     938:	42ac      	cmp	r4, r5
     93a:	d208      	bcs.n	94e <_ZN14rosserial_msgs20RequestParamResponse11deserializeEPh+0x106>
     93c:	7918      	ldrb	r0, [r3, #4]
     93e:	1c5a      	adds	r2, r3, #1
     940:	70d8      	strb	r0, [r3, #3]
     942:	795b      	ldrb	r3, [r3, #5]
     944:	3402      	adds	r4, #2
     946:	70d3      	strb	r3, [r2, #3]
     948:	1c53      	adds	r3, r2, #1
     94a:	42ac      	cmp	r4, r5
     94c:	d3f6      	bcc.n	93c <_ZN14rosserial_msgs20RequestParamResponse11deserializeEPh+0xf4>
     94e:	3f01      	subs	r7, #1
     950:	eb08 0005 	add.w	r0, r8, r5
     954:	4447      	add	r7, r8
     956:	f800 cc01 	strb.w	r12, [r0, #-1]
     95a:	6237      	str	r7, [r6, #32]
     95c:	6a73      	ldr	r3, [r6, #36]	; 0x24
     95e:	f8d9 0000 	ldr.w	r0, [r9]
     962:	1c4a      	adds	r2, r1, #1
     964:	f843 0021 	str.w	r0, [r3, r1, lsl #2]
     968:	7f33      	ldrb	r3, [r6, #28]
     96a:	b2d1      	uxtb	r1, r2
     96c:	428b      	cmp	r3, r1
     96e:	462a      	mov	r2, r5
     970:	d8c8      	bhi.n	904 <_ZN14rosserial_msgs20RequestParamResponse11deserializeEPh+0xbc>
     972:	4610      	mov	r0, r2
     974:	b002      	add	sp, #8
     976:	e8bd 87f0 	ldmia.w	sp!, {r4, r5, r6, r7, r8, r9, r10, pc}
     97a:	68c0      	ldr	r0, [r0, #12]
     97c:	00a1      	lsls	r1, r4, #2
     97e:	f006 fb47 	bl	7010 <realloc>
     982:	7134      	strb	r4, [r6, #4]
     984:	60f0      	str	r0, [r6, #12]
     986:	2c00      	cmp	r4, #0
     988:	f47f af6c 	bne.w	864 <_ZN14rosserial_msgs20RequestParamResponse11deserializeEPh+0x1c>
     98c:	2104      	movs	r1, #4
     98e:	f818 5001 	ldrb.w	r5, [r8, r1]
     992:	7c31      	ldrb	r1, [r6, #16]
     994:	2708      	movs	r7, #8
     996:	42a9      	cmp	r1, r5
     998:	463c      	mov	r4, r7
     99a:	d286      	bcs.n	8aa <_ZN14rosserial_msgs20RequestParamResponse11deserializeEPh+0x62>
     99c:	69b0      	ldr	r0, [r6, #24]
     99e:	00a9      	lsls	r1, r5, #2
     9a0:	f006 fb36 	bl	7010 <realloc>
     9a4:	61b0      	str	r0, [r6, #24]
     9a6:	e780      	b.n	8aa <_ZN14rosserial_msgs20RequestParamResponse11deserializeEPh+0x62>
     9a8:	6a70      	ldr	r0, [r6, #36]	; 0x24
     9aa:	00a9      	lsls	r1, r5, #2
     9ac:	f006 fb30 	bl	7010 <realloc>
     9b0:	6270      	str	r0, [r6, #36]	; 0x24
     9b2:	e79f      	b.n	8f4 <_ZN14rosserial_msgs20RequestParamResponse11deserializeEPh+0xac>

000009b4 <_ZN3ros11NodeHandle_I12MbedHardwareLi25ELi25ELi512ELi512EE7publishEiPKNS_3MsgE>:
     9b4:	e92d 41f0 	stmdb	sp!, {r4, r5, r6, r7, r8, lr}
     9b8:	2963      	cmp	r1, #99	; 0x63
     9ba:	b084      	sub	sp, #16
     9bc:	460e      	mov	r6, r1
     9be:	4604      	mov	r4, r0
     9c0:	dd03      	ble.n	9ca <_ZN3ros11NodeHandle_I12MbedHardwareLi25ELi25ELi512ELi512EE7publishEiPKNS_3MsgE+0x16>
     9c2:	f890 75fc 	ldrb.w	r7, [r0, #1532]	; 0x5fc
     9c6:	2f00      	cmp	r7, #0
     9c8:	d065      	beq.n	a96 <_ZN3ros11NodeHandle_I12MbedHardwareLi25ELi25ELi512ELi512EE7publishEiPKNS_3MsgE+0xe2>
     9ca:	6813      	ldr	r3, [r2, #0]
     9cc:	4610      	mov	r0, r2
     9ce:	f204 3127 	addw	r1, r4, #807	; 0x327
     9d2:	681a      	ldr	r2, [r3, #0]
     9d4:	4790      	blx	r2
     9d6:	b2c3      	uxtb	r3, r0
     9d8:	2500      	movs	r5, #0
     9da:	21ff      	movs	r1, #255	; 0xff
     9dc:	43df      	mvns	r7, r3
     9de:	b2f2      	uxtb	r2, r6
     9e0:	f884 3322 	strb.w	r3, [r4, #802]	; 0x322
     9e4:	26fe      	movs	r6, #254	; 0xfe
     9e6:	1c43      	adds	r3, r0, #1
     9e8:	f884 1320 	strb.w	r1, [r4, #800]	; 0x320
     9ec:	f884 6321 	strb.w	r6, [r4, #801]	; 0x321
     9f0:	f884 5323 	strb.w	r5, [r4, #803]	; 0x323
     9f4:	f884 7324 	strb.w	r7, [r4, #804]	; 0x324
     9f8:	f884 2325 	strb.w	r2, [r4, #805]	; 0x325
     9fc:	f884 5326 	strb.w	r5, [r4, #806]	; 0x326
     a00:	db1b      	blt.n	a3a <_ZN3ros11NodeHandle_I12MbedHardwareLi25ELi25ELi512ELi512EE7publishEiPKNS_3MsgE+0x86>
     a02:	1dc6      	adds	r6, r0, #7
     a04:	2305      	movs	r3, #5
     a06:	07c7      	lsls	r7, r0, #31
     a08:	4629      	mov	r1, r5
     a0a:	d40f      	bmi.n	a2c <_ZN3ros11NodeHandle_I12MbedHardwareLi25ELi25ELi512ELi512EE7publishEiPKNS_3MsgE+0x78>
     a0c:	2306      	movs	r3, #6
     a0e:	4611      	mov	r1, r2
     a10:	1c5f      	adds	r7, r3, #1
     a12:	f894 2326 	ldrb.w	r2, [r4, #806]	; 0x326
     a16:	42b7      	cmp	r7, r6
     a18:	440a      	add	r2, r1
     a1a:	d00b      	beq.n	a34 <_ZN3ros11NodeHandle_I12MbedHardwareLi25ELi25ELi512ELi512EE7publishEiPKNS_3MsgE+0x80>
     a1c:	19e5      	adds	r5, r4, r7
     a1e:	f895 1320 	ldrb.w	r1, [r5, #800]	; 0x320
     a22:	1c7b      	adds	r3, r7, #1
     a24:	18e5      	adds	r5, r4, r3
     a26:	1851      	adds	r1, r2, r1
     a28:	f895 2320 	ldrb.w	r2, [r5, #800]	; 0x320
     a2c:	1c5f      	adds	r7, r3, #1
     a2e:	42b7      	cmp	r7, r6
     a30:	440a      	add	r2, r1
     a32:	d1f3      	bne.n	a1c <_ZN3ros11NodeHandle_I12MbedHardwareLi25ELi25ELi512ELi512EE7publishEiPKNS_3MsgE+0x68>
     a34:	43d1      	mvns	r1, r2
     a36:	f001 01ff 	and.w	r1, r1, #255	; 0xff
     a3a:	f100 0708 	add.w	r7, r0, #8
     a3e:	1823      	adds	r3, r4, r0
     a40:	f5b7 7f00 	cmp.w	r7, #512	; 0x200
     a44:	f883 1327 	strb.w	r1, [r3, #807]	; 0x327
     a48:	dc29      	bgt.n	a9e <_ZN3ros11NodeHandle_I12MbedHardwareLi25ELi25ELi512ELi512EE7publishEiPKNS_3MsgE+0xea>
     a4a:	2f00      	cmp	r7, #0
     a4c:	f104 0804 	add.w	r8, r4, #4
     a50:	f504 7448 	add.w	r4, r4, #800	; 0x320
     a54:	dd1f      	ble.n	a96 <_ZN3ros11NodeHandle_I12MbedHardwareLi25ELi25ELi512ELi512EE7publishEiPKNS_3MsgE+0xe2>
     a56:	f108 0804 	add.w	r8, r8, #4
     a5a:	4640      	mov	r0, r8
     a5c:	7821      	ldrb	r1, [r4, #0]
     a5e:	2501      	movs	r5, #1
     a60:	1e7e      	subs	r6, r7, #1
     a62:	f003 fc37 	bl	42d4 <_ZN4mbed6Stream4putcEi>
     a66:	42af      	cmp	r7, r5
     a68:	f006 0601 	and.w	r6, r6, #1
     a6c:	d013      	beq.n	a96 <_ZN3ros11NodeHandle_I12MbedHardwareLi25ELi25ELi512ELi512EE7publishEiPKNS_3MsgE+0xe2>
     a6e:	b136      	cbz	r6, a7e <_ZN3ros11NodeHandle_I12MbedHardwareLi25ELi25ELi512ELi512EE7publishEiPKNS_3MsgE+0xca>
     a70:	4640      	mov	r0, r8
     a72:	7861      	ldrb	r1, [r4, #1]
     a74:	2502      	movs	r5, #2
     a76:	f003 fc2d 	bl	42d4 <_ZN4mbed6Stream4putcEi>
     a7a:	42af      	cmp	r7, r5
     a7c:	d00b      	beq.n	a96 <_ZN3ros11NodeHandle_I12MbedHardwareLi25ELi25ELi512ELi512EE7publishEiPKNS_3MsgE+0xe2>
     a7e:	5d61      	ldrb	r1, [r4, r5]
     a80:	1c6e      	adds	r6, r5, #1
     a82:	4640      	mov	r0, r8
     a84:	f003 fc26 	bl	42d4 <_ZN4mbed6Stream4putcEi>
     a88:	3502      	adds	r5, #2
     a8a:	4640      	mov	r0, r8
     a8c:	5da1      	ldrb	r1, [r4, r6]
     a8e:	f003 fc21 	bl	42d4 <_ZN4mbed6Stream4putcEi>
     a92:	42af      	cmp	r7, r5
     a94:	d1f3      	bne.n	a7e <_ZN3ros11NodeHandle_I12MbedHardwareLi25ELi25ELi512ELi512EE7publishEiPKNS_3MsgE+0xca>
     a96:	4638      	mov	r0, r7
     a98:	b004      	add	sp, #16
     a9a:	e8bd 81f0 	ldmia.w	sp!, {r4, r5, r6, r7, r8, pc}
     a9e:	4f08      	ldr	r7, [pc, #32]	; (ac0 <_ZN3ros11NodeHandle_I12MbedHardwareLi25ELi25ELi512ELi512EE7publishEiPKNS_3MsgE+0x10c>)
     aa0:	4908      	ldr	r1, [pc, #32]	; (ac4 <_ZN3ros11NodeHandle_I12MbedHardwareLi25ELi25ELi512ELi512EE7publishEiPKNS_3MsgE+0x110>)
     aa2:	6820      	ldr	r0, [r4, #0]
     aa4:	2203      	movs	r2, #3
     aa6:	9701      	str	r7, [sp, #4]
     aa8:	f88d 2008 	strb.w	r2, [sp, #8]
     aac:	9103      	str	r1, [sp, #12]
     aae:	6803      	ldr	r3, [r0, #0]
     ab0:	2107      	movs	r1, #7
     ab2:	4620      	mov	r0, r4
     ab4:	aa01      	add	r2, sp, #4
     ab6:	4798      	blx	r3
     ab8:	f04f 37ff 	mov.w	r7, #4294967295	; 0xffffffff
     abc:	e7eb      	b.n	a96 <_ZN3ros11NodeHandle_I12MbedHardwareLi25ELi25ELi512ELi512EE7publishEiPKNS_3MsgE+0xe2>
     abe:	bf00      	nop
     ac0:	000089d0 	.word	0x000089d0
     ac4:	00008d54 	.word	0x00008d54

00000ac8 <_ZN3ros11NodeHandle_I12MbedHardwareLi25ELi25ELi512ELi512EED1Ev>:
     ac8:	4a04      	ldr	r2, [pc, #16]	; (adc <_ZN3ros11NodeHandle_I12MbedHardwareLi25ELi25ELi512ELi512EED1Ev+0x14>)
     aca:	b510      	push	{r4, lr}
     acc:	4604      	mov	r4, r0
     ace:	f840 2b04 	str.w	r2, [r0], #4
     ad2:	3004      	adds	r0, #4
     ad4:	f001 ff58 	bl	2988 <_ZN3AjK9MODSERIALD1Ev>
     ad8:	4620      	mov	r0, r4
     ada:	bd10      	pop	{r4, pc}
     adc:	00008a30 	.word	0x00008a30

00000ae0 <_ZN3ros10SubscriberIN8std_msgs6StringEE8callbackEPh>:
     ae0:	b5f0      	push	{r4, r5, r6, r7, lr}
     ae2:	4606      	mov	r6, r0
     ae4:	6808      	ldr	r0, [r1, #0]
     ae6:	b083      	sub	sp, #12
     ae8:	9001      	str	r0, [sp, #4]
     aea:	9f01      	ldr	r7, [sp, #4]
     aec:	1cc8      	adds	r0, r1, #3
     aee:	1d3d      	adds	r5, r7, #4
     af0:	2d04      	cmp	r5, #4
     af2:	f106 0e0c 	add.w	lr, r6, #12
     af6:	d91d      	bls.n	b34 <_ZN3ros10SubscriberIN8std_msgs6StringEE8callbackEPh+0x54>
     af8:	460b      	mov	r3, r1
     afa:	f813 0f04 	ldrb.w	r0, [r3, #4]!
     afe:	2205      	movs	r2, #5
     b00:	1e7c      	subs	r4, r7, #1
     b02:	f803 0c01 	strb.w	r0, [r3, #-1]
     b06:	1cc8      	adds	r0, r1, #3
     b08:	42aa      	cmp	r2, r5
     b0a:	f004 0401 	and.w	r4, r4, #1
     b0e:	d011      	beq.n	b34 <_ZN3ros10SubscriberIN8std_msgs6StringEE8callbackEPh+0x54>
     b10:	b13c      	cbz	r4, b22 <_ZN3ros10SubscriberIN8std_msgs6StringEE8callbackEPh+0x42>
     b12:	460b      	mov	r3, r1
     b14:	f813 4f05 	ldrb.w	r4, [r3, #5]!
     b18:	2206      	movs	r2, #6
     b1a:	42aa      	cmp	r2, r5
     b1c:	f803 4c01 	strb.w	r4, [r3, #-1]
     b20:	d008      	beq.n	b34 <_ZN3ros10SubscriberIN8std_msgs6StringEE8callbackEPh+0x54>
     b22:	785c      	ldrb	r4, [r3, #1]
     b24:	3202      	adds	r2, #2
     b26:	f803 4b01 	strb.w	r4, [r3], #1
     b2a:	785c      	ldrb	r4, [r3, #1]
     b2c:	42aa      	cmp	r2, r5
     b2e:	f803 4b01 	strb.w	r4, [r3], #1
     b32:	d1f6      	bne.n	b22 <_ZN3ros10SubscriberIN8std_msgs6StringEE8callbackEPh+0x42>
     b34:	19c9      	adds	r1, r1, r7
     b36:	2300      	movs	r3, #0
     b38:	70cb      	strb	r3, [r1, #3]
     b3a:	6972      	ldr	r2, [r6, #20]
     b3c:	6130      	str	r0, [r6, #16]
     b3e:	4670      	mov	r0, lr
     b40:	4790      	blx	r2
     b42:	b003      	add	sp, #12
     b44:	bdf0      	pop	{r4, r5, r6, r7, pc}
     b46:	bf00      	nop

00000b48 <_ZN3ros11NodeHandle_I12MbedHardwareLi25ELi25ELi512ELi512EE8spinOnceEv>:
     b48:	e92d 4ff0 	stmdb	sp!, {r4, r5, r6, r7, r8, r9, r10, r11, lr}
     b4c:	f500 7b84 	add.w	r11, r0, #264	; 0x108
     b50:	4604      	mov	r4, r0
     b52:	b091      	sub	sp, #68	; 0x44
     b54:	4658      	mov	r0, r11
     b56:	f003 fbe3 	bl	4320 <_ZN4mbed5Timer7read_msEv>
     b5a:	f8d4 3604 	ldr.w	r3, [r4, #1540]	; 0x604
     b5e:	4606      	mov	r6, r0
     b60:	f642 22f8 	movw	r2, #11000	; 0x2af8
     b64:	1ac0      	subs	r0, r0, r3
     b66:	1d25      	adds	r5, r4, #4
     b68:	4290      	cmp	r0, r2
     b6a:	d902      	bls.n	b72 <_ZN3ros11NodeHandle_I12MbedHardwareLi25ELi25ELi512ELi512EE8spinOnceEv+0x2a>
     b6c:	2100      	movs	r1, #0
     b6e:	f884 15fc 	strb.w	r1, [r4, #1532]	; 0x5fc
     b72:	f8d4 75e8 	ldr.w	r7, [r4, #1512]	; 0x5e8
     b76:	b127      	cbz	r7, b82 <_ZN3ros11NodeHandle_I12MbedHardwareLi25ELi25ELi512ELi512EE8spinOnceEv+0x3a>
     b78:	f8d4 3608 	ldr.w	r3, [r4, #1544]	; 0x608
     b7c:	42b3      	cmp	r3, r6
     b7e:	f0c0 80cc 	bcc.w	d1a <Stack_Size+0x11a>
     b82:	f644 51d3 	movw	r1, #19923	; 0x4dd3
     b86:	f244 2940 	movw	r9, #16960	; 0x4240
     b8a:	f504 7290 	add.w	r2, r4, #288	; 0x120
     b8e:	f2c1 0162 	movt	r1, #4194	; 0x1062
     b92:	3504      	adds	r5, #4
     b94:	9203      	str	r2, [sp, #12]
     b96:	9102      	str	r1, [sp, #8]
     b98:	f2c0 090f 	movt	r9, #15
     b9c:	4628      	mov	r0, r5
     b9e:	f001 fec3 	bl	2928 <_ZN3AjK9MODSERIAL13rxBufferEmptyEv>
     ba2:	4607      	mov	r7, r0
     ba4:	b9f0      	cbnz	r0, be4 <_ZN3ros11NodeHandle_I12MbedHardwareLi25ELi25ELi512ELi512EE8spinOnceEv+0x9c>
     ba6:	2101      	movs	r1, #1
     ba8:	4628      	mov	r0, r5
     baa:	f001 fc49 	bl	2440 <_ZN3AjK9MODSERIAL6__getcEb>
     bae:	1e02      	subs	r2, r0, #0
     bb0:	db18      	blt.n	be4 <_ZN3ros11NodeHandle_I12MbedHardwareLi25ELi25ELi512ELi512EE8spinOnceEv+0x9c>
     bb2:	f8d4 05f8 	ldr.w	r0, [r4, #1528]	; 0x5f8
     bb6:	f8d4 35e8 	ldr.w	r3, [r4, #1512]	; 0x5e8
     bba:	1811      	adds	r1, r2, r0
     bbc:	2b07      	cmp	r3, #7
     bbe:	f8c4 15f8 	str.w	r1, [r4, #1528]	; 0x5f8
     bc2:	d052      	beq.n	c6a <Stack_Size+0x6a>
     bc4:	b9eb      	cbnz	r3, c02 <Stack_Size+0x2>
     bc6:	2aff      	cmp	r2, #255	; 0xff
     bc8:	d1e8      	bne.n	b9c <_ZN3ros11NodeHandle_I12MbedHardwareLi25ELi25ELi512ELi512EE8spinOnceEv+0x54>
     bca:	f106 0314 	add.w	r3, r6, #20
     bce:	2001      	movs	r0, #1
     bd0:	f8c4 05e8 	str.w	r0, [r4, #1512]	; 0x5e8
     bd4:	f8c4 3608 	str.w	r3, [r4, #1544]	; 0x608
     bd8:	4628      	mov	r0, r5
     bda:	f001 fea5 	bl	2928 <_ZN3AjK9MODSERIAL13rxBufferEmptyEv>
     bde:	4607      	mov	r7, r0
     be0:	2800      	cmp	r0, #0
     be2:	d0e0      	beq.n	ba6 <_ZN3ros11NodeHandle_I12MbedHardwareLi25ELi25ELi512ELi512EE8spinOnceEv+0x5e>
     be4:	f894 05fc 	ldrb.w	r0, [r4, #1532]	; 0x5fc
     be8:	b140      	cbz	r0, bfc <_ZN3ros11NodeHandle_I12MbedHardwareLi25ELi25ELi512ELi512EE8spinOnceEv+0xb4>
     bea:	f8d4 3600 	ldr.w	r3, [r4, #1536]	; 0x600
     bee:	f640 11c4 	movw	r1, #2500	; 0x9c4
     bf2:	1af0      	subs	r0, r6, r3
     bf4:	4288      	cmp	r0, r1
     bf6:	f200 8094 	bhi.w	d22 <Stack_Size+0x122>
     bfa:	2000      	movs	r0, #0
     bfc:	b011      	add	sp, #68	; 0x44
     bfe:	e8bd 8ff0 	ldmia.w	sp!, {r4, r5, r6, r7, r8, r9, r10, r11, pc}
     c02:	2b01      	cmp	r3, #1
     c04:	d044      	beq.n	c90 <Stack_Size+0x90>
     c06:	2b02      	cmp	r3, #2
     c08:	d05b      	beq.n	cc2 <Stack_Size+0xc2>
     c0a:	2b03      	cmp	r3, #3
     c0c:	d063      	beq.n	cd6 <Stack_Size+0xd6>
     c0e:	2b04      	cmp	r3, #4
     c10:	d06b      	beq.n	cea <Stack_Size+0xea>
     c12:	2b05      	cmp	r3, #5
     c14:	d079      	beq.n	d0a <Stack_Size+0x10a>
     c16:	2b06      	cmp	r3, #6
     c18:	f000 8097 	beq.w	d4a <Stack_Size+0x14a>
     c1c:	2b08      	cmp	r3, #8
     c1e:	d1bd      	bne.n	b9c <_ZN3ros11NodeHandle_I12MbedHardwareLi25ELi25ELi512ELi512EE8spinOnceEv+0x54>
     c20:	23ff      	movs	r3, #255	; 0xff
     c22:	f2c8 0300 	movt	r3, #32768	; 0x8000
     c26:	2700      	movs	r7, #0
     c28:	400b      	ands	r3, r1
     c2a:	42bb      	cmp	r3, r7
     c2c:	f8c4 75e8 	str.w	r7, [r4, #1512]	; 0x5e8
     c30:	f2c0 80a3 	blt.w	d7a <Stack_Size+0x17a>
     c34:	2bff      	cmp	r3, #255	; 0xff
     c36:	d1b1      	bne.n	b9c <_ZN3ros11NodeHandle_I12MbedHardwareLi25ELi25ELi512ELi512EE8spinOnceEv+0x54>
     c38:	f8d4 75f0 	ldr.w	r7, [r4, #1520]	; 0x5f0
     c3c:	2f00      	cmp	r7, #0
     c3e:	f000 81c3 	beq.w	fc8 <Stack_Size+0x3c8>
     c42:	2f0a      	cmp	r7, #10
     c44:	f000 80a2 	beq.w	d8c <Stack_Size+0x18c>
     c48:	2f06      	cmp	r7, #6
     c4a:	f000 80f1 	beq.w	e30 <Stack_Size+0x230>
     c4e:	2f0b      	cmp	r7, #11
     c50:	f000 8098 	beq.w	d84 <Stack_Size+0x184>
     c54:	eb04 0187 	add.w	r1, r4, r7, lsl #2
     c58:	f8d1 03f4 	ldr.w	r0, [r1, #1012]	; 0x3f4
     c5c:	2800      	cmp	r0, #0
     c5e:	d09d      	beq.n	b9c <_ZN3ros11NodeHandle_I12MbedHardwareLi25ELi25ELi512ELi512EE8spinOnceEv+0x54>
     c60:	6802      	ldr	r2, [r0, #0]
     c62:	9903      	ldr	r1, [sp, #12]
     c64:	6813      	ldr	r3, [r2, #0]
     c66:	4798      	blx	r3
     c68:	e798      	b.n	b9c <_ZN3ros11NodeHandle_I12MbedHardwareLi25ELi25ELi512ELi512EE8spinOnceEv+0x54>
     c6a:	f8d4 75f4 	ldr.w	r7, [r4, #1524]	; 0x5f4
     c6e:	f8d4 35ec 	ldr.w	r3, [r4, #1516]	; 0x5ec
     c72:	19e0      	adds	r0, r4, r7
     c74:	1c79      	adds	r1, r7, #1
     c76:	1e5f      	subs	r7, r3, #1
     c78:	f880 2120 	strb.w	r2, [r0, #288]	; 0x120
     c7c:	f8c4 15f4 	str.w	r1, [r4, #1524]	; 0x5f4
     c80:	f8c4 75ec 	str.w	r7, [r4, #1516]	; 0x5ec
     c84:	2f00      	cmp	r7, #0
     c86:	d189      	bne.n	b9c <_ZN3ros11NodeHandle_I12MbedHardwareLi25ELi25ELi512ELi512EE8spinOnceEv+0x54>
     c88:	2208      	movs	r2, #8
     c8a:	f8c4 25e8 	str.w	r2, [r4, #1512]	; 0x5e8
     c8e:	e785      	b.n	b9c <_ZN3ros11NodeHandle_I12MbedHardwareLi25ELi25ELi512ELi512EE8spinOnceEv+0x54>
     c90:	2afe      	cmp	r2, #254	; 0xfe
     c92:	d036      	beq.n	d02 <Stack_Size+0x102>
     c94:	f894 05fc 	ldrb.w	r0, [r4, #1532]	; 0x5fc
     c98:	f8c4 75e8 	str.w	r7, [r4, #1512]	; 0x5e8
     c9c:	2800      	cmp	r0, #0
     c9e:	f47f af7d 	bne.w	b9c <_ZN3ros11NodeHandle_I12MbedHardwareLi25ELi25ELi512ELi512EE8spinOnceEv+0x54>
     ca2:	4ac8      	ldr	r2, [pc, #800]	; (fc4 <Stack_Size+0x3c4>)
     ca4:	6823      	ldr	r3, [r4, #0]
     ca6:	9207      	str	r2, [sp, #28]
     ca8:	210a      	movs	r1, #10
     caa:	aa07      	add	r2, sp, #28
     cac:	9008      	str	r0, [sp, #32]
     cae:	9009      	str	r0, [sp, #36]	; 0x24
     cb0:	681f      	ldr	r7, [r3, #0]
     cb2:	4620      	mov	r0, r4
     cb4:	47b8      	blx	r7
     cb6:	4658      	mov	r0, r11
     cb8:	f003 fb32 	bl	4320 <_ZN4mbed5Timer7read_msEv>
     cbc:	f8c4 0114 	str.w	r0, [r4, #276]	; 0x114
     cc0:	e76c      	b.n	b9c <_ZN3ros11NodeHandle_I12MbedHardwareLi25ELi25ELi512ELi512EE8spinOnceEv+0x54>
     cc2:	2103      	movs	r1, #3
     cc4:	f8c4 25ec 	str.w	r2, [r4, #1516]	; 0x5ec
     cc8:	f8c4 75f4 	str.w	r7, [r4, #1524]	; 0x5f4
     ccc:	f8c4 15e8 	str.w	r1, [r4, #1512]	; 0x5e8
     cd0:	f8c4 25f8 	str.w	r2, [r4, #1528]	; 0x5f8
     cd4:	e762      	b.n	b9c <_ZN3ros11NodeHandle_I12MbedHardwareLi25ELi25ELi512ELi512EE8spinOnceEv+0x54>
     cd6:	f8d4 05ec 	ldr.w	r0, [r4, #1516]	; 0x5ec
     cda:	2704      	movs	r7, #4
     cdc:	eb00 2302 	add.w	r3, r0, r2, lsl #8
     ce0:	f8c4 35ec 	str.w	r3, [r4, #1516]	; 0x5ec
     ce4:	f8c4 75e8 	str.w	r7, [r4, #1512]	; 0x5e8
     ce8:	e758      	b.n	b9c <_ZN3ros11NodeHandle_I12MbedHardwareLi25ELi25ELi512ELi512EE8spinOnceEv+0x54>
     cea:	27ff      	movs	r7, #255	; 0xff
     cec:	f2c8 0700 	movt	r7, #32768	; 0x8000
     cf0:	400f      	ands	r7, r1
     cf2:	2f00      	cmp	r7, #0
     cf4:	db3c      	blt.n	d70 <Stack_Size+0x170>
     cf6:	2fff      	cmp	r7, #255	; 0xff
     cf8:	d036      	beq.n	d68 <Stack_Size+0x168>
     cfa:	2200      	movs	r2, #0
     cfc:	f8c4 25e8 	str.w	r2, [r4, #1512]	; 0x5e8
     d00:	e74c      	b.n	b9c <_ZN3ros11NodeHandle_I12MbedHardwareLi25ELi25ELi512ELi512EE8spinOnceEv+0x54>
     d02:	2102      	movs	r1, #2
     d04:	f8c4 15e8 	str.w	r1, [r4, #1512]	; 0x5e8
     d08:	e748      	b.n	b9c <_ZN3ros11NodeHandle_I12MbedHardwareLi25ELi25ELi512ELi512EE8spinOnceEv+0x54>
     d0a:	2106      	movs	r1, #6
     d0c:	f8c4 25f0 	str.w	r2, [r4, #1520]	; 0x5f0
     d10:	f8c4 15e8 	str.w	r1, [r4, #1512]	; 0x5e8
     d14:	f8c4 25f8 	str.w	r2, [r4, #1528]	; 0x5f8
     d18:	e740      	b.n	b9c <_ZN3ros11NodeHandle_I12MbedHardwareLi25ELi25ELi512ELi512EE8spinOnceEv+0x54>
     d1a:	2000      	movs	r0, #0
     d1c:	f8c4 05e8 	str.w	r0, [r4, #1512]	; 0x5e8
     d20:	e72f      	b.n	b82 <_ZN3ros11NodeHandle_I12MbedHardwareLi25ELi25ELi512ELi512EE8spinOnceEv+0x3a>
     d22:	4aa8      	ldr	r2, [pc, #672]	; (fc4 <Stack_Size+0x3c4>)
     d24:	6823      	ldr	r3, [r4, #0]
     d26:	2500      	movs	r5, #0
     d28:	9207      	str	r2, [sp, #28]
     d2a:	210a      	movs	r1, #10
     d2c:	aa07      	add	r2, sp, #28
     d2e:	681b      	ldr	r3, [r3, #0]
     d30:	9508      	str	r5, [sp, #32]
     d32:	9509      	str	r5, [sp, #36]	; 0x24
     d34:	4620      	mov	r0, r4
     d36:	4798      	blx	r3
     d38:	4658      	mov	r0, r11
     d3a:	f003 faf1 	bl	4320 <_ZN4mbed5Timer7read_msEv>
     d3e:	f8c4 6600 	str.w	r6, [r4, #1536]	; 0x600
     d42:	f8c4 0114 	str.w	r0, [r4, #276]	; 0x114
     d46:	4628      	mov	r0, r5
     d48:	e758      	b.n	bfc <_ZN3ros11NodeHandle_I12MbedHardwareLi25ELi25ELi512ELi512EE8spinOnceEv+0xb4>
     d4a:	f8d4 05f0 	ldr.w	r0, [r4, #1520]	; 0x5f0
     d4e:	f8d4 35ec 	ldr.w	r3, [r4, #1516]	; 0x5ec
     d52:	eb00 2702 	add.w	r7, r0, r2, lsl #8
     d56:	2207      	movs	r2, #7
     d58:	f8c4 75f0 	str.w	r7, [r4, #1520]	; 0x5f0
     d5c:	f8c4 25e8 	str.w	r2, [r4, #1512]	; 0x5e8
     d60:	2b00      	cmp	r3, #0
     d62:	f47f af1b 	bne.w	b9c <_ZN3ros11NodeHandle_I12MbedHardwareLi25ELi25ELi512ELi512EE8spinOnceEv+0x54>
     d66:	e78f      	b.n	c88 <Stack_Size+0x88>
     d68:	2105      	movs	r1, #5
     d6a:	f8c4 15e8 	str.w	r1, [r4, #1512]	; 0x5e8
     d6e:	e715      	b.n	b9c <_ZN3ros11NodeHandle_I12MbedHardwareLi25ELi25ELi512ELi512EE8spinOnceEv+0x54>
     d70:	1e78      	subs	r0, r7, #1
     d72:	f060 03ff 	orn	r3, r0, #255	; 0xff
     d76:	1c5f      	adds	r7, r3, #1
     d78:	e7bd      	b.n	cf6 <Stack_Size+0xf6>
     d7a:	1e5a      	subs	r2, r3, #1
     d7c:	f062 00ff 	orn	r0, r2, #255	; 0xff
     d80:	1c43      	adds	r3, r0, #1
     d82:	e757      	b.n	c34 <Stack_Size+0x34>
     d84:	2000      	movs	r0, #0
     d86:	f884 05fc 	strb.w	r0, [r4, #1532]	; 0x5fc
     d8a:	e707      	b.n	b9c <_ZN3ros11NodeHandle_I12MbedHardwareLi25ELi25ELi512ELi512EE8spinOnceEv+0x54>
     d8c:	4658      	mov	r0, r11
     d8e:	f003 fac7 	bl	4320 <_ZN4mbed5Timer7read_msEv>
     d92:	f894 a122 	ldrb.w	r10, [r4, #290]	; 0x122
     d96:	f894 3126 	ldrb.w	r3, [r4, #294]	; 0x126
     d9a:	f894 8121 	ldrb.w	r8, [r4, #289]	; 0x121
     d9e:	f894 c125 	ldrb.w	r12, [r4, #293]	; 0x125
     da2:	f8d4 7114 	ldr.w	r7, [r4, #276]	; 0x114
     da6:	ea4f 4e0a 	mov.w	lr, r10, lsl #16
     daa:	f894 2120 	ldrb.w	r2, [r4, #288]	; 0x120
     dae:	0419      	lsls	r1, r3, #16
     db0:	f894 3124 	ldrb.w	r3, [r4, #292]	; 0x124
     db4:	ea4e 2e08 	orr.w	lr, lr, r8, lsl #8
     db8:	ea41 210c 	orr.w	r1, r1, r12, lsl #8
     dbc:	f894 8123 	ldrb.w	r8, [r4, #291]	; 0x123
     dc0:	f894 a127 	ldrb.w	r10, [r4, #295]	; 0x127
     dc4:	430b      	orrs	r3, r1
     dc6:	ea4e 0202 	orr.w	r2, lr, r2
     dca:	1bc7      	subs	r7, r0, r7
     dcc:	4658      	mov	r0, r11
     dce:	ea43 6a0a 	orr.w	r10, r3, r10, lsl #24
     dd2:	ea42 6808 	orr.w	r8, r2, r8, lsl #24
     dd6:	f003 faa3 	bl	4320 <_ZN4mbed5Timer7read_msEv>
     dda:	9902      	ldr	r1, [sp, #8]
     ddc:	9a02      	ldr	r2, [sp, #8]
     dde:	fba1 3107 	umull	r3, r1, r1, r7
     de2:	f44f 7c7a 	mov.w	r12, #1000	; 0x3e8
     de6:	fba2 3200 	umull	r3, r2, r2, r0
     dea:	0989      	lsrs	r1, r1, #6
     dec:	fb0c 7711 	mls	r7, r12, r1, r7
     df0:	f44f 434a 	mov.w	r3, #51712	; 0xca00
     df4:	f6c3 339a 	movt	r3, #15258	; 0x3b9a
     df8:	0992      	lsrs	r2, r2, #6
     dfa:	4453      	add	r3, r10
     dfc:	fb0c 0012 	mls	r0, r12, r2, r0
     e00:	fb09 3707 	mla	r7, r9, r7, r3
     e04:	fb09 7310 	mls	r3, r9, r0, r7
     e08:	f108 38ff 	add.w	r8, r8, #4294967295	; 0xffffffff
     e0c:	4441      	add	r1, r8
     e0e:	1a8a      	subs	r2, r1, r2
     e10:	f8c4 2118 	str.w	r2, [r4, #280]	; 0x118
     e14:	f504 718e 	add.w	r1, r4, #284	; 0x11c
     e18:	f8c4 311c 	str.w	r3, [r4, #284]	; 0x11c
     e1c:	f504 708c 	add.w	r0, r4, #280	; 0x118
     e20:	f001 fe8e 	bl	2b40 <_ZN3ros16normalizeSecNSecERmS0_>
     e24:	4658      	mov	r0, r11
     e26:	f003 fa7b 	bl	4320 <_ZN4mbed5Timer7read_msEv>
     e2a:	f8c4 0604 	str.w	r0, [r4, #1540]	; 0x604
     e2e:	e6b5      	b.n	b9c <_ZN3ros11NodeHandle_I12MbedHardwareLi25ELi25ELi512ELi512EE8spinOnceEv+0x54>
     e30:	f894 8120 	ldrb.w	r8, [r4, #288]	; 0x120
     e34:	f894 1614 	ldrb.w	r1, [r4, #1556]	; 0x614
     e38:	f504 67c2 	add.w	r7, r4, #1552	; 0x610
     e3c:	4541      	cmp	r1, r8
     e3e:	f0c0 81c1 	bcc.w	11c4 <Stack_Size+0x5c4>
     e42:	f884 8614 	strb.w	r8, [r4, #1556]	; 0x614
     e46:	f1b8 0f00 	cmp.w	r8, #0
     e4a:	f000 81ce 	beq.w	11ea <Stack_Size+0x5ea>
     e4e:	9b03      	ldr	r3, [sp, #12]
     e50:	2100      	movs	r1, #0
     e52:	2004      	movs	r0, #4
     e54:	f107 0808 	add.w	r8, r7, #8
     e58:	f893 c006 	ldrb.w	r12, [r3, #6]
     e5c:	f893 a005 	ldrb.w	r10, [r3, #5]
     e60:	791a      	ldrb	r2, [r3, #4]
     e62:	ea4f 4c0c 	mov.w	r12, r12, lsl #16
     e66:	f893 e007 	ldrb.w	lr, [r3, #7]
     e6a:	ea4c 2a0a 	orr.w	r10, r12, r10, lsl #8
     e6e:	ea4a 0202 	orr.w	r2, r10, r2
     e72:	ea42 620e 	orr.w	r2, r2, lr, lsl #24
     e76:	60ba      	str	r2, [r7, #8]
     e78:	f8d8 c000 	ldr.w	r12, [r8]
     e7c:	68fa      	ldr	r2, [r7, #12]
     e7e:	f101 0e01 	add.w	lr, r1, #1
     e82:	f842 c021 	str.w	r12, [r2, r1, lsl #2]
     e86:	793a      	ldrb	r2, [r7, #4]
     e88:	fa5f f18e 	uxtb.w	r1, lr
     e8c:	3004      	adds	r0, #4
     e8e:	3304      	adds	r3, #4
     e90:	428a      	cmp	r2, r1
     e92:	d8e1      	bhi.n	e58 <Stack_Size+0x258>
     e94:	f100 0804 	add.w	r8, r0, #4
     e98:	46c2      	mov	r10, r8
     e9a:	1820      	adds	r0, r4, r0
     e9c:	f890 3120 	ldrb.w	r3, [r0, #288]	; 0x120
     ea0:	f894 2620 	ldrb.w	r2, [r4, #1568]	; 0x620
     ea4:	429a      	cmp	r2, r3
     ea6:	f0c0 8196 	bcc.w	11d6 <Stack_Size+0x5d6>
     eaa:	f884 3620 	strb.w	r3, [r4, #1568]	; 0x620
     eae:	b323      	cbz	r3, efa <Stack_Size+0x2fa>
     eb0:	f508 7190 	add.w	r1, r8, #288	; 0x120
     eb4:	1863      	adds	r3, r4, r1
     eb6:	f107 0c14 	add.w	r12, r7, #20
     eba:	2100      	movs	r1, #0
     ebc:	f893 e002 	ldrb.w	lr, [r3, #2]
     ec0:	9803      	ldr	r0, [sp, #12]
     ec2:	f893 a001 	ldrb.w	r10, [r3, #1]
     ec6:	f810 0008 	ldrb.w	r0, [r0, r8]
     eca:	ea4f 4e0e 	mov.w	lr, lr, lsl #16
     ece:	78da      	ldrb	r2, [r3, #3]
     ed0:	ea4e 2a0a 	orr.w	r10, lr, r10, lsl #8
     ed4:	ea4a 0000 	orr.w	r0, r10, r0
     ed8:	ea40 6202 	orr.w	r2, r0, r2, lsl #24
     edc:	617a      	str	r2, [r7, #20]
     ede:	f8dc e000 	ldr.w	lr, [r12]
     ee2:	69ba      	ldr	r2, [r7, #24]
     ee4:	1c48      	adds	r0, r1, #1
     ee6:	f842 e021 	str.w	lr, [r2, r1, lsl #2]
     eea:	7c3a      	ldrb	r2, [r7, #16]
     eec:	b2c1      	uxtb	r1, r0
     eee:	3304      	adds	r3, #4
     ef0:	428a      	cmp	r2, r1
     ef2:	f108 0804 	add.w	r8, r8, #4
     ef6:	d8e1      	bhi.n	ebc <Stack_Size+0x2bc>
     ef8:	46c2      	mov	r10, r8
     efa:	eb04 000a 	add.w	r0, r4, r10
     efe:	f890 a120 	ldrb.w	r10, [r0, #288]	; 0x120
     f02:	f894 262c 	ldrb.w	r2, [r4, #1580]	; 0x62c
     f06:	4552      	cmp	r2, r10
     f08:	f0c0 8153 	bcc.w	11b2 <Stack_Size+0x5b2>
     f0c:	f108 0104 	add.w	r1, r8, #4
     f10:	f884 a62c 	strb.w	r10, [r4, #1580]	; 0x62c
     f14:	f1ba 0f00 	cmp.w	r10, #0
     f18:	d050      	beq.n	fbc <Stack_Size+0x3bc>
     f1a:	f107 0320 	add.w	r3, r7, #32
     f1e:	f8dd a00c 	ldr.w	r10, [sp, #12]
     f22:	f04f 0c00 	mov.w	r12, #0
     f26:	9304      	str	r3, [sp, #16]
     f28:	f8cd b014 	str.w	r11, [sp, #20]
     f2c:	eb0a 0801 	add.w	r8, r10, r1
     f30:	f8d8 0000 	ldr.w	r0, [r8]
     f34:	f101 0e04 	add.w	lr, r1, #4
     f38:	9006      	str	r0, [sp, #24]
     f3a:	9a06      	ldr	r2, [sp, #24]
     f3c:	4472      	add	r2, lr
     f3e:	4596      	cmp	lr, r2
     f40:	d224      	bcs.n	f8c <Stack_Size+0x38c>
     f42:	ea6f 030e 	mvn.w	r3, lr
     f46:	f898 b004 	ldrb.w	r11, [r8, #4]
     f4a:	1898      	adds	r0, r3, r2
     f4c:	1d4b      	adds	r3, r1, #5
     f4e:	4293      	cmp	r3, r2
     f50:	f888 b003 	strb.w	r11, [r8, #3]
     f54:	f000 0001 	and.w	r0, r0, #1
     f58:	f108 0801 	add.w	r8, r8, #1
     f5c:	d216      	bcs.n	f8c <Stack_Size+0x38c>
     f5e:	b140      	cbz	r0, f72 <Stack_Size+0x372>
     f60:	f898 0004 	ldrb.w	r0, [r8, #4]
     f64:	1d8b      	adds	r3, r1, #6
     f66:	4293      	cmp	r3, r2
     f68:	f888 0003 	strb.w	r0, [r8, #3]
     f6c:	f108 0801 	add.w	r8, r8, #1
     f70:	d20c      	bcs.n	f8c <Stack_Size+0x38c>
     f72:	f898 1004 	ldrb.w	r1, [r8, #4]
     f76:	f898 0005 	ldrb.w	r0, [r8, #5]
     f7a:	3302      	adds	r3, #2
     f7c:	4293      	cmp	r3, r2
     f7e:	f888 1003 	strb.w	r1, [r8, #3]
     f82:	f888 0004 	strb.w	r0, [r8, #4]
     f86:	f108 0802 	add.w	r8, r8, #2
     f8a:	d3f2      	bcc.n	f72 <Stack_Size+0x372>
     f8c:	2000      	movs	r0, #0
     f8e:	eb0a 0102 	add.w	r1, r10, r2
     f92:	f10e 33ff 	add.w	r3, lr, #4294967295	; 0xffffffff
     f96:	f801 0c01 	strb.w	r0, [r1, #-1]
     f9a:	4453      	add	r3, r10
     f9c:	9904      	ldr	r1, [sp, #16]
     f9e:	623b      	str	r3, [r7, #32]
     fa0:	6808      	ldr	r0, [r1, #0]
     fa2:	6a7b      	ldr	r3, [r7, #36]	; 0x24
     fa4:	f10c 0101 	add.w	r1, r12, #1
     fa8:	f843 002c 	str.w	r0, [r3, r12, lsl #2]
     fac:	7f3b      	ldrb	r3, [r7, #28]
     fae:	fa5f fc81 	uxtb.w	r12, r1
     fb2:	4563      	cmp	r3, r12
     fb4:	4611      	mov	r1, r2
     fb6:	d8b9      	bhi.n	f2c <Stack_Size+0x32c>
     fb8:	f8dd b014 	ldr.w	r11, [sp, #20]
     fbc:	2201      	movs	r2, #1
     fbe:	f884 260c 	strb.w	r2, [r4, #1548]	; 0x60c
     fc2:	e5eb      	b.n	b9c <_ZN3ros11NodeHandle_I12MbedHardwareLi25ELi25ELi512ELi512EE8spinOnceEv+0x54>
     fc4:	000089a0 	.word	0x000089a0
     fc8:	488a      	ldr	r0, [pc, #552]	; (11f4 <Stack_Size+0x5f4>)
     fca:	6825      	ldr	r5, [r4, #0]
     fcc:	9007      	str	r0, [sp, #28]
     fce:	210a      	movs	r1, #10
     fd0:	aa07      	add	r2, sp, #28
     fd2:	9708      	str	r7, [sp, #32]
     fd4:	9709      	str	r7, [sp, #36]	; 0x24
     fd6:	4620      	mov	r0, r4
     fd8:	682f      	ldr	r7, [r5, #0]
     fda:	47b8      	blx	r7
     fdc:	4658      	mov	r0, r11
     fde:	f003 f99f 	bl	4320 <_ZN4mbed5Timer7read_msEv>
     fe2:	4985      	ldr	r1, [pc, #532]	; (11f8 <Stack_Size+0x5f8>)
     fe4:	f8d4 3520 	ldr.w	r3, [r4, #1312]	; 0x520
     fe8:	f10d 0840 	add.w	r8, sp, #64	; 0x40
     fec:	f8c4 0114 	str.w	r0, [r4, #276]	; 0x114
     ff0:	f848 1d18 	str.w	r1, [r8, #-24]!
     ff4:	f204 5a84 	addw	r10, r4, #1412	; 0x584
     ff8:	f44f 7900 	mov.w	r9, #512	; 0x200
     ffc:	f204 5524 	addw	r5, r4, #1316	; 0x524
    1000:	b1e3      	cbz	r3, 103c <Stack_Size+0x43c>
    1002:	f855 2c04 	ldr.w	r2, [r5, #-4]
    1006:	6858      	ldr	r0, [r3, #4]
    1008:	6817      	ldr	r7, [r2, #0]
    100a:	6899      	ldr	r1, [r3, #8]
    100c:	6803      	ldr	r3, [r0, #0]
    100e:	970c      	str	r7, [sp, #48]	; 0x30
    1010:	689a      	ldr	r2, [r3, #8]
    1012:	f8ad 102c 	strh.w	r1, [sp, #44]	; 0x2c
    1016:	4790      	blx	r2
    1018:	f855 7c04 	ldr.w	r7, [r5, #-4]
    101c:	900d      	str	r0, [sp, #52]	; 0x34
    101e:	6878      	ldr	r0, [r7, #4]
    1020:	6801      	ldr	r1, [r0, #0]
    1022:	68cb      	ldr	r3, [r1, #12]
    1024:	4798      	blx	r3
    1026:	6822      	ldr	r2, [r4, #0]
    1028:	f855 1c04 	ldr.w	r1, [r5, #-4]
    102c:	900e      	str	r0, [sp, #56]	; 0x38
    102e:	6817      	ldr	r7, [r2, #0]
    1030:	f8cd 903c 	str.w	r9, [sp, #60]	; 0x3c
    1034:	4620      	mov	r0, r4
    1036:	6909      	ldr	r1, [r1, #16]
    1038:	4642      	mov	r2, r8
    103a:	47b8      	blx	r7
    103c:	462f      	mov	r7, r5
    103e:	f857 3b04 	ldr.w	r3, [r7], #4
    1042:	463d      	mov	r5, r7
    1044:	b1e3      	cbz	r3, 1080 <Stack_Size+0x480>
    1046:	f857 2c04 	ldr.w	r2, [r7, #-4]
    104a:	6858      	ldr	r0, [r3, #4]
    104c:	6812      	ldr	r2, [r2, #0]
    104e:	6899      	ldr	r1, [r3, #8]
    1050:	6803      	ldr	r3, [r0, #0]
    1052:	920c      	str	r2, [sp, #48]	; 0x30
    1054:	689a      	ldr	r2, [r3, #8]
    1056:	f8ad 102c 	strh.w	r1, [sp, #44]	; 0x2c
    105a:	4790      	blx	r2
    105c:	f857 1c04 	ldr.w	r1, [r7, #-4]
    1060:	900d      	str	r0, [sp, #52]	; 0x34
    1062:	6848      	ldr	r0, [r1, #4]
    1064:	6803      	ldr	r3, [r0, #0]
    1066:	68da      	ldr	r2, [r3, #12]
    1068:	4790      	blx	r2
    106a:	6823      	ldr	r3, [r4, #0]
    106c:	f857 7c04 	ldr.w	r7, [r7, #-4]
    1070:	900e      	str	r0, [sp, #56]	; 0x38
    1072:	6939      	ldr	r1, [r7, #16]
    1074:	4642      	mov	r2, r8
    1076:	f8cd 903c 	str.w	r9, [sp, #60]	; 0x3c
    107a:	681b      	ldr	r3, [r3, #0]
    107c:	4620      	mov	r0, r4
    107e:	4798      	blx	r3
    1080:	f855 1b04 	ldr.w	r1, [r5], #4
    1084:	b1e1      	cbz	r1, 10c0 <Stack_Size+0x4c0>
    1086:	f855 2c04 	ldr.w	r2, [r5, #-4]
    108a:	6848      	ldr	r0, [r1, #4]
    108c:	6817      	ldr	r7, [r2, #0]
    108e:	6803      	ldr	r3, [r0, #0]
    1090:	6889      	ldr	r1, [r1, #8]
    1092:	970c      	str	r7, [sp, #48]	; 0x30
    1094:	689a      	ldr	r2, [r3, #8]
    1096:	f8ad 102c 	strh.w	r1, [sp, #44]	; 0x2c
    109a:	4790      	blx	r2
    109c:	f855 7c04 	ldr.w	r7, [r5, #-4]
    10a0:	900d      	str	r0, [sp, #52]	; 0x34
    10a2:	6878      	ldr	r0, [r7, #4]
    10a4:	6801      	ldr	r1, [r0, #0]
    10a6:	68cb      	ldr	r3, [r1, #12]
    10a8:	4798      	blx	r3
    10aa:	6822      	ldr	r2, [r4, #0]
    10ac:	f855 1c04 	ldr.w	r1, [r5, #-4]
    10b0:	900e      	str	r0, [sp, #56]	; 0x38
    10b2:	6817      	ldr	r7, [r2, #0]
    10b4:	f8cd 903c 	str.w	r9, [sp, #60]	; 0x3c
    10b8:	4620      	mov	r0, r4
    10ba:	6909      	ldr	r1, [r1, #16]
    10bc:	4642      	mov	r2, r8
    10be:	47b8      	blx	r7
    10c0:	4555      	cmp	r5, r10
    10c2:	d1bb      	bne.n	103c <Stack_Size+0x43c>
    10c4:	f855 0b04 	ldr.w	r0, [r5], #4
    10c8:	f504 69bd 	add.w	r9, r4, #1512	; 0x5e8
    10cc:	f44f 7800 	mov.w	r8, #512	; 0x200
    10d0:	b1e8      	cbz	r0, 110e <Stack_Size+0x50e>
    10d2:	6881      	ldr	r1, [r0, #8]
    10d4:	6803      	ldr	r3, [r0, #0]
    10d6:	6842      	ldr	r2, [r0, #4]
    10d8:	910c      	str	r1, [sp, #48]	; 0x30
    10da:	689f      	ldr	r7, [r3, #8]
    10dc:	f8ad 202c 	strh.w	r2, [sp, #44]	; 0x2c
    10e0:	47b8      	blx	r7
    10e2:	f855 1c04 	ldr.w	r1, [r5, #-4]
    10e6:	900d      	str	r0, [sp, #52]	; 0x34
    10e8:	680a      	ldr	r2, [r1, #0]
    10ea:	4608      	mov	r0, r1
    10ec:	68d3      	ldr	r3, [r2, #12]
    10ee:	4798      	blx	r3
    10f0:	f855 7c04 	ldr.w	r7, [r5, #-4]
    10f4:	900e      	str	r0, [sp, #56]	; 0x38
    10f6:	6838      	ldr	r0, [r7, #0]
    10f8:	6822      	ldr	r2, [r4, #0]
    10fa:	6841      	ldr	r1, [r0, #4]
    10fc:	f8cd 803c 	str.w	r8, [sp, #60]	; 0x3c
    1100:	4638      	mov	r0, r7
    1102:	6817      	ldr	r7, [r2, #0]
    1104:	4788      	blx	r1
    1106:	aa0a      	add	r2, sp, #40	; 0x28
    1108:	4601      	mov	r1, r0
    110a:	4620      	mov	r0, r4
    110c:	47b8      	blx	r7
    110e:	462f      	mov	r7, r5
    1110:	f857 3b04 	ldr.w	r3, [r7], #4
    1114:	4618      	mov	r0, r3
    1116:	463d      	mov	r5, r7
    1118:	b1eb      	cbz	r3, 1156 <Stack_Size+0x556>
    111a:	689a      	ldr	r2, [r3, #8]
    111c:	6859      	ldr	r1, [r3, #4]
    111e:	681b      	ldr	r3, [r3, #0]
    1120:	920c      	str	r2, [sp, #48]	; 0x30
    1122:	689a      	ldr	r2, [r3, #8]
    1124:	f8ad 102c 	strh.w	r1, [sp, #44]	; 0x2c
    1128:	4790      	blx	r2
    112a:	f857 1c04 	ldr.w	r1, [r7, #-4]
    112e:	900d      	str	r0, [sp, #52]	; 0x34
    1130:	680b      	ldr	r3, [r1, #0]
    1132:	4608      	mov	r0, r1
    1134:	68da      	ldr	r2, [r3, #12]
    1136:	4790      	blx	r2
    1138:	f857 7c04 	ldr.w	r7, [r7, #-4]
    113c:	900e      	str	r0, [sp, #56]	; 0x38
    113e:	6838      	ldr	r0, [r7, #0]
    1140:	6823      	ldr	r3, [r4, #0]
    1142:	6841      	ldr	r1, [r0, #4]
    1144:	f8cd 803c 	str.w	r8, [sp, #60]	; 0x3c
    1148:	4638      	mov	r0, r7
    114a:	681f      	ldr	r7, [r3, #0]
    114c:	4788      	blx	r1
    114e:	aa0a      	add	r2, sp, #40	; 0x28
    1150:	4601      	mov	r1, r0
    1152:	4620      	mov	r0, r4
    1154:	47b8      	blx	r7
    1156:	f855 3b04 	ldr.w	r3, [r5], #4
    115a:	4618      	mov	r0, r3
    115c:	b1eb      	cbz	r3, 119a <Stack_Size+0x59a>
    115e:	689a      	ldr	r2, [r3, #8]
    1160:	685f      	ldr	r7, [r3, #4]
    1162:	6819      	ldr	r1, [r3, #0]
    1164:	920c      	str	r2, [sp, #48]	; 0x30
    1166:	688b      	ldr	r3, [r1, #8]
    1168:	f8ad 702c 	strh.w	r7, [sp, #44]	; 0x2c
    116c:	4798      	blx	r3
    116e:	f855 7c04 	ldr.w	r7, [r5, #-4]
    1172:	900d      	str	r0, [sp, #52]	; 0x34
    1174:	683a      	ldr	r2, [r7, #0]
    1176:	4638      	mov	r0, r7
    1178:	68d1      	ldr	r1, [r2, #12]
    117a:	4788      	blx	r1
    117c:	f855 3c04 	ldr.w	r3, [r5, #-4]
    1180:	900e      	str	r0, [sp, #56]	; 0x38
    1182:	6818      	ldr	r0, [r3, #0]
    1184:	6827      	ldr	r7, [r4, #0]
    1186:	6842      	ldr	r2, [r0, #4]
    1188:	f8cd 803c 	str.w	r8, [sp, #60]	; 0x3c
    118c:	4618      	mov	r0, r3
    118e:	683f      	ldr	r7, [r7, #0]
    1190:	4790      	blx	r2
    1192:	aa0a      	add	r2, sp, #40	; 0x28
    1194:	4601      	mov	r1, r0
    1196:	4620      	mov	r0, r4
    1198:	47b8      	blx	r7
    119a:	454d      	cmp	r5, r9
    119c:	d1b7      	bne.n	110e <Stack_Size+0x50e>
    119e:	2101      	movs	r1, #1
    11a0:	f884 15fc 	strb.w	r1, [r4, #1532]	; 0x5fc
    11a4:	f8c4 6600 	str.w	r6, [r4, #1536]	; 0x600
    11a8:	f8c4 6604 	str.w	r6, [r4, #1540]	; 0x604
    11ac:	f04f 30ff 	mov.w	r0, #4294967295	; 0xffffffff
    11b0:	e524      	b.n	bfc <_ZN3ros11NodeHandle_I12MbedHardwareLi25ELi25ELi512ELi512EE8spinOnceEv+0xb4>
    11b2:	f8d4 0634 	ldr.w	r0, [r4, #1588]	; 0x634
    11b6:	ea4f 018a 	mov.w	r1, r10, lsl #2
    11ba:	f005 ff29 	bl	7010 <realloc>
    11be:	f8c4 0634 	str.w	r0, [r4, #1588]	; 0x634
    11c2:	e6a3      	b.n	f0c <Stack_Size+0x30c>
    11c4:	f8d4 061c 	ldr.w	r0, [r4, #1564]	; 0x61c
    11c8:	ea4f 0188 	mov.w	r1, r8, lsl #2
    11cc:	f005 ff20 	bl	7010 <realloc>
    11d0:	f8c4 061c 	str.w	r0, [r4, #1564]	; 0x61c
    11d4:	e635      	b.n	e42 <Stack_Size+0x242>
    11d6:	f8d4 0628 	ldr.w	r0, [r4, #1576]	; 0x628
    11da:	0099      	lsls	r1, r3, #2
    11dc:	9301      	str	r3, [sp, #4]
    11de:	f005 ff17 	bl	7010 <realloc>
    11e2:	9b01      	ldr	r3, [sp, #4]
    11e4:	f8c4 0628 	str.w	r0, [r4, #1576]	; 0x628
    11e8:	e65f      	b.n	eaa <Stack_Size+0x2aa>
    11ea:	f04f 0a08 	mov.w	r10, #8
    11ee:	46d0      	mov	r8, r10
    11f0:	2004      	movs	r0, #4
    11f2:	e652      	b.n	e9a <Stack_Size+0x29a>
    11f4:	000089a0 	.word	0x000089a0
    11f8:	000089b8 	.word	0x000089b8

000011fc <main>:
    11fc:	e92d 4ff0 	stmdb	sp!, {r4, r5, r6, r7, r8, r9, r10, r11, lr}
    1200:	4dbb      	ldr	r5, [pc, #748]	; (14f0 <main+0x2f4>)
    1202:	b091      	sub	sp, #68	; 0x44
    1204:	6869      	ldr	r1, [r5, #4]
    1206:	f105 0008 	add.w	r0, r5, #8
    120a:	f002 fe05 	bl	3e18 <_ZN4mbed6Serial4baudEi>
    120e:	2300      	movs	r3, #0
    1210:	f8c5 35e8 	str.w	r3, [r5, #1512]	; 0x5e8
    1214:	f8c5 35ec 	str.w	r3, [r5, #1516]	; 0x5ec
    1218:	f8c5 35f4 	str.w	r3, [r5, #1524]	; 0x5f4
    121c:	f8c5 35f0 	str.w	r3, [r5, #1520]	; 0x5f0
    1220:	f505 66a4 	add.w	r6, r5, #1312	; 0x520
    1224:	6831      	ldr	r1, [r6, #0]
    1226:	b169      	cbz	r1, 1244 <main+0x48>
    1228:	2301      	movs	r3, #1
    122a:	e007      	b.n	123c <main+0x40>
    122c:	6854      	ldr	r4, [r2, #4]
    122e:	3301      	adds	r3, #1
    1230:	1d16      	adds	r6, r2, #4
    1232:	b13c      	cbz	r4, 1244 <main+0x48>
    1234:	3301      	adds	r3, #1
    1236:	2b19      	cmp	r3, #25
    1238:	f000 80a4 	beq.w	1384 <main+0x188>
    123c:	6870      	ldr	r0, [r6, #4]
    123e:	1d32      	adds	r2, r6, #4
    1240:	2800      	cmp	r0, #0
    1242:	d1f3      	bne.n	122c <main+0x30>
    1244:	f8df b2c8 	ldr.w	r11, [pc, #712]	; 1510 <main+0x314>
    1248:	f503 77a4 	add.w	r7, r3, #328	; 0x148
    124c:	337d      	adds	r3, #125	; 0x7d
    124e:	f845 b027 	str.w	r11, [r5, r7, lsl #2]
    1252:	f8cb 3008 	str.w	r3, [r11, #8]
    1256:	f8cb 500c 	str.w	r5, [r11, #12]
    125a:	4ea6      	ldr	r6, [pc, #664]	; (14f4 <main+0x2f8>)
    125c:	2300      	movs	r3, #0
    125e:	6831      	ldr	r1, [r6, #0]
    1260:	b161      	cbz	r1, 127c <main+0x80>
    1262:	2301      	movs	r3, #1
    1264:	e006      	b.n	1274 <main+0x78>
    1266:	6854      	ldr	r4, [r2, #4]
    1268:	3301      	adds	r3, #1
    126a:	1d16      	adds	r6, r2, #4
    126c:	b134      	cbz	r4, 127c <main+0x80>
    126e:	3301      	adds	r3, #1
    1270:	2b19      	cmp	r3, #25
    1272:	d00a      	beq.n	128a <main+0x8e>
    1274:	6870      	ldr	r0, [r6, #4]
    1276:	1d32      	adds	r2, r6, #4
    1278:	2800      	cmp	r0, #0
    127a:	d1f4      	bne.n	1266 <main+0x6a>
    127c:	4f9e      	ldr	r7, [pc, #632]	; (14f8 <main+0x2fc>)
    127e:	eb05 0183 	add.w	r1, r5, r3, lsl #2
    1282:	3364      	adds	r3, #100	; 0x64
    1284:	f8c1 7584 	str.w	r7, [r1, #1412]	; 0x584
    1288:	607b      	str	r3, [r7, #4]
    128a:	2094      	movs	r0, #148	; 0x94
    128c:	f003 fb1a 	bl	48c4 <_Znwj>
    1290:	9003      	str	r0, [sp, #12]
    1292:	f000 fc81 	bl	1b98 <_ZN6KernelC1Ev>
    1296:	4899      	ldr	r0, [pc, #612]	; (14fc <main+0x300>)
    1298:	f8df 9264 	ldr.w	r9, [pc, #612]	; 1500 <main+0x304>
    129c:	f5a0 64c3 	sub.w	r4, r0, #1560	; 0x618
    12a0:	f04f 0a00 	mov.w	r10, #0
    12a4:	f8db 000c 	ldr.w	r0, [r11, #12]
    12a8:	f8db 1008 	ldr.w	r1, [r11, #8]
    12ac:	6806      	ldr	r6, [r0, #0]
    12ae:	4a94      	ldr	r2, [pc, #592]	; (1500 <main+0x304>)
    12b0:	6833      	ldr	r3, [r6, #0]
    12b2:	f8c9 a004 	str.w	r10, [r9, #4]
    12b6:	f8c9 a008 	str.w	r10, [r9, #8]
    12ba:	f8c9 a00c 	str.w	r10, [r9, #12]
    12be:	4798      	blx	r3
    12c0:	4890      	ldr	r0, [pc, #576]	; (1504 <main+0x308>)
    12c2:	f003 f82d 	bl	4320 <_ZN4mbed5Timer7read_msEv>
    12c6:	f8d5 2604 	ldr.w	r2, [r5, #1540]	; 0x604
    12ca:	f642 21f8 	movw	r1, #11000	; 0x2af8
    12ce:	1a87      	subs	r7, r0, r2
    12d0:	428f      	cmp	r7, r1
    12d2:	4606      	mov	r6, r0
    12d4:	d902      	bls.n	12dc <main+0xe0>
    12d6:	2000      	movs	r0, #0
    12d8:	f884 05fc 	strb.w	r0, [r4, #1532]	; 0x5fc
    12dc:	f8d5 35e8 	ldr.w	r3, [r5, #1512]	; 0x5e8
    12e0:	b133      	cbz	r3, 12f0 <main+0xf4>
    12e2:	f8d4 2608 	ldr.w	r2, [r4, #1544]	; 0x608
    12e6:	42b2      	cmp	r2, r6
    12e8:	d202      	bcs.n	12f0 <main+0xf4>
    12ea:	2700      	movs	r7, #0
    12ec:	f8c4 75e8 	str.w	r7, [r4, #1512]	; 0x5e8
    12f0:	f644 58d3 	movw	r8, #19923	; 0x4dd3
    12f4:	f2c1 0862 	movt	r8, #4194	; 0x1062
    12f8:	4883      	ldr	r0, [pc, #524]	; (1508 <main+0x30c>)
    12fa:	f001 fb15 	bl	2928 <_ZN3AjK9MODSERIAL13rxBufferEmptyEv>
    12fe:	4607      	mov	r7, r0
    1300:	b9f8      	cbnz	r0, 1342 <main+0x146>
    1302:	2101      	movs	r1, #1
    1304:	4880      	ldr	r0, [pc, #512]	; (1508 <main+0x30c>)
    1306:	f001 f89b 	bl	2440 <_ZN3AjK9MODSERIAL6__getcEb>
    130a:	1e02      	subs	r2, r0, #0
    130c:	db19      	blt.n	1342 <main+0x146>
    130e:	f8d4 15f8 	ldr.w	r1, [r4, #1528]	; 0x5f8
    1312:	f8d4 05e8 	ldr.w	r0, [r4, #1512]	; 0x5e8
    1316:	1851      	adds	r1, r2, r1
    1318:	2807      	cmp	r0, #7
    131a:	f8c4 15f8 	str.w	r1, [r4, #1528]	; 0x5f8
    131e:	d06d      	beq.n	13fc <main+0x200>
    1320:	2800      	cmp	r0, #0
    1322:	d132      	bne.n	138a <main+0x18e>
    1324:	2aff      	cmp	r2, #255	; 0xff
    1326:	d1e7      	bne.n	12f8 <main+0xfc>
    1328:	f106 0714 	add.w	r7, r6, #20
    132c:	2201      	movs	r2, #1
    132e:	4876      	ldr	r0, [pc, #472]	; (1508 <main+0x30c>)
    1330:	f8c4 7608 	str.w	r7, [r4, #1544]	; 0x608
    1334:	f8c4 25e8 	str.w	r2, [r4, #1512]	; 0x5e8
    1338:	f001 faf6 	bl	2928 <_ZN3AjK9MODSERIAL13rxBufferEmptyEv>
    133c:	4607      	mov	r7, r0
    133e:	2800      	cmp	r0, #0
    1340:	d0df      	beq.n	1302 <main+0x106>
    1342:	f895 35fc 	ldrb.w	r3, [r5, #1532]	; 0x5fc
    1346:	b1c3      	cbz	r3, 137a <main+0x17e>
    1348:	f8d4 0600 	ldr.w	r0, [r4, #1536]	; 0x600
    134c:	f640 11c4 	movw	r1, #2500	; 0x9c4
    1350:	1a37      	subs	r7, r6, r0
    1352:	428f      	cmp	r7, r1
    1354:	d911      	bls.n	137a <main+0x17e>
    1356:	4a6d      	ldr	r2, [pc, #436]	; (150c <main+0x310>)
    1358:	6820      	ldr	r0, [r4, #0]
    135a:	2300      	movs	r3, #0
    135c:	9207      	str	r2, [sp, #28]
    135e:	210a      	movs	r1, #10
    1360:	aa07      	add	r2, sp, #28
    1362:	9308      	str	r3, [sp, #32]
    1364:	9309      	str	r3, [sp, #36]	; 0x24
    1366:	6807      	ldr	r7, [r0, #0]
    1368:	4861      	ldr	r0, [pc, #388]	; (14f0 <main+0x2f4>)
    136a:	47b8      	blx	r7
    136c:	4865      	ldr	r0, [pc, #404]	; (1504 <main+0x308>)
    136e:	f002 ffd7 	bl	4320 <_ZN4mbed5Timer7read_msEv>
    1372:	f8c4 6600 	str.w	r6, [r4, #1536]	; 0x600
    1376:	f8c4 0114 	str.w	r0, [r4, #276]	; 0x114
    137a:	9803      	ldr	r0, [sp, #12]
    137c:	2100      	movs	r1, #0
    137e:	f000 fc4b 	bl	1c18 <_ZN6Kernel10call_eventEj>
    1382:	e78f      	b.n	12a4 <main+0xa8>
    1384:	f8df b188 	ldr.w	r11, [pc, #392]	; 1510 <main+0x314>
    1388:	e767      	b.n	125a <main+0x5e>
    138a:	2801      	cmp	r0, #1
    138c:	d04a      	beq.n	1424 <main+0x228>
    138e:	2802      	cmp	r0, #2
    1390:	d061      	beq.n	1456 <main+0x25a>
    1392:	2803      	cmp	r0, #3
    1394:	d069      	beq.n	146a <main+0x26e>
    1396:	2804      	cmp	r0, #4
    1398:	d071      	beq.n	147e <main+0x282>
    139a:	2805      	cmp	r0, #5
    139c:	d07f      	beq.n	149e <main+0x2a2>
    139e:	2806      	cmp	r0, #6
    13a0:	f000 8085 	beq.w	14ae <main+0x2b2>
    13a4:	2808      	cmp	r0, #8
    13a6:	d1a7      	bne.n	12f8 <main+0xfc>
    13a8:	20ff      	movs	r0, #255	; 0xff
    13aa:	f2c8 0000 	movt	r0, #32768	; 0x8000
    13ae:	2700      	movs	r7, #0
    13b0:	4008      	ands	r0, r1
    13b2:	42b8      	cmp	r0, r7
    13b4:	f8c5 75e8 	str.w	r7, [r5, #1512]	; 0x5e8
    13b8:	f2c0 8091 	blt.w	14de <main+0x2e2>
    13bc:	28ff      	cmp	r0, #255	; 0xff
    13be:	d19b      	bne.n	12f8 <main+0xfc>
    13c0:	f8d5 75f0 	ldr.w	r7, [r5, #1520]	; 0x5f0
    13c4:	2f00      	cmp	r7, #0
    13c6:	f000 81eb 	beq.w	17a0 <main+0x5a4>
    13ca:	2f0a      	cmp	r7, #10
    13cc:	f000 80a2 	beq.w	1514 <main+0x318>
    13d0:	2f06      	cmp	r7, #6
    13d2:	f000 8112 	beq.w	15fa <main+0x3fe>
    13d6:	2f0b      	cmp	r7, #11
    13d8:	f000 8086 	beq.w	14e8 <main+0x2ec>
    13dc:	eb04 0187 	add.w	r1, r4, r7, lsl #2
    13e0:	f8d1 03f4 	ldr.w	r0, [r1, #1012]	; 0x3f4
    13e4:	2800      	cmp	r0, #0
    13e6:	d087      	beq.n	12f8 <main+0xfc>
    13e8:	6803      	ldr	r3, [r0, #0]
    13ea:	f240 1264 	movw	r2, #356	; 0x164
    13ee:	f2c1 0200 	movt	r2, #4096	; 0x1000
    13f2:	681f      	ldr	r7, [r3, #0]
    13f4:	f502 7190 	add.w	r1, r2, #288	; 0x120
    13f8:	47b8      	blx	r7
    13fa:	e77d      	b.n	12f8 <main+0xfc>
    13fc:	f8d4 15f4 	ldr.w	r1, [r4, #1524]	; 0x5f4
    1400:	f8d4 35ec 	ldr.w	r3, [r4, #1516]	; 0x5ec
    1404:	1860      	adds	r0, r4, r1
    1406:	1c4f      	adds	r7, r1, #1
    1408:	1e59      	subs	r1, r3, #1
    140a:	f880 2120 	strb.w	r2, [r0, #288]	; 0x120
    140e:	f8c4 75f4 	str.w	r7, [r4, #1524]	; 0x5f4
    1412:	f8c4 15ec 	str.w	r1, [r4, #1516]	; 0x5ec
    1416:	2900      	cmp	r1, #0
    1418:	f47f af6e 	bne.w	12f8 <main+0xfc>
    141c:	2208      	movs	r2, #8
    141e:	f8c4 25e8 	str.w	r2, [r4, #1512]	; 0x5e8
    1422:	e769      	b.n	12f8 <main+0xfc>
    1424:	2afe      	cmp	r2, #254	; 0xfe
    1426:	d036      	beq.n	1496 <main+0x29a>
    1428:	f894 35fc 	ldrb.w	r3, [r4, #1532]	; 0x5fc
    142c:	f8c4 75e8 	str.w	r7, [r4, #1512]	; 0x5e8
    1430:	2b00      	cmp	r3, #0
    1432:	f47f af61 	bne.w	12f8 <main+0xfc>
    1436:	4835      	ldr	r0, [pc, #212]	; (150c <main+0x310>)
    1438:	6827      	ldr	r7, [r4, #0]
    143a:	9007      	str	r0, [sp, #28]
    143c:	210a      	movs	r1, #10
    143e:	aa07      	add	r2, sp, #28
    1440:	9308      	str	r3, [sp, #32]
    1442:	9309      	str	r3, [sp, #36]	; 0x24
    1444:	482a      	ldr	r0, [pc, #168]	; (14f0 <main+0x2f4>)
    1446:	683b      	ldr	r3, [r7, #0]
    1448:	4798      	blx	r3
    144a:	482e      	ldr	r0, [pc, #184]	; (1504 <main+0x308>)
    144c:	f002 ff68 	bl	4320 <_ZN4mbed5Timer7read_msEv>
    1450:	f8c4 0114 	str.w	r0, [r4, #276]	; 0x114
    1454:	e750      	b.n	12f8 <main+0xfc>
    1456:	2303      	movs	r3, #3
    1458:	f8c4 25ec 	str.w	r2, [r4, #1516]	; 0x5ec
    145c:	f8c4 75f4 	str.w	r7, [r4, #1524]	; 0x5f4
    1460:	f8c4 35e8 	str.w	r3, [r4, #1512]	; 0x5e8
    1464:	f8c4 25f8 	str.w	r2, [r4, #1528]	; 0x5f8
    1468:	e746      	b.n	12f8 <main+0xfc>
    146a:	f8d4 05ec 	ldr.w	r0, [r4, #1516]	; 0x5ec
    146e:	eb00 2102 	add.w	r1, r0, r2, lsl #8
    1472:	2204      	movs	r2, #4
    1474:	f8c4 15ec 	str.w	r1, [r4, #1516]	; 0x5ec
    1478:	f8c4 25e8 	str.w	r2, [r4, #1512]	; 0x5e8
    147c:	e73c      	b.n	12f8 <main+0xfc>
    147e:	22ff      	movs	r2, #255	; 0xff
    1480:	f2c8 0200 	movt	r2, #32768	; 0x8000
    1484:	400a      	ands	r2, r1
    1486:	2a00      	cmp	r2, #0
    1488:	db24      	blt.n	14d4 <main+0x2d8>
    148a:	2aff      	cmp	r2, #255	; 0xff
    148c:	d01e      	beq.n	14cc <main+0x2d0>
    148e:	2300      	movs	r3, #0
    1490:	f8c5 35e8 	str.w	r3, [r5, #1512]	; 0x5e8
    1494:	e730      	b.n	12f8 <main+0xfc>
    1496:	2102      	movs	r1, #2
    1498:	f8c4 15e8 	str.w	r1, [r4, #1512]	; 0x5e8
    149c:	e72c      	b.n	12f8 <main+0xfc>
    149e:	2706      	movs	r7, #6
    14a0:	f8c4 25f0 	str.w	r2, [r4, #1520]	; 0x5f0
    14a4:	f8c4 75e8 	str.w	r7, [r4, #1512]	; 0x5e8
    14a8:	f8c4 25f8 	str.w	r2, [r4, #1528]	; 0x5f8
    14ac:	e724      	b.n	12f8 <main+0xfc>
    14ae:	f8d5 05f0 	ldr.w	r0, [r5, #1520]	; 0x5f0
    14b2:	f8d5 15ec 	ldr.w	r1, [r5, #1516]	; 0x5ec
    14b6:	eb00 2202 	add.w	r2, r0, r2, lsl #8
    14ba:	2307      	movs	r3, #7
    14bc:	f8c5 25f0 	str.w	r2, [r5, #1520]	; 0x5f0
    14c0:	f8c5 35e8 	str.w	r3, [r5, #1512]	; 0x5e8
    14c4:	2900      	cmp	r1, #0
    14c6:	f47f af17 	bne.w	12f8 <main+0xfc>
    14ca:	e7a7      	b.n	141c <main+0x220>
    14cc:	2705      	movs	r7, #5
    14ce:	f8c5 75e8 	str.w	r7, [r5, #1512]	; 0x5e8
    14d2:	e711      	b.n	12f8 <main+0xfc>
    14d4:	1e50      	subs	r0, r2, #1
    14d6:	f060 01ff 	orn	r1, r0, #255	; 0xff
    14da:	1c4a      	adds	r2, r1, #1
    14dc:	e7d5      	b.n	148a <main+0x28e>
    14de:	1e43      	subs	r3, r0, #1
    14e0:	f063 02ff 	orn	r2, r3, #255	; 0xff
    14e4:	1c50      	adds	r0, r2, #1
    14e6:	e769      	b.n	13bc <main+0x1c0>
    14e8:	2000      	movs	r0, #0
    14ea:	f884 05fc 	strb.w	r0, [r4, #1532]	; 0x5fc
    14ee:	e703      	b.n	12f8 <main+0xfc>
    14f0:	10000164 	.word	0x10000164
    14f4:	100006e8 	.word	0x100006e8
    14f8:	10000824 	.word	0x10000824
    14fc:	1000077c 	.word	0x1000077c
    1500:	100007b0 	.word	0x100007b0
    1504:	1000026c 	.word	0x1000026c
    1508:	1000016c 	.word	0x1000016c
    150c:	000089a0 	.word	0x000089a0
    1510:	1000079c 	.word	0x1000079c
    1514:	f240 1064 	movw	r0, #356	; 0x164
    1518:	f2c1 0000 	movt	r0, #4096	; 0x1000
    151c:	f500 7084 	add.w	r0, r0, #264	; 0x108
    1520:	f002 fefe 	bl	4320 <_ZN4mbed5Timer7read_msEv>
    1524:	f894 1126 	ldrb.w	r1, [r4, #294]	; 0x126
    1528:	f894 7125 	ldrb.w	r7, [r4, #293]	; 0x125
    152c:	040a      	lsls	r2, r1, #16
    152e:	f894 1124 	ldrb.w	r1, [r4, #292]	; 0x124
    1532:	f894 3120 	ldrb.w	r3, [r4, #288]	; 0x120
    1536:	9105      	str	r1, [sp, #20]
    1538:	f894 e122 	ldrb.w	lr, [r4, #290]	; 0x122
    153c:	ea42 2107 	orr.w	r1, r2, r7, lsl #8
    1540:	f8d4 7114 	ldr.w	r7, [r4, #276]	; 0x114
    1544:	9304      	str	r3, [sp, #16]
    1546:	f894 c121 	ldrb.w	r12, [r4, #289]	; 0x121
    154a:	1bc7      	subs	r7, r0, r7
    154c:	ea4f 4e0e 	mov.w	lr, lr, lsl #16
    1550:	9804      	ldr	r0, [sp, #16]
    1552:	ea4e 2e0c 	orr.w	lr, lr, r12, lsl #8
    1556:	ea4e 0200 	orr.w	r2, lr, r0
    155a:	9805      	ldr	r0, [sp, #20]
    155c:	f894 3127 	ldrb.w	r3, [r4, #295]	; 0x127
    1560:	f894 c123 	ldrb.w	r12, [r4, #291]	; 0x123
    1564:	f240 1e64 	movw	lr, #356	; 0x164
    1568:	f2c1 0e00 	movt	lr, #4096	; 0x1000
    156c:	4301      	orrs	r1, r0
    156e:	ea42 6c0c 	orr.w	r12, r2, r12, lsl #24
    1572:	ea41 6103 	orr.w	r1, r1, r3, lsl #24
    1576:	f50e 7084 	add.w	r0, lr, #264	; 0x108
    157a:	f8cd c010 	str.w	r12, [sp, #16]
    157e:	9105      	str	r1, [sp, #20]
    1580:	f002 fece 	bl	4320 <_ZN4mbed5Timer7read_msEv>
    1584:	fba8 2107 	umull	r2, r1, r8, r7
    1588:	f44f 7e7a 	mov.w	lr, #1000	; 0x3e8
    158c:	0989      	lsrs	r1, r1, #6
    158e:	fba8 3c00 	umull	r3, r12, r8, r0
    1592:	fb0e 7311 	mls	r3, lr, r1, r7
    1596:	9f05      	ldr	r7, [sp, #20]
    1598:	9300      	str	r3, [sp, #0]
    159a:	f44f 434a 	mov.w	r3, #51712	; 0xca00
    159e:	f6c3 339a 	movt	r3, #15258	; 0x3b9a
    15a2:	18fb      	adds	r3, r7, r3
    15a4:	f244 2240 	movw	r2, #16960	; 0x4240
    15a8:	9f00      	ldr	r7, [sp, #0]
    15aa:	ea4f 1c9c 	mov.w	r12, r12, lsr #6
    15ae:	f2c0 020f 	movt	r2, #15
    15b2:	fb0e 001c 	mls	r0, lr, r12, r0
    15b6:	fb02 3307 	mla	r3, r2, r7, r3
    15ba:	9f04      	ldr	r7, [sp, #16]
    15bc:	fb02 3210 	mls	r2, r2, r0, r3
    15c0:	f240 1e64 	movw	lr, #356	; 0x164
    15c4:	1e7b      	subs	r3, r7, #1
    15c6:	1859      	adds	r1, r3, r1
    15c8:	f2c1 0e00 	movt	lr, #4096	; 0x1000
    15cc:	ebcc 0701 	rsb	r7, r12, r1
    15d0:	f50e 708c 	add.w	r0, lr, #280	; 0x118
    15d4:	f50e 718e 	add.w	r1, lr, #284	; 0x11c
    15d8:	f8c4 211c 	str.w	r2, [r4, #284]	; 0x11c
    15dc:	f8c4 7118 	str.w	r7, [r4, #280]	; 0x118
    15e0:	f001 faae 	bl	2b40 <_ZN3ros16normalizeSecNSecERmS0_>
    15e4:	f240 1064 	movw	r0, #356	; 0x164
    15e8:	f2c1 0000 	movt	r0, #4096	; 0x1000
    15ec:	f500 7084 	add.w	r0, r0, #264	; 0x108
    15f0:	f002 fe96 	bl	4320 <_ZN4mbed5Timer7read_msEv>
    15f4:	f8c4 0604 	str.w	r0, [r4, #1540]	; 0x604
    15f8:	e67e      	b.n	12f8 <main+0xfc>
    15fa:	f894 7120 	ldrb.w	r7, [r4, #288]	; 0x120
    15fe:	f894 1614 	ldrb.w	r1, [r4, #1556]	; 0x614
    1602:	42b9      	cmp	r1, r7
    1604:	f0c0 8224 	bcc.w	1a50 <main+0x854>
    1608:	f885 7614 	strb.w	r7, [r5, #1556]	; 0x614
    160c:	2f00      	cmp	r7, #0
    160e:	f000 822b 	beq.w	1a68 <main+0x86c>
    1612:	4d5f      	ldr	r5, [pc, #380]	; (1790 <main+0x594>)
    1614:	2200      	movs	r2, #0
    1616:	462b      	mov	r3, r5
    1618:	2704      	movs	r7, #4
    161a:	f893 e126 	ldrb.w	lr, [r3, #294]	; 0x126
    161e:	f893 c125 	ldrb.w	r12, [r3, #293]	; 0x125
    1622:	f893 1124 	ldrb.w	r1, [r3, #292]	; 0x124
    1626:	ea4f 4e0e 	mov.w	lr, lr, lsl #16
    162a:	f893 0127 	ldrb.w	r0, [r3, #295]	; 0x127
    162e:	ea4e 2c0c 	orr.w	r12, lr, r12, lsl #8
    1632:	ea4c 0101 	orr.w	r1, r12, r1
    1636:	ea41 6000 	orr.w	r0, r1, r0, lsl #24
    163a:	f8df e15c 	ldr.w	lr, [pc, #348]	; 1798 <main+0x59c>
    163e:	f8c5 0618 	str.w	r0, [r5, #1560]	; 0x618
    1642:	f8d5 161c 	ldr.w	r1, [r5, #1564]	; 0x61c
    1646:	f8de 0000 	ldr.w	r0, [lr]
    164a:	ebc4 0c03 	rsb	r12, r4, r3
    164e:	f841 000c 	str.w	r0, [r1, r12]
    1652:	3201      	adds	r2, #1
    1654:	f895 1614 	ldrb.w	r1, [r5, #1556]	; 0x614
    1658:	b2d2      	uxtb	r2, r2
    165a:	3704      	adds	r7, #4
    165c:	3304      	adds	r3, #4
    165e:	4291      	cmp	r1, r2
    1660:	d8db      	bhi.n	161a <main+0x41e>
    1662:	463a      	mov	r2, r7
    1664:	3704      	adds	r7, #4
    1666:	463b      	mov	r3, r7
    1668:	18a8      	adds	r0, r5, r2
    166a:	f890 2120 	ldrb.w	r2, [r0, #288]	; 0x120
    166e:	f895 1620 	ldrb.w	r1, [r5, #1568]	; 0x620
    1672:	4291      	cmp	r1, r2
    1674:	f0c0 81e0 	bcc.w	1a38 <main+0x83c>
    1678:	f885 2620 	strb.w	r2, [r5, #1568]	; 0x620
    167c:	b372      	cbz	r2, 16dc <main+0x4e0>
    167e:	f64f 60e0 	movw	r0, #65248	; 0xfee0
    1682:	f6cf 70ff 	movt	r0, #65535	; 0xffff
    1686:	1b42      	subs	r2, r0, r5
    1688:	f507 7390 	add.w	r3, r7, #288	; 0x120
    168c:	1bd0      	subs	r0, r2, r7
    168e:	18e3      	adds	r3, r4, r3
    1690:	2100      	movs	r1, #0
    1692:	9004      	str	r0, [sp, #16]
    1694:	19ea      	adds	r2, r5, r7
    1696:	f892 e120 	ldrb.w	lr, [r2, #288]	; 0x120
    169a:	f893 c001 	ldrb.w	r12, [r3, #1]
    169e:	7898      	ldrb	r0, [r3, #2]
    16a0:	78da      	ldrb	r2, [r3, #3]
    16a2:	ea4e 2c0c 	orr.w	r12, lr, r12, lsl #8
    16a6:	ea4c 4000 	orr.w	r0, r12, r0, lsl #16
    16aa:	ea40 6202 	orr.w	r2, r0, r2, lsl #24
    16ae:	f8df e0ec 	ldr.w	lr, [pc, #236]	; 179c <main+0x5a0>
    16b2:	f8c5 2624 	str.w	r2, [r5, #1572]	; 0x624
    16b6:	f8dd c010 	ldr.w	r12, [sp, #16]
    16ba:	f8d5 2628 	ldr.w	r2, [r5, #1576]	; 0x628
    16be:	f8de 0000 	ldr.w	r0, [lr]
    16c2:	eb0c 0e03 	add.w	lr, r12, r3
    16c6:	f842 000e 	str.w	r0, [r2, lr]
    16ca:	3101      	adds	r1, #1
    16cc:	f895 2620 	ldrb.w	r2, [r5, #1568]	; 0x620
    16d0:	b2c9      	uxtb	r1, r1
    16d2:	3704      	adds	r7, #4
    16d4:	3304      	adds	r3, #4
    16d6:	428a      	cmp	r2, r1
    16d8:	d8dc      	bhi.n	1694 <main+0x498>
    16da:	463b      	mov	r3, r7
    16dc:	18e8      	adds	r0, r5, r3
    16de:	f890 3120 	ldrb.w	r3, [r0, #288]	; 0x120
    16e2:	f895 262c 	ldrb.w	r2, [r5, #1580]	; 0x62c
    16e6:	429a      	cmp	r2, r3
    16e8:	f0c0 819c 	bcc.w	1a24 <main+0x828>
    16ec:	3704      	adds	r7, #4
    16ee:	f885 362c 	strb.w	r3, [r5, #1580]	; 0x62c
    16f2:	2b00      	cmp	r3, #0
    16f4:	d048      	beq.n	1788 <main+0x58c>
    16f6:	f04f 0c00 	mov.w	r12, #0
    16fa:	9604      	str	r6, [sp, #16]
    16fc:	f507 7690 	add.w	r6, r7, #288	; 0x120
    1700:	59a8      	ldr	r0, [r5, r6]
    1702:	1d39      	adds	r1, r7, #4
    1704:	9006      	str	r0, [sp, #24]
    1706:	9a06      	ldr	r2, [sp, #24]
    1708:	188a      	adds	r2, r1, r2
    170a:	428a      	cmp	r2, r1
    170c:	d922      	bls.n	1754 <main+0x558>
    170e:	1868      	adds	r0, r5, r1
    1710:	43cb      	mvns	r3, r1
    1712:	f890 e120 	ldrb.w	lr, [r0, #288]	; 0x120
    1716:	189e      	adds	r6, r3, r2
    1718:	1d7b      	adds	r3, r7, #5
    171a:	429a      	cmp	r2, r3
    171c:	f880 e11f 	strb.w	lr, [r0, #287]	; 0x11f
    1720:	f006 0001 	and.w	r0, r6, #1
    1724:	d916      	bls.n	1754 <main+0x558>
    1726:	b138      	cbz	r0, 1738 <main+0x53c>
    1728:	18e8      	adds	r0, r5, r3
    172a:	f890 6120 	ldrb.w	r6, [r0, #288]	; 0x120
    172e:	1dbb      	adds	r3, r7, #6
    1730:	429a      	cmp	r2, r3
    1732:	f880 611f 	strb.w	r6, [r0, #287]	; 0x11f
    1736:	d90d      	bls.n	1754 <main+0x558>
    1738:	18ef      	adds	r7, r5, r3
    173a:	f897 0120 	ldrb.w	r0, [r7, #288]	; 0x120
    173e:	3301      	adds	r3, #1
    1740:	f887 011f 	strb.w	r0, [r7, #287]	; 0x11f
    1744:	18ef      	adds	r7, r5, r3
    1746:	f897 6120 	ldrb.w	r6, [r7, #288]	; 0x120
    174a:	3301      	adds	r3, #1
    174c:	429a      	cmp	r2, r3
    174e:	f887 611f 	strb.w	r6, [r7, #287]	; 0x11f
    1752:	d8f1      	bhi.n	1738 <main+0x53c>
    1754:	f201 111f 	addw	r1, r1, #287	; 0x11f
    1758:	186b      	adds	r3, r5, r1
    175a:	18a8      	adds	r0, r5, r2
    175c:	f04f 0e00 	mov.w	lr, #0
    1760:	4e0c      	ldr	r6, [pc, #48]	; (1794 <main+0x598>)
    1762:	f880 e11f 	strb.w	lr, [r0, #287]	; 0x11f
    1766:	f8c5 3630 	str.w	r3, [r5, #1584]	; 0x630
    176a:	f8d5 7634 	ldr.w	r7, [r5, #1588]	; 0x634
    176e:	6830      	ldr	r0, [r6, #0]
    1770:	f10c 0101 	add.w	r1, r12, #1
    1774:	f847 002c 	str.w	r0, [r7, r12, lsl #2]
    1778:	f895 362c 	ldrb.w	r3, [r5, #1580]	; 0x62c
    177c:	fa5f fc81 	uxtb.w	r12, r1
    1780:	4563      	cmp	r3, r12
    1782:	4617      	mov	r7, r2
    1784:	d8ba      	bhi.n	16fc <main+0x500>
    1786:	9e04      	ldr	r6, [sp, #16]
    1788:	2201      	movs	r2, #1
    178a:	f885 260c 	strb.w	r2, [r5, #1548]	; 0x60c
    178e:	e5b3      	b.n	12f8 <main+0xfc>
    1790:	10000164 	.word	0x10000164
    1794:	10000794 	.word	0x10000794
    1798:	1000077c 	.word	0x1000077c
    179c:	10000788 	.word	0x10000788
    17a0:	f240 1264 	movw	r2, #356	; 0x164
    17a4:	f2c1 0200 	movt	r2, #4096	; 0x1000
    17a8:	4998      	ldr	r1, [pc, #608]	; (1a0c <main+0x810>)
    17aa:	6813      	ldr	r3, [r2, #0]
    17ac:	9107      	str	r1, [sp, #28]
    17ae:	aa07      	add	r2, sp, #28
    17b0:	210a      	movs	r1, #10
    17b2:	681b      	ldr	r3, [r3, #0]
    17b4:	9708      	str	r7, [sp, #32]
    17b6:	9709      	str	r7, [sp, #36]	; 0x24
    17b8:	4895      	ldr	r0, [pc, #596]	; (1a10 <main+0x814>)
    17ba:	4798      	blx	r3
    17bc:	f240 1064 	movw	r0, #356	; 0x164
    17c0:	f2c1 0000 	movt	r0, #4096	; 0x1000
    17c4:	f500 7084 	add.w	r0, r0, #264	; 0x108
    17c8:	f002 fdaa 	bl	4320 <_ZN4mbed5Timer7read_msEv>
    17cc:	4a91      	ldr	r2, [pc, #580]	; (1a14 <main+0x818>)
    17ce:	f240 1c64 	movw	r12, #356	; 0x164
    17d2:	6811      	ldr	r1, [r2, #0]
    17d4:	4b90      	ldr	r3, [pc, #576]	; (1a18 <main+0x81c>)
    17d6:	f2c1 0c00 	movt	r12, #4096	; 0x1000
    17da:	46b8      	mov	r8, r7
    17dc:	f8cc 0114 	str.w	r0, [r12, #276]	; 0x114
    17e0:	930a      	str	r3, [sp, #40]	; 0x28
    17e2:	f20c 5724 	addw	r7, r12, #1316	; 0x524
    17e6:	b1e9      	cbz	r1, 1824 <main+0x628>
    17e8:	f857 2c04 	ldr.w	r2, [r7, #-4]
    17ec:	6848      	ldr	r0, [r1, #4]
    17ee:	6812      	ldr	r2, [r2, #0]
    17f0:	6803      	ldr	r3, [r0, #0]
    17f2:	6889      	ldr	r1, [r1, #8]
    17f4:	920c      	str	r2, [sp, #48]	; 0x30
    17f6:	689a      	ldr	r2, [r3, #8]
    17f8:	f8ad 102c 	strh.w	r1, [sp, #44]	; 0x2c
    17fc:	4790      	blx	r2
    17fe:	f857 1c04 	ldr.w	r1, [r7, #-4]
    1802:	900d      	str	r0, [sp, #52]	; 0x34
    1804:	6848      	ldr	r0, [r1, #4]
    1806:	6803      	ldr	r3, [r0, #0]
    1808:	68da      	ldr	r2, [r3, #12]
    180a:	4790      	blx	r2
    180c:	6829      	ldr	r1, [r5, #0]
    180e:	f857 2c04 	ldr.w	r2, [r7, #-4]
    1812:	900e      	str	r0, [sp, #56]	; 0x38
    1814:	f44f 7000 	mov.w	r0, #512	; 0x200
    1818:	900f      	str	r0, [sp, #60]	; 0x3c
    181a:	680b      	ldr	r3, [r1, #0]
    181c:	487c      	ldr	r0, [pc, #496]	; (1a10 <main+0x814>)
    181e:	6911      	ldr	r1, [r2, #16]
    1820:	aa0a      	add	r2, sp, #40	; 0x28
    1822:	4798      	blx	r3
    1824:	497d      	ldr	r1, [pc, #500]	; (1a1c <main+0x820>)
    1826:	428f      	cmp	r7, r1
    1828:	d073      	beq.n	1912 <main+0x716>
    182a:	f1b8 0f00 	cmp.w	r8, #0
    182e:	d028      	beq.n	1882 <main+0x686>
    1830:	f240 1264 	movw	r2, #356	; 0x164
    1834:	f2c1 0200 	movt	r2, #4096	; 0x1000
    1838:	f8d2 3524 	ldr.w	r3, [r2, #1316]	; 0x524
    183c:	3704      	adds	r7, #4
    183e:	b1eb      	cbz	r3, 187c <main+0x680>
    1840:	f857 1c04 	ldr.w	r1, [r7, #-4]
    1844:	6858      	ldr	r0, [r3, #4]
    1846:	680a      	ldr	r2, [r1, #0]
    1848:	6899      	ldr	r1, [r3, #8]
    184a:	6803      	ldr	r3, [r0, #0]
    184c:	920c      	str	r2, [sp, #48]	; 0x30
    184e:	689a      	ldr	r2, [r3, #8]
    1850:	f8ad 102c 	strh.w	r1, [sp, #44]	; 0x2c
    1854:	4790      	blx	r2
    1856:	f857 1c04 	ldr.w	r1, [r7, #-4]
    185a:	900d      	str	r0, [sp, #52]	; 0x34
    185c:	6848      	ldr	r0, [r1, #4]
    185e:	6803      	ldr	r3, [r0, #0]
    1860:	68da      	ldr	r2, [r3, #12]
    1862:	4790      	blx	r2
    1864:	6829      	ldr	r1, [r5, #0]
    1866:	f857 2c04 	ldr.w	r2, [r7, #-4]
    186a:	900e      	str	r0, [sp, #56]	; 0x38
    186c:	f44f 7000 	mov.w	r0, #512	; 0x200
    1870:	900f      	str	r0, [sp, #60]	; 0x3c
    1872:	680b      	ldr	r3, [r1, #0]
    1874:	4866      	ldr	r0, [pc, #408]	; (1a10 <main+0x814>)
    1876:	6911      	ldr	r1, [r2, #16]
    1878:	aa0a      	add	r2, sp, #40	; 0x28
    187a:	4798      	blx	r3
    187c:	4967      	ldr	r1, [pc, #412]	; (1a1c <main+0x820>)
    187e:	428f      	cmp	r7, r1
    1880:	d047      	beq.n	1912 <main+0x716>
    1882:	46b8      	mov	r8, r7
    1884:	f858 3b04 	ldr.w	r3, [r8], #4
    1888:	4647      	mov	r7, r8
    188a:	b1eb      	cbz	r3, 18c8 <main+0x6cc>
    188c:	f858 2c04 	ldr.w	r2, [r8, #-4]
    1890:	6858      	ldr	r0, [r3, #4]
    1892:	6812      	ldr	r2, [r2, #0]
    1894:	6899      	ldr	r1, [r3, #8]
    1896:	6803      	ldr	r3, [r0, #0]
    1898:	920c      	str	r2, [sp, #48]	; 0x30
    189a:	689a      	ldr	r2, [r3, #8]
    189c:	f8ad 102c 	strh.w	r1, [sp, #44]	; 0x2c
    18a0:	4790      	blx	r2
    18a2:	f858 1c04 	ldr.w	r1, [r8, #-4]
    18a6:	900d      	str	r0, [sp, #52]	; 0x34
    18a8:	6848      	ldr	r0, [r1, #4]
    18aa:	6803      	ldr	r3, [r0, #0]
    18ac:	68da      	ldr	r2, [r3, #12]
    18ae:	4790      	blx	r2
    18b0:	682b      	ldr	r3, [r5, #0]
    18b2:	f858 1c04 	ldr.w	r1, [r8, #-4]
    18b6:	900e      	str	r0, [sp, #56]	; 0x38
    18b8:	f44f 7000 	mov.w	r0, #512	; 0x200
    18bc:	6909      	ldr	r1, [r1, #16]
    18be:	aa0a      	add	r2, sp, #40	; 0x28
    18c0:	900f      	str	r0, [sp, #60]	; 0x3c
    18c2:	681b      	ldr	r3, [r3, #0]
    18c4:	4852      	ldr	r0, [pc, #328]	; (1a10 <main+0x814>)
    18c6:	4798      	blx	r3
    18c8:	f857 1b04 	ldr.w	r1, [r7], #4
    18cc:	b1e9      	cbz	r1, 190a <main+0x70e>
    18ce:	f857 2c04 	ldr.w	r2, [r7, #-4]
    18d2:	6848      	ldr	r0, [r1, #4]
    18d4:	6812      	ldr	r2, [r2, #0]
    18d6:	6803      	ldr	r3, [r0, #0]
    18d8:	6889      	ldr	r1, [r1, #8]
    18da:	920c      	str	r2, [sp, #48]	; 0x30
    18dc:	689a      	ldr	r2, [r3, #8]
    18de:	f8ad 102c 	strh.w	r1, [sp, #44]	; 0x2c
    18e2:	4790      	blx	r2
    18e4:	f857 1c04 	ldr.w	r1, [r7, #-4]
    18e8:	900d      	str	r0, [sp, #52]	; 0x34
    18ea:	6848      	ldr	r0, [r1, #4]
    18ec:	6803      	ldr	r3, [r0, #0]
    18ee:	68da      	ldr	r2, [r3, #12]
    18f0:	4790      	blx	r2
    18f2:	682a      	ldr	r2, [r5, #0]
    18f4:	f857 1c04 	ldr.w	r1, [r7, #-4]
    18f8:	900e      	str	r0, [sp, #56]	; 0x38
    18fa:	f44f 7000 	mov.w	r0, #512	; 0x200
    18fe:	900f      	str	r0, [sp, #60]	; 0x3c
    1900:	6813      	ldr	r3, [r2, #0]
    1902:	4843      	ldr	r0, [pc, #268]	; (1a10 <main+0x814>)
    1904:	6909      	ldr	r1, [r1, #16]
    1906:	aa0a      	add	r2, sp, #40	; 0x28
    1908:	4798      	blx	r3
    190a:	f8df e110 	ldr.w	lr, [pc, #272]	; 1a1c <main+0x820>
    190e:	4577      	cmp	r7, lr
    1910:	d1b7      	bne.n	1882 <main+0x686>
    1912:	f8df 8108 	ldr.w	r8, [pc, #264]	; 1a1c <main+0x820>
    1916:	4647      	mov	r7, r8
    1918:	f857 0b04 	ldr.w	r0, [r7], #4
    191c:	b308      	cbz	r0, 1962 <main+0x766>
    191e:	6882      	ldr	r2, [r0, #8]
    1920:	6803      	ldr	r3, [r0, #0]
    1922:	6841      	ldr	r1, [r0, #4]
    1924:	920c      	str	r2, [sp, #48]	; 0x30
    1926:	689a      	ldr	r2, [r3, #8]
    1928:	f8ad 102c 	strh.w	r1, [sp, #44]	; 0x2c
    192c:	4790      	blx	r2
    192e:	f857 1c04 	ldr.w	r1, [r7, #-4]
    1932:	900d      	str	r0, [sp, #52]	; 0x34
    1934:	680b      	ldr	r3, [r1, #0]
    1936:	4608      	mov	r0, r1
    1938:	68da      	ldr	r2, [r3, #12]
    193a:	4790      	blx	r2
    193c:	f857 1c04 	ldr.w	r1, [r7, #-4]
    1940:	682b      	ldr	r3, [r5, #0]
    1942:	900e      	str	r0, [sp, #56]	; 0x38
    1944:	f44f 7000 	mov.w	r0, #512	; 0x200
    1948:	680a      	ldr	r2, [r1, #0]
    194a:	900f      	str	r0, [sp, #60]	; 0x3c
    194c:	4608      	mov	r0, r1
    194e:	6819      	ldr	r1, [r3, #0]
    1950:	6852      	ldr	r2, [r2, #4]
    1952:	9101      	str	r1, [sp, #4]
    1954:	4790      	blx	r2
    1956:	aa0a      	add	r2, sp, #40	; 0x28
    1958:	4601      	mov	r1, r0
    195a:	9b01      	ldr	r3, [sp, #4]
    195c:	f2a8 5084 	subw	r0, r8, #1412	; 0x584
    1960:	4798      	blx	r3
    1962:	46b8      	mov	r8, r7
    1964:	f858 2b04 	ldr.w	r2, [r8], #4
    1968:	4610      	mov	r0, r2
    196a:	4647      	mov	r7, r8
    196c:	b1fa      	cbz	r2, 19ae <main+0x7b2>
    196e:	6893      	ldr	r3, [r2, #8]
    1970:	6851      	ldr	r1, [r2, #4]
    1972:	6812      	ldr	r2, [r2, #0]
    1974:	930c      	str	r3, [sp, #48]	; 0x30
    1976:	6893      	ldr	r3, [r2, #8]
    1978:	f8ad 102c 	strh.w	r1, [sp, #44]	; 0x2c
    197c:	4798      	blx	r3
    197e:	f858 1c04 	ldr.w	r1, [r8, #-4]
    1982:	900d      	str	r0, [sp, #52]	; 0x34
    1984:	680a      	ldr	r2, [r1, #0]
    1986:	4608      	mov	r0, r1
    1988:	68d3      	ldr	r3, [r2, #12]
    198a:	4798      	blx	r3
    198c:	f858 3c04 	ldr.w	r3, [r8, #-4]
    1990:	900e      	str	r0, [sp, #56]	; 0x38
    1992:	6819      	ldr	r1, [r3, #0]
    1994:	682a      	ldr	r2, [r5, #0]
    1996:	f44f 7000 	mov.w	r0, #512	; 0x200
    199a:	900f      	str	r0, [sp, #60]	; 0x3c
    199c:	6849      	ldr	r1, [r1, #4]
    199e:	4618      	mov	r0, r3
    19a0:	f8d2 8000 	ldr.w	r8, [r2]
    19a4:	4788      	blx	r1
    19a6:	aa0a      	add	r2, sp, #40	; 0x28
    19a8:	4601      	mov	r1, r0
    19aa:	4819      	ldr	r0, [pc, #100]	; (1a10 <main+0x814>)
    19ac:	47c0      	blx	r8
    19ae:	f857 3b04 	ldr.w	r3, [r7], #4
    19b2:	4618      	mov	r0, r3
    19b4:	b1fb      	cbz	r3, 19f6 <main+0x7fa>
    19b6:	689a      	ldr	r2, [r3, #8]
    19b8:	6859      	ldr	r1, [r3, #4]
    19ba:	681b      	ldr	r3, [r3, #0]
    19bc:	920c      	str	r2, [sp, #48]	; 0x30
    19be:	689a      	ldr	r2, [r3, #8]
    19c0:	f8ad 102c 	strh.w	r1, [sp, #44]	; 0x2c
    19c4:	4790      	blx	r2
    19c6:	f857 1c04 	ldr.w	r1, [r7, #-4]
    19ca:	900d      	str	r0, [sp, #52]	; 0x34
    19cc:	680b      	ldr	r3, [r1, #0]
    19ce:	4608      	mov	r0, r1
    19d0:	68da      	ldr	r2, [r3, #12]
    19d2:	4790      	blx	r2
    19d4:	f857 3c04 	ldr.w	r3, [r7, #-4]
    19d8:	900e      	str	r0, [sp, #56]	; 0x38
    19da:	6819      	ldr	r1, [r3, #0]
    19dc:	682a      	ldr	r2, [r5, #0]
    19de:	f44f 7000 	mov.w	r0, #512	; 0x200
    19e2:	900f      	str	r0, [sp, #60]	; 0x3c
    19e4:	6849      	ldr	r1, [r1, #4]
    19e6:	4618      	mov	r0, r3
    19e8:	f8d2 8000 	ldr.w	r8, [r2]
    19ec:	4788      	blx	r1
    19ee:	aa0a      	add	r2, sp, #40	; 0x28
    19f0:	4601      	mov	r1, r0
    19f2:	4807      	ldr	r0, [pc, #28]	; (1a10 <main+0x814>)
    19f4:	47c0      	blx	r8
    19f6:	4b0a      	ldr	r3, [pc, #40]	; (1a20 <main+0x824>)
    19f8:	429f      	cmp	r7, r3
    19fa:	d1b2      	bne.n	1962 <main+0x766>
    19fc:	2701      	movs	r7, #1
    19fe:	f885 75fc 	strb.w	r7, [r5, #1532]	; 0x5fc
    1a02:	f8c5 6600 	str.w	r6, [r5, #1536]	; 0x600
    1a06:	f8c5 6604 	str.w	r6, [r5, #1540]	; 0x604
    1a0a:	e4b6      	b.n	137a <main+0x17e>
    1a0c:	000089a0 	.word	0x000089a0
    1a10:	10000164 	.word	0x10000164
    1a14:	10000684 	.word	0x10000684
    1a18:	000089b8 	.word	0x000089b8
    1a1c:	100006e8 	.word	0x100006e8
    1a20:	1000074c 	.word	0x1000074c
    1a24:	f8d4 0634 	ldr.w	r0, [r4, #1588]	; 0x634
    1a28:	0099      	lsls	r1, r3, #2
    1a2a:	9301      	str	r3, [sp, #4]
    1a2c:	f005 faf0 	bl	7010 <realloc>
    1a30:	9b01      	ldr	r3, [sp, #4]
    1a32:	f8c4 0634 	str.w	r0, [r4, #1588]	; 0x634
    1a36:	e659      	b.n	16ec <main+0x4f0>
    1a38:	f8d4 0628 	ldr.w	r0, [r4, #1576]	; 0x628
    1a3c:	0091      	lsls	r1, r2, #2
    1a3e:	9202      	str	r2, [sp, #8]
    1a40:	9301      	str	r3, [sp, #4]
    1a42:	f005 fae5 	bl	7010 <realloc>
    1a46:	9b01      	ldr	r3, [sp, #4]
    1a48:	f8c4 0628 	str.w	r0, [r4, #1576]	; 0x628
    1a4c:	9a02      	ldr	r2, [sp, #8]
    1a4e:	e613      	b.n	1678 <main+0x47c>
    1a50:	f8d4 061c 	ldr.w	r0, [r4, #1564]	; 0x61c
    1a54:	00b9      	lsls	r1, r7, #2
    1a56:	f005 fadb 	bl	7010 <realloc>
    1a5a:	f885 7614 	strb.w	r7, [r5, #1556]	; 0x614
    1a5e:	f8c4 061c 	str.w	r0, [r4, #1564]	; 0x61c
    1a62:	2f00      	cmp	r7, #0
    1a64:	f47f add5 	bne.w	1612 <main+0x416>
    1a68:	2308      	movs	r3, #8
    1a6a:	461f      	mov	r7, r3
    1a6c:	2204      	movs	r2, #4
    1a6e:	e5fb      	b.n	1668 <main+0x46c>

00001a70 <_GLOBAL__sub_I_nh>:
    1a70:	b538      	push	{r3, r4, r5, lr}
    1a72:	4c38      	ldr	r4, [pc, #224]	; (1b54 <_GLOBAL__sub_I_nh+0xe4>)
    1a74:	4d38      	ldr	r5, [pc, #224]	; (1b58 <_GLOBAL__sub_I_nh+0xe8>)
    1a76:	4620      	mov	r0, r4
    1a78:	f44f 4140 	mov.w	r1, #49152	; 0xc000
    1a7c:	f24c 0201 	movw	r2, #49153	; 0xc001
    1a80:	f2c2 0109 	movt	r1, #8201	; 0x2009
    1a84:	f2c2 0209 	movt	r2, #8201	; 0x2009
    1a88:	2300      	movs	r3, #0
    1a8a:	f840 5b08 	str.w	r5, [r0], #8
    1a8e:	f000 ff01 	bl	2894 <_ZN3AjK9MODSERIALC1E7PinNameS1_PKc>
    1a92:	f504 7084 	add.w	r0, r4, #264	; 0x108
    1a96:	f002 fc59 	bl	434c <_ZN4mbed5TimerC1Ev>
    1a9a:	f44f 4361 	mov.w	r3, #57600	; 0xe100
    1a9e:	f504 7084 	add.w	r0, r4, #264	; 0x108
    1aa2:	6063      	str	r3, [r4, #4]
    1aa4:	f002 fc22 	bl	42ec <_ZN4mbed5Timer5startEv>
    1aa8:	482c      	ldr	r0, [pc, #176]	; (1b5c <_GLOBAL__sub_I_nh+0xec>)
    1aaa:	2200      	movs	r2, #0
    1aac:	4625      	mov	r5, r4
    1aae:	f884 25fc 	strb.w	r2, [r4, #1532]	; 0x5fc
    1ab2:	f8c4 0610 	str.w	r0, [r4, #1552]	; 0x610
    1ab6:	f504 63a4 	add.w	r3, r4, #1312	; 0x520
    1aba:	4611      	mov	r1, r2
    1abc:	f504 64b0 	add.w	r4, r4, #1408	; 0x580
    1ac0:	f8c5 2520 	str.w	r2, [r5, #1312]	; 0x520
    1ac4:	1d1a      	adds	r2, r3, #4
    1ac6:	6059      	str	r1, [r3, #4]
    1ac8:	3308      	adds	r3, #8
    1aca:	42a3      	cmp	r3, r4
    1acc:	6051      	str	r1, [r2, #4]
    1ace:	d1f9      	bne.n	1ac4 <_GLOBAL__sub_I_nh+0x54>
    1ad0:	4823      	ldr	r0, [pc, #140]	; (1b60 <_GLOBAL__sub_I_nh+0xf0>)
    1ad2:	2100      	movs	r1, #0
    1ad4:	4603      	mov	r3, r0
    1ad6:	f843 1d60 	str.w	r1, [r3, #-96]!
    1ada:	1d1c      	adds	r4, r3, #4
    1adc:	6059      	str	r1, [r3, #4]
    1ade:	3308      	adds	r3, #8
    1ae0:	4283      	cmp	r3, r0
    1ae2:	6061      	str	r1, [r4, #4]
    1ae4:	d1f9      	bne.n	1ada <_GLOBAL__sub_I_nh+0x6a>
    1ae6:	4b1f      	ldr	r3, [pc, #124]	; (1b64 <_GLOBAL__sub_I_nh+0xf4>)
    1ae8:	2100      	movs	r1, #0
    1aea:	f503 7000 	add.w	r0, r3, #512	; 0x200
    1aee:	1c5a      	adds	r2, r3, #1
    1af0:	7059      	strb	r1, [r3, #1]
    1af2:	3302      	adds	r3, #2
    1af4:	4283      	cmp	r3, r0
    1af6:	7051      	strb	r1, [r2, #1]
    1af8:	d1f9      	bne.n	1aee <_GLOBAL__sub_I_nh+0x7e>
    1afa:	4a1b      	ldr	r2, [pc, #108]	; (1b68 <_GLOBAL__sub_I_nh+0xf8>)
    1afc:	2100      	movs	r1, #0
    1afe:	f502 7000 	add.w	r0, r2, #512	; 0x200
    1b02:	1c54      	adds	r4, r2, #1
    1b04:	7051      	strb	r1, [r2, #1]
    1b06:	3202      	adds	r2, #2
    1b08:	7061      	strb	r1, [r4, #1]
    1b0a:	2400      	movs	r4, #0
    1b0c:	4282      	cmp	r2, r0
    1b0e:	d1f8      	bne.n	1b02 <_GLOBAL__sub_I_nh+0x92>
    1b10:	4916      	ldr	r1, [pc, #88]	; (1b6c <_GLOBAL__sub_I_nh+0xfc>)
    1b12:	4a17      	ldr	r2, [pc, #92]	; (1b70 <_GLOBAL__sub_I_nh+0x100>)
    1b14:	480f      	ldr	r0, [pc, #60]	; (1b54 <_GLOBAL__sub_I_nh+0xe4>)
    1b16:	f885 4614 	strb.w	r4, [r5, #1556]	; 0x614
    1b1a:	f8c5 461c 	str.w	r4, [r5, #1564]	; 0x61c
    1b1e:	f885 4620 	strb.w	r4, [r5, #1568]	; 0x620
    1b22:	f8c5 4628 	str.w	r4, [r5, #1576]	; 0x628
    1b26:	f002 fe53 	bl	47d0 <__aeabi_atexit>
    1b2a:	4b12      	ldr	r3, [pc, #72]	; (1b74 <_GLOBAL__sub_I_nh+0x104>)
    1b2c:	4812      	ldr	r0, [pc, #72]	; (1b78 <_GLOBAL__sub_I_nh+0x108>)
    1b2e:	4a13      	ldr	r2, [pc, #76]	; (1b7c <_GLOBAL__sub_I_nh+0x10c>)
    1b30:	6018      	str	r0, [r3, #0]
    1b32:	4813      	ldr	r0, [pc, #76]	; (1b80 <_GLOBAL__sub_I_nh+0x110>)
    1b34:	4913      	ldr	r1, [pc, #76]	; (1b84 <_GLOBAL__sub_I_nh+0x114>)
    1b36:	60d8      	str	r0, [r3, #12]
    1b38:	4813      	ldr	r0, [pc, #76]	; (1b88 <_GLOBAL__sub_I_nh+0x118>)
    1b3a:	6051      	str	r1, [r2, #4]
    1b3c:	6158      	str	r0, [r3, #20]
    1b3e:	2001      	movs	r0, #1
    1b40:	6198      	str	r0, [r3, #24]
    1b42:	4812      	ldr	r0, [pc, #72]	; (1b8c <_GLOBAL__sub_I_nh+0x11c>)
    1b44:	6114      	str	r4, [r2, #16]
    1b46:	6098      	str	r0, [r3, #8]
    1b48:	4b11      	ldr	r3, [pc, #68]	; (1b90 <_GLOBAL__sub_I_nh+0x120>)
    1b4a:	4812      	ldr	r0, [pc, #72]	; (1b94 <_GLOBAL__sub_I_nh+0x124>)
    1b4c:	600b      	str	r3, [r1, #0]
    1b4e:	6010      	str	r0, [r2, #0]
    1b50:	bd38      	pop	{r3, r4, r5, pc}
    1b52:	bf00      	nop
    1b54:	10000164 	.word	0x10000164
    1b58:	00008a30 	.word	0x00008a30
    1b5c:	00008a48 	.word	0x00008a48
    1b60:	10000748 	.word	0x10000748
    1b64:	10000283 	.word	0x10000283
    1b68:	10000483 	.word	0x10000483
    1b6c:	00000ac9 	.word	0x00000ac9
    1b70:	100000c8 	.word	0x100000c8
    1b74:	10000824 	.word	0x10000824
    1b78:	000089e8 	.word	0x000089e8
    1b7c:	1000079c 	.word	0x1000079c
    1b80:	00008a00 	.word	0x00008a00
    1b84:	100007b0 	.word	0x100007b0
    1b88:	00000435 	.word	0x00000435
    1b8c:	00008d90 	.word	0x00008d90
    1b90:	00008a18 	.word	0x00008a18
    1b94:	00008d98 	.word	0x00008d98

00001b98 <_ZN6KernelC1Ev>:
    1b98:	b538      	push	{r3, r4, r5, lr}
    1b9a:	2300      	movs	r3, #0
    1b9c:	4604      	mov	r4, r0
    1b9e:	6043      	str	r3, [r0, #4]
    1ba0:	6083      	str	r3, [r0, #8]
    1ba2:	60c3      	str	r3, [r0, #12]
    1ba4:	6103      	str	r3, [r0, #16]
    1ba6:	6143      	str	r3, [r0, #20]
    1ba8:	6183      	str	r3, [r0, #24]
    1baa:	61c3      	str	r3, [r0, #28]
    1bac:	6203      	str	r3, [r0, #32]
    1bae:	6243      	str	r3, [r0, #36]	; 0x24
    1bb0:	6283      	str	r3, [r0, #40]	; 0x28
    1bb2:	62c3      	str	r3, [r0, #44]	; 0x2c
    1bb4:	6303      	str	r3, [r0, #48]	; 0x30
    1bb6:	6343      	str	r3, [r0, #52]	; 0x34
    1bb8:	6383      	str	r3, [r0, #56]	; 0x38
    1bba:	63c3      	str	r3, [r0, #60]	; 0x3c
    1bbc:	6403      	str	r3, [r0, #64]	; 0x40
    1bbe:	6443      	str	r3, [r0, #68]	; 0x44
    1bc0:	6483      	str	r3, [r0, #72]	; 0x48
    1bc2:	64c3      	str	r3, [r0, #76]	; 0x4c
    1bc4:	6503      	str	r3, [r0, #80]	; 0x50
    1bc6:	6543      	str	r3, [r0, #84]	; 0x54
    1bc8:	6583      	str	r3, [r0, #88]	; 0x58
    1bca:	65c3      	str	r3, [r0, #92]	; 0x5c
    1bcc:	6603      	str	r3, [r0, #96]	; 0x60
    1bce:	6643      	str	r3, [r0, #100]	; 0x64
    1bd0:	6683      	str	r3, [r0, #104]	; 0x68
    1bd2:	66c3      	str	r3, [r0, #108]	; 0x6c
    1bd4:	6703      	str	r3, [r0, #112]	; 0x70
    1bd6:	6743      	str	r3, [r0, #116]	; 0x74
    1bd8:	6783      	str	r3, [r0, #120]	; 0x78
    1bda:	67c3      	str	r3, [r0, #124]	; 0x7c
    1bdc:	f8c0 3080 	str.w	r3, [r0, #128]	; 0x80
    1be0:	f8c0 3084 	str.w	r3, [r0, #132]	; 0x84
    1be4:	2024      	movs	r0, #36	; 0x24
    1be6:	f8c4 3088 	str.w	r3, [r4, #136]	; 0x88
    1bea:	f8c4 308c 	str.w	r3, [r4, #140]	; 0x8c
    1bee:	f8c4 3090 	str.w	r3, [r4, #144]	; 0x90
    1bf2:	f002 fe67 	bl	48c4 <_Znwj>
    1bf6:	4605      	mov	r5, r0
    1bf8:	f000 fbd6 	bl	23a8 <_ZN6ConfigC1Ev>
    1bfc:	6829      	ldr	r1, [r5, #0]
    1bfe:	6025      	str	r5, [r4, #0]
    1c00:	606c      	str	r4, [r5, #4]
    1c02:	4628      	mov	r0, r5
    1c04:	680a      	ldr	r2, [r1, #0]
    1c06:	4790      	blx	r2
    1c08:	682b      	ldr	r3, [r5, #0]
    1c0a:	4628      	mov	r0, r5
    1c0c:	685a      	ldr	r2, [r3, #4]
    1c0e:	2108      	movs	r1, #8
    1c10:	4790      	blx	r2
    1c12:	4620      	mov	r0, r4
    1c14:	bd38      	pop	{r3, r4, r5, pc}
    1c16:	bf00      	nop

00001c18 <_ZN6Kernel10call_eventEj>:
    1c18:	eb01 0341 	add.w	r3, r1, r1, lsl #1
    1c1c:	e92d 47f0 	stmdb	sp!, {r4, r5, r6, r7, r8, r9, r10, lr}
    1c20:	4607      	mov	r7, r0
    1c22:	eb00 0083 	add.w	r0, r0, r3, lsl #2
    1c26:	f100 0a04 	add.w	r10, r0, #4
    1c2a:	f8da 2004 	ldr.w	r2, [r10, #4]
    1c2e:	6843      	ldr	r3, [r0, #4]
    1c30:	460e      	mov	r6, r1
    1c32:	1ad1      	subs	r1, r2, r3
    1c34:	088a      	lsrs	r2, r1, #2
    1c36:	d022      	beq.n	1c7e <_ZN6Kernel10call_eventEj+0x66>
    1c38:	f8df 8048 	ldr.w	r8, [pc, #72]	; 1c84 <_ZN6Kernel10call_eventEj+0x6c>
    1c3c:	2400      	movs	r4, #0
    1c3e:	eb08 05c6 	add.w	r5, r8, r6, lsl #3
    1c42:	6868      	ldr	r0, [r5, #4]
    1c44:	f000 0901 	and.w	r9, r0, #1
    1c48:	1045      	asrs	r5, r0, #1
    1c4a:	e00d      	b.n	1c68 <_ZN6Kernel10call_eventEj+0x50>
    1c4c:	1958      	adds	r0, r3, r5
    1c4e:	f858 3036 	ldr.w	r3, [r8, r6, lsl #3]
    1c52:	4639      	mov	r1, r7
    1c54:	4798      	blx	r3
    1c56:	f8da 3000 	ldr.w	r3, [r10]
    1c5a:	f8da 0004 	ldr.w	r0, [r10, #4]
    1c5e:	3401      	adds	r4, #1
    1c60:	1ac1      	subs	r1, r0, r3
    1c62:	ebb4 0fa1 	cmp.w	r4, r1, asr #2
    1c66:	d20a      	bcs.n	1c7e <_ZN6Kernel10call_eventEj+0x66>
    1c68:	f853 3024 	ldr.w	r3, [r3, r4, lsl #2]
    1c6c:	f1b9 0f00 	cmp.w	r9, #0
    1c70:	d0ec      	beq.n	1c4c <_ZN6Kernel10call_eventEj+0x34>
    1c72:	5959      	ldr	r1, [r3, r5]
    1c74:	f858 2036 	ldr.w	r2, [r8, r6, lsl #3]
    1c78:	1958      	adds	r0, r3, r5
    1c7a:	588b      	ldr	r3, [r1, r2]
    1c7c:	e7e9      	b.n	1c52 <_ZN6Kernel10call_eventEj+0x3a>
    1c7e:	e8bd 87f0 	ldmia.w	sp!, {r4, r5, r6, r7, r8, r9, r10, pc}
    1c82:	bf00      	nop
    1c84:	00008dc0 	.word	0x00008dc0

00001c88 <_ZNSt6vectorIP6ModuleSaIS1_EE13_M_insert_auxEN9__gnu_cxx17__normal_iteratorIPS1_S3_EERKS1_>:
    1c88:	e92d 43f0 	stmdb	sp!, {r4, r5, r6, r7, r8, r9, lr}
    1c8c:	6843      	ldr	r3, [r0, #4]
    1c8e:	4604      	mov	r4, r0
    1c90:	6880      	ldr	r0, [r0, #8]
    1c92:	b083      	sub	sp, #12
    1c94:	4283      	cmp	r3, r0
    1c96:	460d      	mov	r5, r1
    1c98:	d014      	beq.n	1cc4 <_ZNSt6vectorIP6ModuleSaIS1_EE13_M_insert_auxEN9__gnu_cxx17__normal_iteratorIPS1_S3_EERKS1_+0x3c>
    1c9a:	b11b      	cbz	r3, 1ca4 <_ZNSt6vectorIP6ModuleSaIS1_EE13_M_insert_auxEN9__gnu_cxx17__normal_iteratorIPS1_S3_EERKS1_+0x1c>
    1c9c:	f853 0c04 	ldr.w	r0, [r3, #-4]
    1ca0:	6018      	str	r0, [r3, #0]
    1ca2:	6863      	ldr	r3, [r4, #4]
    1ca4:	1d18      	adds	r0, r3, #4
    1ca6:	1f19      	subs	r1, r3, #4
    1ca8:	6060      	str	r0, [r4, #4]
    1caa:	1b48      	subs	r0, r1, r5
    1cac:	6814      	ldr	r4, [r2, #0]
    1cae:	1082      	asrs	r2, r0, #2
    1cb0:	d004      	beq.n	1cbc <_ZNSt6vectorIP6ModuleSaIS1_EE13_M_insert_auxEN9__gnu_cxx17__normal_iteratorIPS1_S3_EERKS1_+0x34>
    1cb2:	0092      	lsls	r2, r2, #2
    1cb4:	1a98      	subs	r0, r3, r2
    1cb6:	4629      	mov	r1, r5
    1cb8:	f005 f91a 	bl	6ef0 <memmove>
    1cbc:	602c      	str	r4, [r5, #0]
    1cbe:	b003      	add	sp, #12
    1cc0:	e8bd 83f0 	ldmia.w	sp!, {r4, r5, r6, r7, r8, r9, pc}
    1cc4:	6821      	ldr	r1, [r4, #0]
    1cc6:	1a5b      	subs	r3, r3, r1
    1cc8:	109f      	asrs	r7, r3, #2
    1cca:	d037      	beq.n	1d3c <_ZNSt6vectorIP6ModuleSaIS1_EE13_M_insert_auxEN9__gnu_cxx17__normal_iteratorIPS1_S3_EERKS1_+0xb4>
    1ccc:	007e      	lsls	r6, r7, #1
    1cce:	42b7      	cmp	r7, r6
    1cd0:	ebc1 0005 	rsb	r0, r1, r5
    1cd4:	d937      	bls.n	1d46 <_ZNSt6vectorIP6ModuleSaIS1_EE13_M_insert_auxEN9__gnu_cxx17__normal_iteratorIPS1_S3_EERKS1_+0xbe>
    1cd6:	1087      	asrs	r7, r0, #2
    1cd8:	f06f 0803 	mvn.w	r8, #3
    1cdc:	4640      	mov	r0, r8
    1cde:	9201      	str	r2, [sp, #4]
    1ce0:	f002 fdf0 	bl	48c4 <_Znwj>
    1ce4:	9a01      	ldr	r2, [sp, #4]
    1ce6:	4606      	mov	r6, r0
    1ce8:	eb06 0187 	add.w	r1, r6, r7, lsl #2
    1cec:	b111      	cbz	r1, 1cf4 <_ZNSt6vectorIP6ModuleSaIS1_EE13_M_insert_auxEN9__gnu_cxx17__normal_iteratorIPS1_S3_EERKS1_+0x6c>
    1cee:	6812      	ldr	r2, [r2, #0]
    1cf0:	f846 2027 	str.w	r2, [r6, r7, lsl #2]
    1cf4:	6821      	ldr	r1, [r4, #0]
    1cf6:	1a6b      	subs	r3, r5, r1
    1cf8:	ea5f 09a3 	movs.w	r9, r3, asr #2
    1cfc:	d005      	beq.n	1d0a <_ZNSt6vectorIP6ModuleSaIS1_EE13_M_insert_auxEN9__gnu_cxx17__normal_iteratorIPS1_S3_EERKS1_+0x82>
    1cfe:	ea4f 0989 	mov.w	r9, r9, lsl #2
    1d02:	4630      	mov	r0, r6
    1d04:	464a      	mov	r2, r9
    1d06:	f005 f8f3 	bl	6ef0 <memmove>
    1d0a:	6860      	ldr	r0, [r4, #4]
    1d0c:	eb06 0709 	add.w	r7, r6, r9
    1d10:	1b41      	subs	r1, r0, r5
    1d12:	f107 0904 	add.w	r9, r7, #4
    1d16:	108f      	asrs	r7, r1, #2
    1d18:	d005      	beq.n	1d26 <_ZNSt6vectorIP6ModuleSaIS1_EE13_M_insert_auxEN9__gnu_cxx17__normal_iteratorIPS1_S3_EERKS1_+0x9e>
    1d1a:	00bf      	lsls	r7, r7, #2
    1d1c:	4648      	mov	r0, r9
    1d1e:	4629      	mov	r1, r5
    1d20:	463a      	mov	r2, r7
    1d22:	f005 f8e5 	bl	6ef0 <memmove>
    1d26:	6820      	ldr	r0, [r4, #0]
    1d28:	444f      	add	r7, r9
    1d2a:	b108      	cbz	r0, 1d30 <_ZNSt6vectorIP6ModuleSaIS1_EE13_M_insert_auxEN9__gnu_cxx17__normal_iteratorIPS1_S3_EERKS1_+0xa8>
    1d2c:	f002 fdc6 	bl	48bc <_ZdlPv>
    1d30:	eb06 0208 	add.w	r2, r6, r8
    1d34:	e884 00c0 	stmia.w	r4, {r6, r7}
    1d38:	60a2      	str	r2, [r4, #8]
    1d3a:	e7c0      	b.n	1cbe <_ZNSt6vectorIP6ModuleSaIS1_EE13_M_insert_auxEN9__gnu_cxx17__normal_iteratorIPS1_S3_EERKS1_+0x36>
    1d3c:	1a6e      	subs	r6, r5, r1
    1d3e:	10b7      	asrs	r7, r6, #2
    1d40:	f04f 0804 	mov.w	r8, #4
    1d44:	e7ca      	b.n	1cdc <_ZNSt6vectorIP6ModuleSaIS1_EE13_M_insert_auxEN9__gnu_cxx17__normal_iteratorIPS1_S3_EERKS1_+0x54>
    1d46:	f1b6 4f80 	cmp.w	r6, #1073741824	; 0x40000000
    1d4a:	d2c4      	bcs.n	1cd6 <_ZNSt6vectorIP6ModuleSaIS1_EE13_M_insert_auxEN9__gnu_cxx17__normal_iteratorIPS1_S3_EERKS1_+0x4e>
    1d4c:	ea4f 08c7 	mov.w	r8, r7, lsl #3
    1d50:	1087      	asrs	r7, r0, #2
    1d52:	2e00      	cmp	r6, #0
    1d54:	d0c8      	beq.n	1ce8 <_ZNSt6vectorIP6ModuleSaIS1_EE13_M_insert_auxEN9__gnu_cxx17__normal_iteratorIPS1_S3_EERKS1_+0x60>
    1d56:	e7c1      	b.n	1cdc <_ZNSt6vectorIP6ModuleSaIS1_EE13_M_insert_auxEN9__gnu_cxx17__normal_iteratorIPS1_S3_EERKS1_+0x54>

00001d58 <_ZN6Kernel18register_for_eventEjP6Module>:
    1d58:	b500      	push	{lr}
    1d5a:	eb01 0141 	add.w	r1, r1, r1, lsl #1
    1d5e:	eb00 0081 	add.w	r0, r0, r1, lsl #2
    1d62:	3004      	adds	r0, #4
    1d64:	6841      	ldr	r1, [r0, #4]
    1d66:	6883      	ldr	r3, [r0, #8]
    1d68:	b083      	sub	sp, #12
    1d6a:	4299      	cmp	r1, r3
    1d6c:	9201      	str	r2, [sp, #4]
    1d6e:	d006      	beq.n	1d7e <_ZN6Kernel18register_for_eventEjP6Module+0x26>
    1d70:	b109      	cbz	r1, 1d76 <_ZN6Kernel18register_for_eventEjP6Module+0x1e>
    1d72:	600a      	str	r2, [r1, #0]
    1d74:	6841      	ldr	r1, [r0, #4]
    1d76:	1d0a      	adds	r2, r1, #4
    1d78:	6042      	str	r2, [r0, #4]
    1d7a:	b003      	add	sp, #12
    1d7c:	bd00      	pop	{pc}
    1d7e:	aa01      	add	r2, sp, #4
    1d80:	f7ff ff82 	bl	1c88 <_ZNSt6vectorIP6ModuleSaIS1_EE13_M_insert_auxEN9__gnu_cxx17__normal_iteratorIPS1_S3_EERKS1_>
    1d84:	e7f9      	b.n	1d7a <_ZN6Kernel18register_for_eventEjP6Module+0x22>
    1d86:	bf00      	nop

00001d88 <_ZN6Module16on_module_loadedEv>:
    1d88:	4770      	bx	lr
    1d8a:	bf00      	nop

00001d8c <_ZN6Module12on_main_loopEPv>:
    1d8c:	4770      	bx	lr
    1d8e:	bf00      	nop

00001d90 <_ZN6Module24on_console_line_receivedEPv>:
    1d90:	4770      	bx	lr
    1d92:	bf00      	nop

00001d94 <_ZN6Module17on_gcode_receivedEPv>:
    1d94:	4770      	bx	lr
    1d96:	bf00      	nop

00001d98 <_ZN6Module18on_stepper_wake_upEPv>:
    1d98:	4770      	bx	lr
    1d9a:	bf00      	nop

00001d9c <_ZN6Module16on_gcode_executeEPv>:
    1d9c:	4770      	bx	lr
    1d9e:	bf00      	nop

00001da0 <_ZN6Module15on_speed_changeEPv>:
    1da0:	4770      	bx	lr
    1da2:	bf00      	nop

00001da4 <_ZN6Module14on_block_beginEPv>:
    1da4:	4770      	bx	lr
    1da6:	bf00      	nop

00001da8 <_ZN6Module12on_block_endEPv>:
    1da8:	4770      	bx	lr
    1daa:	bf00      	nop

00001dac <_ZN6Module16on_config_reloadEPv>:
    1dac:	4770      	bx	lr
    1dae:	bf00      	nop

00001db0 <_ZN6Module7on_playEPv>:
    1db0:	4770      	bx	lr
    1db2:	bf00      	nop

00001db4 <_ZN6Module8on_pauseEPv>:
    1db4:	4770      	bx	lr
    1db6:	bf00      	nop

00001db8 <_ZN6Module7on_idleEPv>:
    1db8:	4770      	bx	lr
    1dba:	bf00      	nop

00001dbc <_ZN6Module18register_for_eventEi>:
    1dbc:	4602      	mov	r2, r0
    1dbe:	6840      	ldr	r0, [r0, #4]
    1dc0:	f7ff bfca 	b.w	1d58 <_ZN6Kernel18register_for_eventEjP6Module>

00001dc4 <_ZN6ModuleC1Ev>:
    1dc4:	4b01      	ldr	r3, [pc, #4]	; (1dcc <_ZN6ModuleC1Ev+0x8>)
    1dc6:	6003      	str	r3, [r0, #0]
    1dc8:	4770      	bx	lr
    1dca:	bf00      	nop
    1dcc:	00008e30 	.word	0x00008e30

00001dd0 <_Z12get_checksumSs>:
    1dd0:	6801      	ldr	r1, [r0, #0]
    1dd2:	e92d 47f0 	stmdb	sp!, {r4, r5, r6, r7, r8, r9, r10, lr}
    1dd6:	4682      	mov	r10, r0
    1dd8:	f851 0c0c 	ldr.w	r0, [r1, #-12]
    1ddc:	b390      	cbz	r0, 1e44 <_Z12get_checksumSs+0x74>
    1dde:	2600      	movs	r6, #0
    1de0:	f248 0981 	movw	r9, #32897	; 0x8081
    1de4:	4634      	mov	r4, r6
    1de6:	4635      	mov	r5, r6
    1de8:	46b0      	mov	r8, r6
    1dea:	f2c8 0980 	movt	r9, #32896	; 0x8080
    1dee:	f851 3c04 	ldr.w	r3, [r1, #-4]
    1df2:	3401      	adds	r4, #1
    1df4:	2b00      	cmp	r3, #0
    1df6:	db04      	blt.n	1e02 <_Z12get_checksumSs+0x32>
    1df8:	4650      	mov	r0, r10
    1dfa:	f003 f969 	bl	50d0 <_ZNSs12_M_leak_hardEv>
    1dfe:	f8da 1000 	ldr.w	r1, [r10]
    1e02:	5d8a      	ldrb	r2, [r1, r6]
    1e04:	f851 7c0c 	ldr.w	r7, [r1, #-12]
    1e08:	4442      	add	r2, r8
    1e0a:	fb89 0602 	smull	r0, r6, r9, r2
    1e0e:	17d0      	asrs	r0, r2, #31
    1e10:	18b3      	adds	r3, r6, r2
    1e12:	ebc0 16e3 	rsb	r6, r0, r3, asr #7
    1e16:	ebc6 2006 	rsb	r0, r6, r6, lsl #8
    1e1a:	1a12      	subs	r2, r2, r0
    1e1c:	1953      	adds	r3, r2, r5
    1e1e:	fb89 0503 	smull	r0, r5, r9, r3
    1e22:	17de      	asrs	r6, r3, #31
    1e24:	18e8      	adds	r0, r5, r3
    1e26:	ebc6 15e0 	rsb	r5, r6, r0, asr #7
    1e2a:	ebc5 2605 	rsb	r6, r5, r5, lsl #8
    1e2e:	1b9b      	subs	r3, r3, r6
    1e30:	42bc      	cmp	r4, r7
    1e32:	fa1f f882 	uxth.w	r8, r2
    1e36:	b29d      	uxth	r5, r3
    1e38:	4626      	mov	r6, r4
    1e3a:	d3d8      	bcc.n	1dee <_Z12get_checksumSs+0x1e>
    1e3c:	0229      	lsls	r1, r5, #8
    1e3e:	b28a      	uxth	r2, r1
    1e40:	ea42 0008 	orr.w	r0, r2, r8
    1e44:	e8bd 87f0 	ldmia.w	sp!, {r4, r5, r6, r7, r8, r9, r10, pc}

00001e48 <_Z11file_existsSs>:
    1e48:	f648 619c 	movw	r1, #36508	; 0x8e9c
    1e4c:	b510      	push	{r4, lr}
    1e4e:	f2c0 0100 	movt	r1, #0
    1e52:	6800      	ldr	r0, [r0, #0]
    1e54:	f004 fc46 	bl	66e4 <fopen>
    1e58:	4604      	mov	r4, r0
    1e5a:	f004 fa53 	bl	6304 <fclose>
    1e5e:	1c20      	adds	r0, r4, #0
    1e60:	bf18      	it	ne
    1e62:	2001      	movne	r0, #1
    1e64:	bd10      	pop	{r4, pc}
    1e66:	bf00      	nop

00001e68 <_ZNSt6vectorItSaItEE13_M_insert_auxEN9__gnu_cxx17__normal_iteratorIPtS1_EERKt>:
    1e68:	e92d 43f0 	stmdb	sp!, {r4, r5, r6, r7, r8, r9, lr}
    1e6c:	6843      	ldr	r3, [r0, #4]
    1e6e:	4604      	mov	r4, r0
    1e70:	6880      	ldr	r0, [r0, #8]
    1e72:	b083      	sub	sp, #12
    1e74:	4283      	cmp	r3, r0
    1e76:	460d      	mov	r5, r1
    1e78:	d013      	beq.n	1ea2 <_ZNSt6vectorItSaItEE13_M_insert_auxEN9__gnu_cxx17__normal_iteratorIPtS1_EERKt+0x3a>
    1e7a:	b113      	cbz	r3, 1e82 <_ZNSt6vectorItSaItEE13_M_insert_auxEN9__gnu_cxx17__normal_iteratorIPtS1_EERKt+0x1a>
    1e7c:	f833 1c02 	ldrh.w	r1, [r3, #-2]
    1e80:	8019      	strh	r1, [r3, #0]
    1e82:	1e99      	subs	r1, r3, #2
    1e84:	1c98      	adds	r0, r3, #2
    1e86:	1b49      	subs	r1, r1, r5
    1e88:	6060      	str	r0, [r4, #4]
    1e8a:	8814      	ldrh	r4, [r2, #0]
    1e8c:	104a      	asrs	r2, r1, #1
    1e8e:	d004      	beq.n	1e9a <_ZNSt6vectorItSaItEE13_M_insert_auxEN9__gnu_cxx17__normal_iteratorIPtS1_EERKt+0x32>
    1e90:	0052      	lsls	r2, r2, #1
    1e92:	1a98      	subs	r0, r3, r2
    1e94:	4629      	mov	r1, r5
    1e96:	f005 f82b 	bl	6ef0 <memmove>
    1e9a:	802c      	strh	r4, [r5, #0]
    1e9c:	b003      	add	sp, #12
    1e9e:	e8bd 83f0 	ldmia.w	sp!, {r4, r5, r6, r7, r8, r9, pc}
    1ea2:	6821      	ldr	r1, [r4, #0]
    1ea4:	1a5e      	subs	r6, r3, r1
    1ea6:	1077      	asrs	r7, r6, #1
    1ea8:	d036      	beq.n	1f18 <_ZNSt6vectorItSaItEE13_M_insert_auxEN9__gnu_cxx17__normal_iteratorIPtS1_EERKt+0xb0>
    1eaa:	007e      	lsls	r6, r7, #1
    1eac:	42b7      	cmp	r7, r6
    1eae:	d938      	bls.n	1f22 <_ZNSt6vectorItSaItEE13_M_insert_auxEN9__gnu_cxx17__normal_iteratorIPtS1_EERKt+0xba>
    1eb0:	1a69      	subs	r1, r5, r1
    1eb2:	104f      	asrs	r7, r1, #1
    1eb4:	f06f 0801 	mvn.w	r8, #1
    1eb8:	4640      	mov	r0, r8
    1eba:	9201      	str	r2, [sp, #4]
    1ebc:	f002 fd02 	bl	48c4 <_Znwj>
    1ec0:	6821      	ldr	r1, [r4, #0]
    1ec2:	9a01      	ldr	r2, [sp, #4]
    1ec4:	4606      	mov	r6, r0
    1ec6:	1a68      	subs	r0, r5, r1
    1ec8:	eb06 0347 	add.w	r3, r6, r7, lsl #1
    1ecc:	b113      	cbz	r3, 1ed4 <_ZNSt6vectorItSaItEE13_M_insert_auxEN9__gnu_cxx17__normal_iteratorIPtS1_EERKt+0x6c>
    1ece:	8812      	ldrh	r2, [r2, #0]
    1ed0:	f826 2017 	strh.w	r2, [r6, r7, lsl #1]
    1ed4:	ea5f 0960 	movs.w	r9, r0, asr #1
    1ed8:	d005      	beq.n	1ee6 <_ZNSt6vectorItSaItEE13_M_insert_auxEN9__gnu_cxx17__normal_iteratorIPtS1_EERKt+0x7e>
    1eda:	ea4f 0949 	mov.w	r9, r9, lsl #1
    1ede:	4630      	mov	r0, r6
    1ee0:	464a      	mov	r2, r9
    1ee2:	f005 f805 	bl	6ef0 <memmove>
    1ee6:	6861      	ldr	r1, [r4, #4]
    1ee8:	eb06 0709 	add.w	r7, r6, r9
    1eec:	1b48      	subs	r0, r1, r5
    1eee:	f107 0902 	add.w	r9, r7, #2
    1ef2:	1047      	asrs	r7, r0, #1
    1ef4:	d005      	beq.n	1f02 <_ZNSt6vectorItSaItEE13_M_insert_auxEN9__gnu_cxx17__normal_iteratorIPtS1_EERKt+0x9a>
    1ef6:	007f      	lsls	r7, r7, #1
    1ef8:	4648      	mov	r0, r9
    1efa:	4629      	mov	r1, r5
    1efc:	463a      	mov	r2, r7
    1efe:	f004 fff7 	bl	6ef0 <memmove>
    1f02:	6820      	ldr	r0, [r4, #0]
    1f04:	444f      	add	r7, r9
    1f06:	b108      	cbz	r0, 1f0c <_ZNSt6vectorItSaItEE13_M_insert_auxEN9__gnu_cxx17__normal_iteratorIPtS1_EERKt+0xa4>
    1f08:	f002 fcd8 	bl	48bc <_ZdlPv>
    1f0c:	eb06 0308 	add.w	r3, r6, r8
    1f10:	e884 00c0 	stmia.w	r4, {r6, r7}
    1f14:	60a3      	str	r3, [r4, #8]
    1f16:	e7c1      	b.n	1e9c <_ZNSt6vectorItSaItEE13_M_insert_auxEN9__gnu_cxx17__normal_iteratorIPtS1_EERKt+0x34>
    1f18:	1a6b      	subs	r3, r5, r1
    1f1a:	105f      	asrs	r7, r3, #1
    1f1c:	f04f 0802 	mov.w	r8, #2
    1f20:	e7ca      	b.n	1eb8 <_ZNSt6vectorItSaItEE13_M_insert_auxEN9__gnu_cxx17__normal_iteratorIPtS1_EERKt+0x50>
    1f22:	2e00      	cmp	r6, #0
    1f24:	dbc4      	blt.n	1eb0 <_ZNSt6vectorItSaItEE13_M_insert_auxEN9__gnu_cxx17__normal_iteratorIPtS1_EERKt+0x48>
    1f26:	1a68      	subs	r0, r5, r1
    1f28:	ea4f 0887 	mov.w	r8, r7, lsl #2
    1f2c:	1047      	asrs	r7, r0, #1
    1f2e:	2e00      	cmp	r6, #0
    1f30:	d0ca      	beq.n	1ec8 <_ZNSt6vectorItSaItEE13_M_insert_auxEN9__gnu_cxx17__normal_iteratorIPtS1_EERKt+0x60>
    1f32:	e7c1      	b.n	1eb8 <_ZNSt6vectorItSaItEE13_M_insert_auxEN9__gnu_cxx17__normal_iteratorIPtS1_EERKt+0x50>

00001f34 <_Z13get_checksumsSs>:
    1f34:	e92d 41f0 	stmdb	sp!, {r4, r5, r6, r7, r8, lr}
    1f38:	2201      	movs	r2, #1
    1f3a:	4606      	mov	r6, r0
    1f3c:	460d      	mov	r5, r1
    1f3e:	b084      	sub	sp, #16
    1f40:	4608      	mov	r0, r1
    1f42:	4939      	ldr	r1, [pc, #228]	; (2028 <_Z13get_checksumsSs+0xf4>)
    1f44:	f003 f94a 	bl	51dc <_ZNSs6appendEPKcj>
    1f48:	4601      	mov	r1, r0
    1f4a:	4628      	mov	r0, r5
    1f4c:	f003 f906 	bl	515c <_ZNSs6assignERKSs>
    1f50:	682b      	ldr	r3, [r5, #0]
    1f52:	2400      	movs	r4, #0
    1f54:	f853 0c0c 	ldr.w	r0, [r3, #-12]
    1f58:	6034      	str	r4, [r6, #0]
    1f5a:	2801      	cmp	r0, #1
    1f5c:	6074      	str	r4, [r6, #4]
    1f5e:	60b4      	str	r4, [r6, #8]
    1f60:	d03e      	beq.n	1fe0 <_Z13get_checksumsSs+0xac>
    1f62:	2302      	movs	r3, #2
    1f64:	4628      	mov	r0, r5
    1f66:	4931      	ldr	r1, [pc, #196]	; (202c <_Z13get_checksumsSs+0xf8>)
    1f68:	4622      	mov	r2, r4
    1f6a:	f002 ffea 	bl	4f42 <_ZNKSs13find_first_ofEPKcjj>
    1f6e:	f8df 80c4 	ldr.w	r8, [pc, #196]	; 2034 <_Z13get_checksumsSs+0x100>
    1f72:	4603      	mov	r3, r0
    1f74:	4607      	mov	r7, r0
    1f76:	e00c      	b.n	1f92 <_Z13get_checksumsSs+0x5e>
    1f78:	2302      	movs	r3, #2
    1f7a:	492c      	ldr	r1, [pc, #176]	; (202c <_Z13get_checksumsSs+0xf8>)
    1f7c:	4628      	mov	r0, r5
    1f7e:	4622      	mov	r2, r4
    1f80:	f002 ffdf 	bl	4f42 <_ZNKSs13find_first_ofEPKcjj>
    1f84:	6829      	ldr	r1, [r5, #0]
    1f86:	4607      	mov	r7, r0
    1f88:	1b03      	subs	r3, r0, r4
    1f8a:	f851 0c0c 	ldr.w	r0, [r1, #-12]
    1f8e:	4284      	cmp	r4, r0
    1f90:	d83b      	bhi.n	200a <_Z13get_checksumsSs+0xd6>
    1f92:	4622      	mov	r2, r4
    1f94:	4629      	mov	r1, r5
    1f96:	a802      	add	r0, sp, #8
    1f98:	f003 f980 	bl	529c <_ZNSsC1ERKSsjj>
    1f9c:	a902      	add	r1, sp, #8
    1f9e:	a803      	add	r0, sp, #12
    1fa0:	f003 f8f1 	bl	5186 <_ZNSsC1ERKSs>
    1fa4:	a803      	add	r0, sp, #12
    1fa6:	f7ff ff13 	bl	1dd0 <_Z12get_checksumSs>
    1faa:	6871      	ldr	r1, [r6, #4]
    1fac:	68b2      	ldr	r2, [r6, #8]
    1fae:	f8ad 0006 	strh.w	r0, [sp, #6]
    1fb2:	4291      	cmp	r1, r2
    1fb4:	d018      	beq.n	1fe8 <_Z13get_checksumsSs+0xb4>
    1fb6:	b101      	cbz	r1, 1fba <_Z13get_checksumsSs+0x86>
    1fb8:	8008      	strh	r0, [r1, #0]
    1fba:	3102      	adds	r1, #2
    1fbc:	6071      	str	r1, [r6, #4]
    1fbe:	9c03      	ldr	r4, [sp, #12]
    1fc0:	f1a4 000c 	sub.w	r0, r4, #12
    1fc4:	4540      	cmp	r0, r8
    1fc6:	d115      	bne.n	1ff4 <_Z13get_checksumsSs+0xc0>
    1fc8:	9b02      	ldr	r3, [sp, #8]
    1fca:	1c7c      	adds	r4, r7, #1
    1fcc:	f1a3 000c 	sub.w	r0, r3, #12
    1fd0:	4540      	cmp	r0, r8
    1fd2:	d11d      	bne.n	2010 <_Z13get_checksumsSs+0xdc>
    1fd4:	6828      	ldr	r0, [r5, #0]
    1fd6:	f850 3c0c 	ldr.w	r3, [r0, #-12]
    1fda:	1e5a      	subs	r2, r3, #1
    1fdc:	42a2      	cmp	r2, r4
    1fde:	d8cb      	bhi.n	1f78 <_Z13get_checksumsSs+0x44>
    1fe0:	4630      	mov	r0, r6
    1fe2:	b004      	add	sp, #16
    1fe4:	e8bd 81f0 	ldmia.w	sp!, {r4, r5, r6, r7, r8, pc}
    1fe8:	4630      	mov	r0, r6
    1fea:	f10d 0206 	add.w	r2, sp, #6
    1fee:	f7ff ff3b 	bl	1e68 <_ZNSt6vectorItSaItEE13_M_insert_auxEN9__gnu_cxx17__normal_iteratorIPtS1_EERKt>
    1ff2:	e7e4      	b.n	1fbe <_Z13get_checksumsSs+0x8a>
    1ff4:	f854 3c04 	ldr.w	r3, [r4, #-4]
    1ff8:	1e5a      	subs	r2, r3, #1
    1ffa:	2b00      	cmp	r3, #0
    1ffc:	f844 2c04 	str.w	r2, [r4, #-4]
    2000:	dce2      	bgt.n	1fc8 <_Z13get_checksumsSs+0x94>
    2002:	a901      	add	r1, sp, #4
    2004:	f003 f806 	bl	5014 <_ZNSs4_Rep10_M_destroyERKSaIcE>
    2008:	e7de      	b.n	1fc8 <_Z13get_checksumsSs+0x94>
    200a:	4809      	ldr	r0, [pc, #36]	; (2030 <_Z13get_checksumsSs+0xfc>)
    200c:	f002 ff4d 	bl	4eaa <_ZSt20__throw_out_of_rangePKc>
    2010:	f853 2c04 	ldr.w	r2, [r3, #-4]
    2014:	1e51      	subs	r1, r2, #1
    2016:	2a00      	cmp	r2, #0
    2018:	f843 1c04 	str.w	r1, [r3, #-4]
    201c:	dcda      	bgt.n	1fd4 <_Z13get_checksumsSs+0xa0>
    201e:	a901      	add	r1, sp, #4
    2020:	f002 fff8 	bl	5014 <_ZNSs4_Rep10_M_destroyERKSaIcE>
    2024:	e7d6      	b.n	1fd4 <_Z13get_checksumsSs+0xa0>
    2026:	bf00      	nop
    2028:	00008e80 	.word	0x00008e80
    202c:	00008ea0 	.word	0x00008ea0
    2030:	00008e84 	.word	0x00008e84
    2034:	10000964 	.word	0x10000964

00002038 <_ZN6Config16on_module_loadedEv>:
    2038:	4770      	bx	lr
    203a:	bf00      	nop

0000203c <_ZN6Config24on_console_line_receivedEPv>:
    203c:	4770      	bx	lr
    203e:	bf00      	nop

00002040 <_ZN6Config18config_cache_clearEv>:
    2040:	b570      	push	{r4, r5, r6, lr}
    2042:	68c2      	ldr	r2, [r0, #12]
    2044:	4605      	mov	r5, r0
    2046:	6880      	ldr	r0, [r0, #8]
    2048:	b082      	sub	sp, #8
    204a:	4290      	cmp	r0, r2
    204c:	d01a      	beq.n	2084 <_ZN6Config18config_cache_clearEv+0x44>
    204e:	4e1b      	ldr	r6, [pc, #108]	; (20bc <_ZN6Config18config_cache_clearEv+0x7c>)
    2050:	f852 4c04 	ldr.w	r4, [r2, #-4]
    2054:	b18c      	cbz	r4, 207a <_ZN6Config18config_cache_clearEv+0x3a>
    2056:	6a23      	ldr	r3, [r4, #32]
    2058:	f1a3 000c 	sub.w	r0, r3, #12
    205c:	42b0      	cmp	r0, r6
    205e:	d116      	bne.n	208e <_ZN6Config18config_cache_clearEv+0x4e>
    2060:	6860      	ldr	r0, [r4, #4]
    2062:	b108      	cbz	r0, 2068 <_ZN6Config18config_cache_clearEv+0x28>
    2064:	f002 fc2a 	bl	48bc <_ZdlPv>
    2068:	6823      	ldr	r3, [r4, #0]
    206a:	f1a3 000c 	sub.w	r0, r3, #12
    206e:	42b0      	cmp	r0, r6
    2070:	d118      	bne.n	20a4 <_ZN6Config18config_cache_clearEv+0x64>
    2072:	4620      	mov	r0, r4
    2074:	f002 fc22 	bl	48bc <_ZdlPv>
    2078:	68a8      	ldr	r0, [r5, #8]
    207a:	68eb      	ldr	r3, [r5, #12]
    207c:	1f1a      	subs	r2, r3, #4
    207e:	4282      	cmp	r2, r0
    2080:	60ea      	str	r2, [r5, #12]
    2082:	d1e5      	bne.n	2050 <_ZN6Config18config_cache_clearEv+0x10>
    2084:	2100      	movs	r1, #0
    2086:	f885 1020 	strb.w	r1, [r5, #32]
    208a:	b002      	add	sp, #8
    208c:	bd70      	pop	{r4, r5, r6, pc}
    208e:	f853 2c04 	ldr.w	r2, [r3, #-4]
    2092:	1e51      	subs	r1, r2, #1
    2094:	2a00      	cmp	r2, #0
    2096:	f843 1c04 	str.w	r1, [r3, #-4]
    209a:	dce1      	bgt.n	2060 <_ZN6Config18config_cache_clearEv+0x20>
    209c:	a901      	add	r1, sp, #4
    209e:	f002 ffb9 	bl	5014 <_ZNSs4_Rep10_M_destroyERKSaIcE>
    20a2:	e7dd      	b.n	2060 <_ZN6Config18config_cache_clearEv+0x20>
    20a4:	f853 2c04 	ldr.w	r2, [r3, #-4]
    20a8:	1e51      	subs	r1, r2, #1
    20aa:	2a00      	cmp	r2, #0
    20ac:	f843 1c04 	str.w	r1, [r3, #-4]
    20b0:	dcdf      	bgt.n	2072 <_ZN6Config18config_cache_clearEv+0x32>
    20b2:	a901      	add	r1, sp, #4
    20b4:	f002 ffae 	bl	5014 <_ZNSs4_Rep10_M_destroyERKSaIcE>
    20b8:	e7db      	b.n	2072 <_ZN6Config18config_cache_clearEv+0x32>
    20ba:	bf00      	nop
    20bc:	10000964 	.word	0x10000964

000020c0 <_ZNSt6vectorItSaItEEaSERKS1_>:
    20c0:	4281      	cmp	r1, r0
    20c2:	e92d 41f0 	stmdb	sp!, {r4, r5, r6, r7, r8, lr}
    20c6:	4604      	mov	r4, r0
    20c8:	460e      	mov	r6, r1
    20ca:	d011      	beq.n	20f0 <_ZNSt6vectorItSaItEEaSERKS1_+0x30>
    20cc:	684b      	ldr	r3, [r1, #4]
    20ce:	680f      	ldr	r7, [r1, #0]
    20d0:	6800      	ldr	r0, [r0, #0]
    20d2:	68a2      	ldr	r2, [r4, #8]
    20d4:	1bdd      	subs	r5, r3, r7
    20d6:	106d      	asrs	r5, r5, #1
    20d8:	1a11      	subs	r1, r2, r0
    20da:	ebb5 0f61 	cmp.w	r5, r1, asr #1
    20de:	d816      	bhi.n	210e <_ZNSt6vectorItSaItEEaSERKS1_+0x4e>
    20e0:	6862      	ldr	r2, [r4, #4]
    20e2:	1a11      	subs	r1, r2, r0
    20e4:	1049      	asrs	r1, r1, #1
    20e6:	428d      	cmp	r5, r1
    20e8:	d805      	bhi.n	20f6 <_ZNSt6vectorItSaItEEaSERKS1_+0x36>
    20ea:	bb65      	cbnz	r5, 2146 <_ZNSt6vectorItSaItEEaSERKS1_+0x86>
    20ec:	1945      	adds	r5, r0, r5
    20ee:	6065      	str	r5, [r4, #4]
    20f0:	4620      	mov	r0, r4
    20f2:	e8bd 81f0 	ldmia.w	sp!, {r4, r5, r6, r7, r8, pc}
    20f6:	468c      	mov	r12, r1
    20f8:	eb07 0141 	add.w	r1, r7, r1, lsl #1
    20fc:	f1bc 0f00 	cmp.w	r12, #0
    2100:	d128      	bne.n	2154 <_ZNSt6vectorItSaItEEaSERKS1_+0x94>
    2102:	1a5b      	subs	r3, r3, r1
    2104:	105b      	asrs	r3, r3, #1
    2106:	d116      	bne.n	2136 <_ZNSt6vectorItSaItEEaSERKS1_+0x76>
    2108:	eb00 0545 	add.w	r5, r0, r5, lsl #1
    210c:	e7ef      	b.n	20ee <_ZNSt6vectorItSaItEEaSERKS1_+0x2e>
    210e:	2d00      	cmp	r5, #0
    2110:	d036      	beq.n	2180 <_ZNSt6vectorItSaItEEaSERKS1_+0xc0>
    2112:	2d00      	cmp	r5, #0
    2114:	db37      	blt.n	2186 <_ZNSt6vectorItSaItEEaSERKS1_+0xc6>
    2116:	006e      	lsls	r6, r5, #1
    2118:	4630      	mov	r0, r6
    211a:	f002 fbd3 	bl	48c4 <_Znwj>
    211e:	4680      	mov	r8, r0
    2120:	bb4d      	cbnz	r5, 2176 <_ZNSt6vectorItSaItEEaSERKS1_+0xb6>
    2122:	6820      	ldr	r0, [r4, #0]
    2124:	b108      	cbz	r0, 212a <_ZNSt6vectorItSaItEEaSERKS1_+0x6a>
    2126:	f002 fbc9 	bl	48bc <_ZdlPv>
    212a:	eb08 0506 	add.w	r5, r8, r6
    212e:	f8c4 8000 	str.w	r8, [r4]
    2132:	60a5      	str	r5, [r4, #8]
    2134:	e7db      	b.n	20ee <_ZNSt6vectorItSaItEEaSERKS1_+0x2e>
    2136:	4610      	mov	r0, r2
    2138:	005a      	lsls	r2, r3, #1
    213a:	f004 fed9 	bl	6ef0 <memmove>
    213e:	6820      	ldr	r0, [r4, #0]
    2140:	eb00 0545 	add.w	r5, r0, r5, lsl #1
    2144:	e7d3      	b.n	20ee <_ZNSt6vectorItSaItEEaSERKS1_+0x2e>
    2146:	006d      	lsls	r5, r5, #1
    2148:	4639      	mov	r1, r7
    214a:	462a      	mov	r2, r5
    214c:	f004 fed0 	bl	6ef0 <memmove>
    2150:	6820      	ldr	r0, [r4, #0]
    2152:	e7cb      	b.n	20ec <_ZNSt6vectorItSaItEEaSERKS1_+0x2c>
    2154:	4639      	mov	r1, r7
    2156:	ea4f 024c 	mov.w	r2, r12, lsl #1
    215a:	f004 fec9 	bl	6ef0 <memmove>
    215e:	e894 0005 	ldmia.w	r4, {r0, r2}
    2162:	6837      	ldr	r7, [r6, #0]
    2164:	1a13      	subs	r3, r2, r0
    2166:	f023 0101 	bic.w	r1, r3, #1
    216a:	6873      	ldr	r3, [r6, #4]
    216c:	1879      	adds	r1, r7, r1
    216e:	1a5b      	subs	r3, r3, r1
    2170:	105b      	asrs	r3, r3, #1
    2172:	d0c9      	beq.n	2108 <_ZNSt6vectorItSaItEEaSERKS1_+0x48>
    2174:	e7df      	b.n	2136 <_ZNSt6vectorItSaItEEaSERKS1_+0x76>
    2176:	4639      	mov	r1, r7
    2178:	4632      	mov	r2, r6
    217a:	f004 feb9 	bl	6ef0 <memmove>
    217e:	e7d0      	b.n	2122 <_ZNSt6vectorItSaItEEaSERKS1_+0x62>
    2180:	462e      	mov	r6, r5
    2182:	46a8      	mov	r8, r5
    2184:	e7cd      	b.n	2122 <_ZNSt6vectorItSaItEEaSERKS1_+0x62>
    2186:	f002 fe87 	bl	4e98 <_ZSt17__throw_bad_allocv>
    218a:	bf00      	nop

0000218c <_ZNSt6vectorIP11ConfigValueSaIS1_EE13_M_insert_auxEN9__gnu_cxx17__normal_iteratorIPS1_S3_EERKS1_>:
    218c:	e92d 43f0 	stmdb	sp!, {r4, r5, r6, r7, r8, r9, lr}
    2190:	6843      	ldr	r3, [r0, #4]
    2192:	4604      	mov	r4, r0
    2194:	6880      	ldr	r0, [r0, #8]
    2196:	b083      	sub	sp, #12
    2198:	4283      	cmp	r3, r0
    219a:	460d      	mov	r5, r1
    219c:	d014      	beq.n	21c8 <_ZNSt6vectorIP11ConfigValueSaIS1_EE13_M_insert_auxEN9__gnu_cxx17__normal_iteratorIPS1_S3_EERKS1_+0x3c>
    219e:	b11b      	cbz	r3, 21a8 <_ZNSt6vectorIP11ConfigValueSaIS1_EE13_M_insert_auxEN9__gnu_cxx17__normal_iteratorIPS1_S3_EERKS1_+0x1c>
    21a0:	f853 0c04 	ldr.w	r0, [r3, #-4]
    21a4:	6018      	str	r0, [r3, #0]
    21a6:	6863      	ldr	r3, [r4, #4]
    21a8:	1d18      	adds	r0, r3, #4
    21aa:	1f19      	subs	r1, r3, #4
    21ac:	6060      	str	r0, [r4, #4]
    21ae:	1b48      	subs	r0, r1, r5
    21b0:	6814      	ldr	r4, [r2, #0]
    21b2:	1082      	asrs	r2, r0, #2
    21b4:	d004      	beq.n	21c0 <_ZNSt6vectorIP11ConfigValueSaIS1_EE13_M_insert_auxEN9__gnu_cxx17__normal_iteratorIPS1_S3_EERKS1_+0x34>
    21b6:	0092      	lsls	r2, r2, #2
    21b8:	1a98      	subs	r0, r3, r2
    21ba:	4629      	mov	r1, r5
    21bc:	f004 fe98 	bl	6ef0 <memmove>
    21c0:	602c      	str	r4, [r5, #0]
    21c2:	b003      	add	sp, #12
    21c4:	e8bd 83f0 	ldmia.w	sp!, {r4, r5, r6, r7, r8, r9, pc}
    21c8:	6821      	ldr	r1, [r4, #0]
    21ca:	1a5b      	subs	r3, r3, r1
    21cc:	109f      	asrs	r7, r3, #2
    21ce:	d037      	beq.n	2240 <_ZNSt6vectorIP11ConfigValueSaIS1_EE13_M_insert_auxEN9__gnu_cxx17__normal_iteratorIPS1_S3_EERKS1_+0xb4>
    21d0:	007e      	lsls	r6, r7, #1
    21d2:	42b7      	cmp	r7, r6
    21d4:	ebc1 0005 	rsb	r0, r1, r5
    21d8:	d937      	bls.n	224a <_ZNSt6vectorIP11ConfigValueSaIS1_EE13_M_insert_auxEN9__gnu_cxx17__normal_iteratorIPS1_S3_EERKS1_+0xbe>
    21da:	1087      	asrs	r7, r0, #2
    21dc:	f06f 0803 	mvn.w	r8, #3
    21e0:	4640      	mov	r0, r8
    21e2:	9201      	str	r2, [sp, #4]
    21e4:	f002 fb6e 	bl	48c4 <_Znwj>
    21e8:	9a01      	ldr	r2, [sp, #4]
    21ea:	4606      	mov	r6, r0
    21ec:	eb06 0187 	add.w	r1, r6, r7, lsl #2
    21f0:	b111      	cbz	r1, 21f8 <_ZNSt6vectorIP11ConfigValueSaIS1_EE13_M_insert_auxEN9__gnu_cxx17__normal_iteratorIPS1_S3_EERKS1_+0x6c>
    21f2:	6812      	ldr	r2, [r2, #0]
    21f4:	f846 2027 	str.w	r2, [r6, r7, lsl #2]
    21f8:	6821      	ldr	r1, [r4, #0]
    21fa:	1a6b      	subs	r3, r5, r1
    21fc:	ea5f 09a3 	movs.w	r9, r3, asr #2
    2200:	d005      	beq.n	220e <_ZNSt6vectorIP11ConfigValueSaIS1_EE13_M_insert_auxEN9__gnu_cxx17__normal_iteratorIPS1_S3_EERKS1_+0x82>
    2202:	ea4f 0989 	mov.w	r9, r9, lsl #2
    2206:	4630      	mov	r0, r6
    2208:	464a      	mov	r2, r9
    220a:	f004 fe71 	bl	6ef0 <memmove>
    220e:	6860      	ldr	r0, [r4, #4]
    2210:	eb06 0709 	add.w	r7, r6, r9
    2214:	1b41      	subs	r1, r0, r5
    2216:	f107 0904 	add.w	r9, r7, #4
    221a:	108f      	asrs	r7, r1, #2
    221c:	d005      	beq.n	222a <_ZNSt6vectorIP11ConfigValueSaIS1_EE13_M_insert_auxEN9__gnu_cxx17__normal_iteratorIPS1_S3_EERKS1_+0x9e>
    221e:	00bf      	lsls	r7, r7, #2
    2220:	4648      	mov	r0, r9
    2222:	4629      	mov	r1, r5
    2224:	463a      	mov	r2, r7
    2226:	f004 fe63 	bl	6ef0 <memmove>
    222a:	6820      	ldr	r0, [r4, #0]
    222c:	444f      	add	r7, r9
    222e:	b108      	cbz	r0, 2234 <_ZNSt6vectorIP11ConfigValueSaIS1_EE13_M_insert_auxEN9__gnu_cxx17__normal_iteratorIPS1_S3_EERKS1_+0xa8>
    2230:	f002 fb44 	bl	48bc <_ZdlPv>
    2234:	eb06 0208 	add.w	r2, r6, r8
    2238:	e884 00c0 	stmia.w	r4, {r6, r7}
    223c:	60a2      	str	r2, [r4, #8]
    223e:	e7c0      	b.n	21c2 <_ZNSt6vectorIP11ConfigValueSaIS1_EE13_M_insert_auxEN9__gnu_cxx17__normal_iteratorIPS1_S3_EERKS1_+0x36>
    2240:	1a6e      	subs	r6, r5, r1
    2242:	10b7      	asrs	r7, r6, #2
    2244:	f04f 0804 	mov.w	r8, #4
    2248:	e7ca      	b.n	21e0 <_ZNSt6vectorIP11ConfigValueSaIS1_EE13_M_insert_auxEN9__gnu_cxx17__normal_iteratorIPS1_S3_EERKS1_+0x54>
    224a:	f1b6 4f80 	cmp.w	r6, #1073741824	; 0x40000000
    224e:	d2c4      	bcs.n	21da <_ZNSt6vectorIP11ConfigValueSaIS1_EE13_M_insert_auxEN9__gnu_cxx17__normal_iteratorIPS1_S3_EERKS1_+0x4e>
    2250:	ea4f 08c7 	mov.w	r8, r7, lsl #3
    2254:	1087      	asrs	r7, r0, #2
    2256:	2e00      	cmp	r6, #0
    2258:	d0c8      	beq.n	21ec <_ZNSt6vectorIP11ConfigValueSaIS1_EE13_M_insert_auxEN9__gnu_cxx17__normal_iteratorIPS1_S3_EERKS1_+0x60>
    225a:	e7c1      	b.n	21e0 <_ZNSt6vectorIP11ConfigValueSaIS1_EE13_M_insert_auxEN9__gnu_cxx17__normal_iteratorIPS1_S3_EERKS1_+0x54>

0000225c <_ZN6Config17config_cache_loadEv>:
    225c:	b570      	push	{r4, r5, r6, lr}
    225e:	b082      	sub	sp, #8
    2260:	4605      	mov	r5, r0
    2262:	f7ff feed 	bl	2040 <_ZN6Config18config_cache_clearEv>
    2266:	2028      	movs	r0, #40	; 0x28
    2268:	f002 fb2c 	bl	48c4 <_Znwj>
    226c:	68e9      	ldr	r1, [r5, #12]
    226e:	692c      	ldr	r4, [r5, #16]
    2270:	4a18      	ldr	r2, [pc, #96]	; (22d4 <_ZN6Config17config_cache_loadEv+0x78>)
    2272:	2300      	movs	r3, #0
    2274:	42a1      	cmp	r1, r4
    2276:	e880 000c 	stmia.w	r0, {r2, r3}
    227a:	6083      	str	r3, [r0, #8]
    227c:	60c3      	str	r3, [r0, #12]
    227e:	6202      	str	r2, [r0, #32]
    2280:	7483      	strb	r3, [r0, #18]
    2282:	74c3      	strb	r3, [r0, #19]
    2284:	9001      	str	r0, [sp, #4]
    2286:	d01e      	beq.n	22c6 <_ZN6Config17config_cache_loadEv+0x6a>
    2288:	b109      	cbz	r1, 228e <_ZN6Config17config_cache_loadEv+0x32>
    228a:	6008      	str	r0, [r1, #0]
    228c:	68e9      	ldr	r1, [r5, #12]
    228e:	3104      	adds	r1, #4
    2290:	60e9      	str	r1, [r5, #12]
    2292:	69aa      	ldr	r2, [r5, #24]
    2294:	6969      	ldr	r1, [r5, #20]
    2296:	1a50      	subs	r0, r2, r1
    2298:	0882      	lsrs	r2, r0, #2
    229a:	d00f      	beq.n	22bc <_ZN6Config17config_cache_loadEv+0x60>
    229c:	2400      	movs	r4, #0
    229e:	f105 0608 	add.w	r6, r5, #8
    22a2:	f851 0024 	ldr.w	r0, [r1, r4, lsl #2]
    22a6:	4631      	mov	r1, r6
    22a8:	6803      	ldr	r3, [r0, #0]
    22aa:	3401      	adds	r4, #1
    22ac:	681a      	ldr	r2, [r3, #0]
    22ae:	4790      	blx	r2
    22b0:	6969      	ldr	r1, [r5, #20]
    22b2:	69a8      	ldr	r0, [r5, #24]
    22b4:	1a43      	subs	r3, r0, r1
    22b6:	ebb4 0fa3 	cmp.w	r4, r3, asr #2
    22ba:	d3f2      	bcc.n	22a2 <_ZN6Config17config_cache_loadEv+0x46>
    22bc:	2201      	movs	r2, #1
    22be:	f885 2020 	strb.w	r2, [r5, #32]
    22c2:	b002      	add	sp, #8
    22c4:	bd70      	pop	{r4, r5, r6, pc}
    22c6:	f105 0008 	add.w	r0, r5, #8
    22ca:	aa01      	add	r2, sp, #4
    22cc:	f7ff ff5e 	bl	218c <_ZNSt6vectorIP11ConfigValueSaIS1_EE13_M_insert_auxEN9__gnu_cxx17__normal_iteratorIPS1_S3_EERKS1_>
    22d0:	e7df      	b.n	2292 <_ZN6Config17config_cache_loadEv+0x36>
    22d2:	bf00      	nop
    22d4:	10000970 	.word	0x10000970

000022d8 <_ZNSt6vectorIP12ConfigSourceSaIS1_EE13_M_insert_auxEN9__gnu_cxx17__normal_iteratorIPS1_S3_EERKS1_>:
    22d8:	e92d 43f0 	stmdb	sp!, {r4, r5, r6, r7, r8, r9, lr}
    22dc:	6843      	ldr	r3, [r0, #4]
    22de:	4604      	mov	r4, r0
    22e0:	6880      	ldr	r0, [r0, #8]
    22e2:	b083      	sub	sp, #12
    22e4:	4283      	cmp	r3, r0
    22e6:	460d      	mov	r5, r1
    22e8:	d014      	beq.n	2314 <_ZNSt6vectorIP12ConfigSourceSaIS1_EE13_M_insert_auxEN9__gnu_cxx17__normal_iteratorIPS1_S3_EERKS1_+0x3c>
    22ea:	b11b      	cbz	r3, 22f4 <_ZNSt6vectorIP12ConfigSourceSaIS1_EE13_M_insert_auxEN9__gnu_cxx17__normal_iteratorIPS1_S3_EERKS1_+0x1c>
    22ec:	f853 0c04 	ldr.w	r0, [r3, #-4]
    22f0:	6018      	str	r0, [r3, #0]
    22f2:	6863      	ldr	r3, [r4, #4]
    22f4:	1d18      	adds	r0, r3, #4
    22f6:	1f19      	subs	r1, r3, #4
    22f8:	6060      	str	r0, [r4, #4]
    22fa:	1b48      	subs	r0, r1, r5
    22fc:	6814      	ldr	r4, [r2, #0]
    22fe:	1082      	asrs	r2, r0, #2
    2300:	d004      	beq.n	230c <_ZNSt6vectorIP12ConfigSourceSaIS1_EE13_M_insert_auxEN9__gnu_cxx17__normal_iteratorIPS1_S3_EERKS1_+0x34>
    2302:	0092      	lsls	r2, r2, #2
    2304:	1a98      	subs	r0, r3, r2
    2306:	4629      	mov	r1, r5
    2308:	f004 fdf2 	bl	6ef0 <memmove>
    230c:	602c      	str	r4, [r5, #0]
    230e:	b003      	add	sp, #12
    2310:	e8bd 83f0 	ldmia.w	sp!, {r4, r5, r6, r7, r8, r9, pc}
    2314:	6821      	ldr	r1, [r4, #0]
    2316:	1a5b      	subs	r3, r3, r1
    2318:	109f      	asrs	r7, r3, #2
    231a:	d037      	beq.n	238c <_ZNSt6vectorIP12ConfigSourceSaIS1_EE13_M_insert_auxEN9__gnu_cxx17__normal_iteratorIPS1_S3_EERKS1_+0xb4>
    231c:	007e      	lsls	r6, r7, #1
    231e:	42b7      	cmp	r7, r6
    2320:	ebc1 0005 	rsb	r0, r1, r5
    2324:	d937      	bls.n	2396 <_ZNSt6vectorIP12ConfigSourceSaIS1_EE13_M_insert_auxEN9__gnu_cxx17__normal_iteratorIPS1_S3_EERKS1_+0xbe>
    2326:	1087      	asrs	r7, r0, #2
    2328:	f06f 0803 	mvn.w	r8, #3
    232c:	4640      	mov	r0, r8
    232e:	9201      	str	r2, [sp, #4]
    2330:	f002 fac8 	bl	48c4 <_Znwj>
    2334:	9a01      	ldr	r2, [sp, #4]
    2336:	4606      	mov	r6, r0
    2338:	eb06 0187 	add.w	r1, r6, r7, lsl #2
    233c:	b111      	cbz	r1, 2344 <_ZNSt6vectorIP12ConfigSourceSaIS1_EE13_M_insert_auxEN9__gnu_cxx17__normal_iteratorIPS1_S3_EERKS1_+0x6c>
    233e:	6812      	ldr	r2, [r2, #0]
    2340:	f846 2027 	str.w	r2, [r6, r7, lsl #2]
    2344:	6821      	ldr	r1, [r4, #0]
    2346:	1a6b      	subs	r3, r5, r1
    2348:	ea5f 09a3 	movs.w	r9, r3, asr #2
    234c:	d005      	beq.n	235a <_ZNSt6vectorIP12ConfigSourceSaIS1_EE13_M_insert_auxEN9__gnu_cxx17__normal_iteratorIPS1_S3_EERKS1_+0x82>
    234e:	ea4f 0989 	mov.w	r9, r9, lsl #2
    2352:	4630      	mov	r0, r6
    2354:	464a      	mov	r2, r9
    2356:	f004 fdcb 	bl	6ef0 <memmove>
    235a:	6860      	ldr	r0, [r4, #4]
    235c:	eb06 0709 	add.w	r7, r6, r9
    2360:	1b41      	subs	r1, r0, r5
    2362:	f107 0904 	add.w	r9, r7, #4
    2366:	108f      	asrs	r7, r1, #2
    2368:	d005      	beq.n	2376 <_ZNSt6vectorIP12ConfigSourceSaIS1_EE13_M_insert_auxEN9__gnu_cxx17__normal_iteratorIPS1_S3_EERKS1_+0x9e>
    236a:	00bf      	lsls	r7, r7, #2
    236c:	4648      	mov	r0, r9
    236e:	4629      	mov	r1, r5
    2370:	463a      	mov	r2, r7
    2372:	f004 fdbd 	bl	6ef0 <memmove>
    2376:	6820      	ldr	r0, [r4, #0]
    2378:	444f      	add	r7, r9
    237a:	b108      	cbz	r0, 2380 <_ZNSt6vectorIP12ConfigSourceSaIS1_EE13_M_insert_auxEN9__gnu_cxx17__normal_iteratorIPS1_S3_EERKS1_+0xa8>
    237c:	f002 fa9e 	bl	48bc <_ZdlPv>
    2380:	eb06 0208 	add.w	r2, r6, r8
    2384:	e884 00c0 	stmia.w	r4, {r6, r7}
    2388:	60a2      	str	r2, [r4, #8]
    238a:	e7c0      	b.n	230e <_ZNSt6vectorIP12ConfigSourceSaIS1_EE13_M_insert_auxEN9__gnu_cxx17__normal_iteratorIPS1_S3_EERKS1_+0x36>
    238c:	1a6e      	subs	r6, r5, r1
    238e:	10b7      	asrs	r7, r6, #2
    2390:	f04f 0804 	mov.w	r8, #4
    2394:	e7ca      	b.n	232c <_ZNSt6vectorIP12ConfigSourceSaIS1_EE13_M_insert_auxEN9__gnu_cxx17__normal_iteratorIPS1_S3_EERKS1_+0x54>
    2396:	f1b6 4f80 	cmp.w	r6, #1073741824	; 0x40000000
    239a:	d2c4      	bcs.n	2326 <_ZNSt6vectorIP12ConfigSourceSaIS1_EE13_M_insert_auxEN9__gnu_cxx17__normal_iteratorIPS1_S3_EERKS1_+0x4e>
    239c:	ea4f 08c7 	mov.w	r8, r7, lsl #3
    23a0:	1087      	asrs	r7, r0, #2
    23a2:	2e00      	cmp	r6, #0
    23a4:	d0c8      	beq.n	2338 <_ZNSt6vectorIP12ConfigSourceSaIS1_EE13_M_insert_auxEN9__gnu_cxx17__normal_iteratorIPS1_S3_EERKS1_+0x60>
    23a6:	e7c1      	b.n	232c <_ZNSt6vectorIP12ConfigSourceSaIS1_EE13_M_insert_auxEN9__gnu_cxx17__normal_iteratorIPS1_S3_EERKS1_+0x54>

000023a8 <_ZN6ConfigC1Ev>:
    23a8:	b530      	push	{r4, r5, lr}
    23aa:	b085      	sub	sp, #20
    23ac:	4604      	mov	r4, r0
    23ae:	f7ff fd09 	bl	1dc4 <_ZN6ModuleC1Ev>
    23b2:	4820      	ldr	r0, [pc, #128]	; (2434 <_ZN6ConfigC1Ev+0x8c>)
    23b4:	2300      	movs	r3, #0
    23b6:	466a      	mov	r2, sp
    23b8:	491f      	ldr	r1, [pc, #124]	; (2438 <_ZN6ConfigC1Ev+0x90>)
    23ba:	60a3      	str	r3, [r4, #8]
    23bc:	60e3      	str	r3, [r4, #12]
    23be:	6123      	str	r3, [r4, #16]
    23c0:	6163      	str	r3, [r4, #20]
    23c2:	61a3      	str	r3, [r4, #24]
    23c4:	61e3      	str	r3, [r4, #28]
    23c6:	f884 3020 	strb.w	r3, [r4, #32]
    23ca:	6020      	str	r0, [r4, #0]
    23cc:	a803      	add	r0, sp, #12
    23ce:	f002 ffa7 	bl	5320 <_ZNSsC1EPKcRKSaIcE>
    23d2:	2010      	movs	r0, #16
    23d4:	f002 fa76 	bl	48c4 <_Znwj>
    23d8:	a903      	add	r1, sp, #12
    23da:	f243 520d 	movw	r2, #13581	; 0x350d
    23de:	4605      	mov	r5, r0
    23e0:	f000 fbcc 	bl	2b7c <_ZN16FileConfigSourceC1ESst>
    23e4:	69a1      	ldr	r1, [r4, #24]
    23e6:	69e2      	ldr	r2, [r4, #28]
    23e8:	9502      	str	r5, [sp, #8]
    23ea:	4291      	cmp	r1, r2
    23ec:	d010      	beq.n	2410 <_ZN6ConfigC1Ev+0x68>
    23ee:	b109      	cbz	r1, 23f4 <_ZN6ConfigC1Ev+0x4c>
    23f0:	600d      	str	r5, [r1, #0]
    23f2:	69a1      	ldr	r1, [r4, #24]
    23f4:	3104      	adds	r1, #4
    23f6:	61a1      	str	r1, [r4, #24]
    23f8:	9b03      	ldr	r3, [sp, #12]
    23fa:	4a10      	ldr	r2, [pc, #64]	; (243c <_ZN6ConfigC1Ev+0x94>)
    23fc:	f1a3 000c 	sub.w	r0, r3, #12
    2400:	4290      	cmp	r0, r2
    2402:	d10b      	bne.n	241c <_ZN6ConfigC1Ev+0x74>
    2404:	4620      	mov	r0, r4
    2406:	f7ff ff29 	bl	225c <_ZN6Config17config_cache_loadEv>
    240a:	4620      	mov	r0, r4
    240c:	b005      	add	sp, #20
    240e:	bd30      	pop	{r4, r5, pc}
    2410:	f104 0014 	add.w	r0, r4, #20
    2414:	aa02      	add	r2, sp, #8
    2416:	f7ff ff5f 	bl	22d8 <_ZNSt6vectorIP12ConfigSourceSaIS1_EE13_M_insert_auxEN9__gnu_cxx17__normal_iteratorIPS1_S3_EERKS1_>
    241a:	e7ed      	b.n	23f8 <_ZN6ConfigC1Ev+0x50>
    241c:	f853 2c04 	ldr.w	r2, [r3, #-4]
    2420:	1e51      	subs	r1, r2, #1
    2422:	2a00      	cmp	r2, #0
    2424:	f843 1c04 	str.w	r1, [r3, #-4]
    2428:	dcec      	bgt.n	2404 <_ZN6ConfigC1Ev+0x5c>
    242a:	a901      	add	r1, sp, #4
    242c:	f002 fdf2 	bl	5014 <_ZNSs4_Rep10_M_destroyERKSaIcE>
    2430:	e7e8      	b.n	2404 <_ZN6ConfigC1Ev+0x5c>
    2432:	bf00      	nop
    2434:	00008ec0 	.word	0x00008ec0
    2438:	00008f10 	.word	0x00008f10
    243c:	10000964 	.word	0x10000964

00002440 <_ZN3AjK9MODSERIAL6__getcEb>:
    2440:	6fc3      	ldr	r3, [r0, #124]	; 0x7c
    2442:	b570      	push	{r4, r5, r6, lr}
    2444:	4604      	mov	r4, r0
    2446:	2b00      	cmp	r3, #0
    2448:	d02b      	beq.n	24a2 <_ZN3AjK9MODSERIAL6__getcEb+0x62>
    244a:	6e42      	ldr	r2, [r0, #100]	; 0x64
    244c:	2a00      	cmp	r2, #0
    244e:	d028      	beq.n	24a2 <_ZN3AjK9MODSERIAL6__getcEb+0x62>
    2450:	2900      	cmp	r1, #0
    2452:	d12e      	bne.n	24b2 <_ZN3AjK9MODSERIAL6__getcEb+0x72>
    2454:	f8d4 0084 	ldr.w	r0, [r4, #132]	; 0x84
    2458:	2800      	cmp	r0, #0
    245a:	d033      	beq.n	24c4 <_ZN3AjK9MODSERIAL6__getcEb+0x84>
    245c:	6f65      	ldr	r5, [r4, #116]	; 0x74
    245e:	5d55      	ldrb	r5, [r2, r5]
    2460:	6f63      	ldr	r3, [r4, #116]	; 0x74
    2462:	1c5a      	adds	r2, r3, #1
    2464:	6762      	str	r2, [r4, #116]	; 0x74
    2466:	6f60      	ldr	r0, [r4, #116]	; 0x74
    2468:	6fe1      	ldr	r1, [r4, #124]	; 0x7c
    246a:	4288      	cmp	r0, r1
    246c:	db01      	blt.n	2472 <_ZN3AjK9MODSERIAL6__getcEb+0x32>
    246e:	2300      	movs	r3, #0
    2470:	6763      	str	r3, [r4, #116]	; 0x74
    2472:	f8d4 2084 	ldr.w	r2, [r4, #132]	; 0x84
    2476:	6fe0      	ldr	r0, [r4, #124]	; 0x7c
    2478:	4282      	cmp	r2, r0
    247a:	d009      	beq.n	2490 <_ZN3AjK9MODSERIAL6__getcEb+0x50>
    247c:	6de1      	ldr	r1, [r4, #92]	; 0x5c
    247e:	4620      	mov	r0, r4
    2480:	790e      	ldrb	r6, [r1, #4]
    2482:	f026 0301 	bic.w	r3, r6, #1
    2486:	710b      	strb	r3, [r1, #4]
    2488:	f000 f8cc 	bl	2624 <_ZN3AjK9MODSERIAL6isr_rxEv>
    248c:	6de2      	ldr	r2, [r4, #92]	; 0x5c
    248e:	7116      	strb	r6, [r2, #4]
    2490:	b672      	cpsid	i
    2492:	f8d4 0084 	ldr.w	r0, [r4, #132]	; 0x84
    2496:	1e41      	subs	r1, r0, #1
    2498:	f8c4 1084 	str.w	r1, [r4, #132]	; 0x84
    249c:	b662      	cpsie	i
    249e:	4628      	mov	r0, r5
    24a0:	bd70      	pop	{r4, r5, r6, pc}
    24a2:	6de5      	ldr	r5, [r4, #92]	; 0x5c
    24a4:	7d2b      	ldrb	r3, [r5, #20]
    24a6:	07da      	lsls	r2, r3, #31
    24a8:	d502      	bpl.n	24b0 <_ZN3AjK9MODSERIAL6__getcEb+0x70>
    24aa:	782d      	ldrb	r5, [r5, #0]
    24ac:	4628      	mov	r0, r5
    24ae:	bd70      	pop	{r4, r5, r6, pc}
    24b0:	e7fe      	b.n	24b0 <_ZN3AjK9MODSERIAL6__getcEb+0x70>
    24b2:	f8d4 1084 	ldr.w	r1, [r4, #132]	; 0x84
    24b6:	2900      	cmp	r1, #0
    24b8:	d1d0      	bne.n	245c <_ZN3AjK9MODSERIAL6__getcEb+0x1c>
    24ba:	f8d4 1084 	ldr.w	r1, [r4, #132]	; 0x84
    24be:	2900      	cmp	r1, #0
    24c0:	d0f7      	beq.n	24b2 <_ZN3AjK9MODSERIAL6__getcEb+0x72>
    24c2:	e7cb      	b.n	245c <_ZN3AjK9MODSERIAL6__getcEb+0x1c>
    24c4:	f04f 35ff 	mov.w	r5, #4294967295	; 0xffffffff
    24c8:	e7f0      	b.n	24ac <_ZN3AjK9MODSERIAL6__getcEb+0x6c>
    24ca:	bf00      	nop

000024cc <_ZN4mbed15FunctionPointer12membercallerIN3AjK9MODSERIALEEEvPvPc>:
    24cc:	b500      	push	{lr}
    24ce:	460b      	mov	r3, r1
    24d0:	b083      	sub	sp, #12
    24d2:	6849      	ldr	r1, [r1, #4]
    24d4:	4602      	mov	r2, r0
    24d6:	6818      	ldr	r0, [r3, #0]
    24d8:	466b      	mov	r3, sp
    24da:	c303      	stmia	r3!, {r0, r1}
    24dc:	460b      	mov	r3, r1
    24de:	07d9      	lsls	r1, r3, #31
    24e0:	d507      	bpl.n	24f2 <_ZN4mbed15FunctionPointer12membercallerIN3AjK9MODSERIALEEEvPvPc+0x26>
    24e2:	1058      	asrs	r0, r3, #1
    24e4:	5811      	ldr	r1, [r2, r0]
    24e6:	1810      	adds	r0, r2, r0
    24e8:	9a00      	ldr	r2, [sp, #0]
    24ea:	5889      	ldr	r1, [r1, r2]
    24ec:	4788      	blx	r1
    24ee:	b003      	add	sp, #12
    24f0:	bd00      	pop	{pc}
    24f2:	4601      	mov	r1, r0
    24f4:	eb02 0063 	add.w	r0, r2, r3, asr #1
    24f8:	e7f8      	b.n	24ec <_ZN4mbed15FunctionPointer12membercallerIN3AjK9MODSERIALEEEvPvPc+0x20>
    24fa:	bf00      	nop

000024fc <_ZN3AjK9MODSERIAL6isr_txEv>:
    24fc:	2101      	movs	r1, #1
    24fe:	f000 b937 	b.w	2770 <_ZN3AjK9MODSERIAL6isr_txEb>
    2502:	bf00      	nop

00002504 <_ZN3AjK9MODSERIAL4initEii7PinName>:
    2504:	b570      	push	{r4, r5, r6, lr}
    2506:	4604      	mov	r4, r0
    2508:	460d      	mov	r5, r1
    250a:	4616      	mov	r6, r2
    250c:	f000 fa14 	bl	2938 <_ZN3AjK9MODSERIAL10disableIrqEv>
    2510:	69e3      	ldr	r3, [r4, #28]
    2512:	65a4      	str	r4, [r4, #88]	; 0x58
    2514:	2b03      	cmp	r3, #3
    2516:	d865      	bhi.n	25e4 <_ZN3AjK9MODSERIAL4initEii7PinName+0xe0>
    2518:	e8df f003 	tbb	[pc, r3]
    251c:	0253595e 	.word	0x0253595e
    2520:	f44f 4040 	mov.w	r0, #49152	; 0xc000
    2524:	f2c4 0009 	movt	r0, #16393	; 0x4009
    2528:	65e0      	str	r0, [r4, #92]	; 0x5c
    252a:	2000      	movs	r0, #0
    252c:	f04f 31ff 	mov.w	r1, #4294967295	; 0xffffffff
    2530:	4286      	cmp	r6, r0
    2532:	f8c4 10f8 	str.w	r1, [r4, #248]	; 0xf8
    2536:	f8c4 00fc 	str.w	r0, [r4, #252]	; 0xfc
    253a:	67e6      	str	r6, [r4, #124]	; 0x7c
    253c:	dd02      	ble.n	2544 <_ZN3AjK9MODSERIAL4initEii7PinName+0x40>
    253e:	6fe0      	ldr	r0, [r4, #124]	; 0x7c
    2540:	f004 fc56 	bl	6df0 <malloc>
    2544:	2100      	movs	r1, #0
    2546:	66e1      	str	r1, [r4, #108]	; 0x6c
    2548:	6660      	str	r0, [r4, #100]	; 0x64
    254a:	6761      	str	r1, [r4, #116]	; 0x74
    254c:	f8c4 1084 	str.w	r1, [r4, #132]	; 0x84
    2550:	f8c4 108c 	str.w	r1, [r4, #140]	; 0x8c
    2554:	b15c      	cbz	r4, 256e <_ZN3AjK9MODSERIAL4initEii7PinName+0x6a>
    2556:	482e      	ldr	r0, [pc, #184]	; (2610 <_ZN3AjK9MODSERIAL4initEii7PinName+0x10c>)
    2558:	4a2e      	ldr	r2, [pc, #184]	; (2614 <_ZN3AjK9MODSERIAL4initEii7PinName+0x110>)
    255a:	62a0      	str	r0, [r4, #40]	; 0x28
    255c:	63a2      	str	r2, [r4, #56]	; 0x38
    255e:	6264      	str	r4, [r4, #36]	; 0x24
    2560:	62e1      	str	r1, [r4, #44]	; 0x2c
    2562:	6221      	str	r1, [r4, #32]
    2564:	f104 0018 	add.w	r0, r4, #24
    2568:	2201      	movs	r2, #1
    256a:	f001 fb01 	bl	3b70 <serial_irq_set>
    256e:	2d00      	cmp	r5, #0
    2570:	f8c4 5080 	str.w	r5, [r4, #128]	; 0x80
    2574:	dd49      	ble.n	260a <_ZN3AjK9MODSERIAL4initEii7PinName+0x106>
    2576:	f8d4 0080 	ldr.w	r0, [r4, #128]	; 0x80
    257a:	f004 fc39 	bl	6df0 <malloc>
    257e:	4a26      	ldr	r2, [pc, #152]	; (2618 <_ZN3AjK9MODSERIAL4initEii7PinName+0x114>)
    2580:	2300      	movs	r3, #0
    2582:	6723      	str	r3, [r4, #112]	; 0x70
    2584:	66a0      	str	r0, [r4, #104]	; 0x68
    2586:	67a3      	str	r3, [r4, #120]	; 0x78
    2588:	f8c4 3088 	str.w	r3, [r4, #136]	; 0x88
    258c:	f8c4 3090 	str.w	r3, [r4, #144]	; 0x90
    2590:	b162      	cbz	r2, 25ac <_ZN3AjK9MODSERIAL4initEii7PinName+0xa8>
    2592:	b15c      	cbz	r4, 25ac <_ZN3AjK9MODSERIAL4initEii7PinName+0xa8>
    2594:	481f      	ldr	r0, [pc, #124]	; (2614 <_ZN3AjK9MODSERIAL4initEii7PinName+0x110>)
    2596:	2101      	movs	r1, #1
    2598:	6462      	str	r2, [r4, #68]	; 0x44
    259a:	6560      	str	r0, [r4, #84]	; 0x54
    259c:	6424      	str	r4, [r4, #64]	; 0x40
    259e:	64a3      	str	r3, [r4, #72]	; 0x48
    25a0:	63e3      	str	r3, [r4, #60]	; 0x3c
    25a2:	f104 0018 	add.w	r0, r4, #24
    25a6:	460a      	mov	r2, r1
    25a8:	f001 fae2 	bl	3b70 <serial_irq_set>
    25ac:	6de1      	ldr	r1, [r4, #92]	; 0x5c
    25ae:	2207      	movs	r2, #7
    25b0:	2300      	movs	r3, #0
    25b2:	4620      	mov	r0, r4
    25b4:	720a      	strb	r2, [r1, #8]
    25b6:	f884 3094 	strb.w	r3, [r4, #148]	; 0x94
    25ba:	e8bd 4070 	ldmia.w	sp!, {r4, r5, r6, lr}
    25be:	f000 ba15 	b.w	29ec <_ZN3AjK9MODSERIAL9enableIrqEv>
    25c2:	f44f 4100 	mov.w	r1, #32768	; 0x8000
    25c6:	f2c4 0109 	movt	r1, #16393	; 0x4009
    25ca:	65e1      	str	r1, [r4, #92]	; 0x5c
    25cc:	e7ad      	b.n	252a <_ZN3AjK9MODSERIAL4initEii7PinName+0x26>
    25ce:	2200      	movs	r2, #0
    25d0:	f2c4 0201 	movt	r2, #16385	; 0x4001
    25d4:	65e2      	str	r2, [r4, #92]	; 0x5c
    25d6:	e7a8      	b.n	252a <_ZN3AjK9MODSERIAL4initEii7PinName+0x26>
    25d8:	f44f 4340 	mov.w	r3, #49152	; 0xc000
    25dc:	f2c4 0300 	movt	r3, #16384	; 0x4000
    25e0:	65e3      	str	r3, [r4, #92]	; 0x5c
    25e2:	e7a2      	b.n	252a <_ZN3AjK9MODSERIAL4initEii7PinName+0x26>
    25e4:	4d0d      	ldr	r5, [pc, #52]	; (261c <_ZN3AjK9MODSERIAL4initEii7PinName+0x118>)
    25e6:	2600      	movs	r6, #0
    25e8:	682b      	ldr	r3, [r5, #0]
    25ea:	f04f 30ff 	mov.w	r0, #4294967295	; 0xffffffff
    25ee:	f8c4 00f8 	str.w	r0, [r4, #248]	; 0xf8
    25f2:	65e6      	str	r6, [r4, #92]	; 0x5c
    25f4:	f8c4 60fc 	str.w	r6, [r4, #252]	; 0xfc
    25f8:	4809      	ldr	r0, [pc, #36]	; (2620 <_ZN3AjK9MODSERIAL4initEii7PinName+0x11c>)
    25fa:	2101      	movs	r1, #1
    25fc:	222f      	movs	r2, #47	; 0x2f
    25fe:	68db      	ldr	r3, [r3, #12]
    2600:	f004 fb6c 	bl	6cdc <fwrite>
    2604:	2001      	movs	r0, #1
    2606:	f001 fb25 	bl	3c54 <exit>
    260a:	2000      	movs	r0, #0
    260c:	e7b7      	b.n	257e <_ZN3AjK9MODSERIAL4initEii7PinName+0x7a>
    260e:	bf00      	nop
    2610:	00002625 	.word	0x00002625
    2614:	000024cd 	.word	0x000024cd
    2618:	000024fd 	.word	0x000024fd
    261c:	10000134 	.word	0x10000134
    2620:	00008f20 	.word	0x00008f20

00002624 <_ZN3AjK9MODSERIAL6isr_rxEv>:
    2624:	6dc3      	ldr	r3, [r0, #92]	; 0x5c
    2626:	b570      	push	{r4, r5, r6, lr}
    2628:	4604      	mov	r4, r0
    262a:	2b00      	cmp	r3, #0
    262c:	d050      	beq.n	26d0 <_ZN3AjK9MODSERIAL6isr_rxEv+0xac>
    262e:	6fc2      	ldr	r2, [r0, #124]	; 0x7c
    2630:	2a00      	cmp	r2, #0
    2632:	d04d      	beq.n	26d0 <_ZN3AjK9MODSERIAL6isr_rxEv+0xac>
    2634:	6e40      	ldr	r0, [r0, #100]	; 0x64
    2636:	2800      	cmp	r0, #0
    2638:	d04a      	beq.n	26d0 <_ZN3AjK9MODSERIAL6isr_rxEv+0xac>
    263a:	f104 0558 	add.w	r5, r4, #88	; 0x58
    263e:	2600      	movs	r6, #0
    2640:	e008      	b.n	2654 <_ZN3AjK9MODSERIAL6isr_rxEv+0x30>
    2642:	4628      	mov	r0, r5
    2644:	4788      	blx	r1
    2646:	f894 2094 	ldrb.w	r2, [r4, #148]	; 0x94
    264a:	f894 0061 	ldrb.w	r0, [r4, #97]	; 0x61
    264e:	4282      	cmp	r2, r0
    2650:	d038      	beq.n	26c4 <_ZN3AjK9MODSERIAL6isr_rxEv+0xa0>
    2652:	6de3      	ldr	r3, [r4, #92]	; 0x5c
    2654:	7d19      	ldrb	r1, [r3, #20]
    2656:	07ca      	lsls	r2, r1, #31
    2658:	d56b      	bpl.n	2732 <_ZN3AjK9MODSERIAL6isr_rxEv+0x10e>
    265a:	781b      	ldrb	r3, [r3, #0]
    265c:	f884 3061 	strb.w	r3, [r4, #97]	; 0x61
    2660:	f8d4 2084 	ldr.w	r2, [r4, #132]	; 0x84
    2664:	6fe0      	ldr	r0, [r4, #124]	; 0x7c
    2666:	4282      	cmp	r2, r0
    2668:	d03b      	beq.n	26e2 <_ZN3AjK9MODSERIAL6isr_rxEv+0xbe>
    266a:	6e63      	ldr	r3, [r4, #100]	; 0x64
    266c:	b183      	cbz	r3, 2690 <_ZN3AjK9MODSERIAL6isr_rxEv+0x6c>
    266e:	6ee2      	ldr	r2, [r4, #108]	; 0x6c
    2670:	f894 1061 	ldrb.w	r1, [r4, #97]	; 0x61
    2674:	5499      	strb	r1, [r3, r2]
    2676:	f8d4 0084 	ldr.w	r0, [r4, #132]	; 0x84
    267a:	1c43      	adds	r3, r0, #1
    267c:	f8c4 3084 	str.w	r3, [r4, #132]	; 0x84
    2680:	6ee2      	ldr	r2, [r4, #108]	; 0x6c
    2682:	1c51      	adds	r1, r2, #1
    2684:	66e1      	str	r1, [r4, #108]	; 0x6c
    2686:	6ee0      	ldr	r0, [r4, #108]	; 0x6c
    2688:	6fe3      	ldr	r3, [r4, #124]	; 0x7c
    268a:	4298      	cmp	r0, r3
    268c:	bfa8      	it	ge
    268e:	66e6      	strge	r6, [r4, #108]	; 0x6c
    2690:	f8d4 1098 	ldr.w	r1, [r4, #152]	; 0x98
    2694:	2900      	cmp	r1, #0
    2696:	d1d4      	bne.n	2642 <_ZN3AjK9MODSERIAL6isr_rxEv+0x1e>
    2698:	f8d4 209c 	ldr.w	r2, [r4, #156]	; 0x9c
    269c:	2a00      	cmp	r2, #0
    269e:	d0d2      	beq.n	2646 <_ZN3AjK9MODSERIAL6isr_rxEv+0x22>
    26a0:	f8d4 30a0 	ldr.w	r3, [r4, #160]	; 0xa0
    26a4:	f8d4 10a4 	ldr.w	r1, [r4, #164]	; 0xa4
    26a8:	2b00      	cmp	r3, #0
    26aa:	d02c      	beq.n	2706 <_ZN3AjK9MODSERIAL6isr_rxEv+0xe2>
    26ac:	07c8      	lsls	r0, r1, #31
    26ae:	d42c      	bmi.n	270a <_ZN3AjK9MODSERIAL6isr_rxEv+0xe6>
    26b0:	1048      	asrs	r0, r1, #1
    26b2:	1810      	adds	r0, r2, r0
    26b4:	4629      	mov	r1, r5
    26b6:	4798      	blx	r3
    26b8:	f894 2094 	ldrb.w	r2, [r4, #148]	; 0x94
    26bc:	f894 0061 	ldrb.w	r0, [r4, #97]	; 0x61
    26c0:	4282      	cmp	r2, r0
    26c2:	d1c6      	bne.n	2652 <_ZN3AjK9MODSERIAL6isr_rxEv+0x2e>
    26c4:	f8d4 10e8 	ldr.w	r1, [r4, #232]	; 0xe8
    26c8:	b319      	cbz	r1, 2712 <_ZN3AjK9MODSERIAL6isr_rxEv+0xee>
    26ca:	4628      	mov	r0, r5
    26cc:	4788      	blx	r1
    26ce:	e7c0      	b.n	2652 <_ZN3AjK9MODSERIAL6isr_rxEv+0x2e>
    26d0:	f8d4 2098 	ldr.w	r2, [r4, #152]	; 0x98
    26d4:	f104 0158 	add.w	r1, r4, #88	; 0x58
    26d8:	2a00      	cmp	r2, #0
    26da:	d031      	beq.n	2740 <_ZN3AjK9MODSERIAL6isr_rxEv+0x11c>
    26dc:	4608      	mov	r0, r1
    26de:	4790      	blx	r2
    26e0:	bd70      	pop	{r4, r5, r6, pc}
    26e2:	f894 0061 	ldrb.w	r0, [r4, #97]	; 0x61
    26e6:	f8d4 10b8 	ldr.w	r1, [r4, #184]	; 0xb8
    26ea:	f8c4 008c 	str.w	r0, [r4, #140]	; 0x8c
    26ee:	2900      	cmp	r1, #0
    26f0:	d1a7      	bne.n	2642 <_ZN3AjK9MODSERIAL6isr_rxEv+0x1e>
    26f2:	f8d4 20bc 	ldr.w	r2, [r4, #188]	; 0xbc
    26f6:	2a00      	cmp	r2, #0
    26f8:	d0a5      	beq.n	2646 <_ZN3AjK9MODSERIAL6isr_rxEv+0x22>
    26fa:	f8d4 30c0 	ldr.w	r3, [r4, #192]	; 0xc0
    26fe:	f8d4 10c4 	ldr.w	r1, [r4, #196]	; 0xc4
    2702:	2b00      	cmp	r3, #0
    2704:	d1d2      	bne.n	26ac <_ZN3AjK9MODSERIAL6isr_rxEv+0x88>
    2706:	07c8      	lsls	r0, r1, #31
    2708:	d59d      	bpl.n	2646 <_ZN3AjK9MODSERIAL6isr_rxEv+0x22>
    270a:	1048      	asrs	r0, r1, #1
    270c:	5811      	ldr	r1, [r2, r0]
    270e:	585b      	ldr	r3, [r3, r1]
    2710:	e7cf      	b.n	26b2 <_ZN3AjK9MODSERIAL6isr_rxEv+0x8e>
    2712:	f8d4 20ec 	ldr.w	r2, [r4, #236]	; 0xec
    2716:	2a00      	cmp	r2, #0
    2718:	d09b      	beq.n	2652 <_ZN3AjK9MODSERIAL6isr_rxEv+0x2e>
    271a:	f8d4 30f0 	ldr.w	r3, [r4, #240]	; 0xf0
    271e:	f8d4 10f4 	ldr.w	r1, [r4, #244]	; 0xf4
    2722:	b13b      	cbz	r3, 2734 <_ZN3AjK9MODSERIAL6isr_rxEv+0x110>
    2724:	07c8      	lsls	r0, r1, #31
    2726:	d407      	bmi.n	2738 <_ZN3AjK9MODSERIAL6isr_rxEv+0x114>
    2728:	1048      	asrs	r0, r1, #1
    272a:	1810      	adds	r0, r2, r0
    272c:	4629      	mov	r1, r5
    272e:	4798      	blx	r3
    2730:	e78f      	b.n	2652 <_ZN3AjK9MODSERIAL6isr_rxEv+0x2e>
    2732:	bd70      	pop	{r4, r5, r6, pc}
    2734:	07c8      	lsls	r0, r1, #31
    2736:	d58c      	bpl.n	2652 <_ZN3AjK9MODSERIAL6isr_rxEv+0x2e>
    2738:	1048      	asrs	r0, r1, #1
    273a:	5811      	ldr	r1, [r2, r0]
    273c:	585b      	ldr	r3, [r3, r1]
    273e:	e7f4      	b.n	272a <_ZN3AjK9MODSERIAL6isr_rxEv+0x106>
    2740:	f8d4 209c 	ldr.w	r2, [r4, #156]	; 0x9c
    2744:	b15a      	cbz	r2, 275e <_ZN3AjK9MODSERIAL6isr_rxEv+0x13a>
    2746:	f8d4 30a0 	ldr.w	r3, [r4, #160]	; 0xa0
    274a:	f8d4 00a4 	ldr.w	r0, [r4, #164]	; 0xa4
    274e:	b15b      	cbz	r3, 2768 <_ZN3AjK9MODSERIAL6isr_rxEv+0x144>
    2750:	f010 0f01 	tst.w	r0, #1
    2754:	d104      	bne.n	2760 <_ZN3AjK9MODSERIAL6isr_rxEv+0x13c>
    2756:	1040      	asrs	r0, r0, #1
    2758:	1810      	adds	r0, r2, r0
    275a:	4798      	blx	r3
    275c:	bd70      	pop	{r4, r5, r6, pc}
    275e:	bd70      	pop	{r4, r5, r6, pc}
    2760:	1040      	asrs	r0, r0, #1
    2762:	5814      	ldr	r4, [r2, r0]
    2764:	591b      	ldr	r3, [r3, r4]
    2766:	e7f7      	b.n	2758 <_ZN3AjK9MODSERIAL6isr_rxEv+0x134>
    2768:	f010 0f01 	tst.w	r0, #1
    276c:	d1f8      	bne.n	2760 <_ZN3AjK9MODSERIAL6isr_rxEv+0x13c>
    276e:	bd70      	pop	{r4, r5, r6, pc}

00002770 <_ZN3AjK9MODSERIAL6isr_txEb>:
    2770:	b5f8      	push	{r3, r4, r5, r6, r7, lr}
    2772:	6dc3      	ldr	r3, [r0, #92]	; 0x5c
    2774:	4604      	mov	r4, r0
    2776:	460d      	mov	r5, r1
    2778:	2b00      	cmp	r3, #0
    277a:	d035      	beq.n	27e8 <_ZN3AjK9MODSERIAL6isr_txEb+0x78>
    277c:	f8d0 0080 	ldr.w	r0, [r0, #128]	; 0x80
    2780:	2800      	cmp	r0, #0
    2782:	d031      	beq.n	27e8 <_ZN3AjK9MODSERIAL6isr_txEb+0x78>
    2784:	6ea1      	ldr	r1, [r4, #104]	; 0x68
    2786:	2900      	cmp	r1, #0
    2788:	d02e      	beq.n	27e8 <_ZN3AjK9MODSERIAL6isr_txEb+0x78>
    278a:	2700      	movs	r7, #0
    278c:	f104 0658 	add.w	r6, r4, #88	; 0x58
    2790:	f8d4 2088 	ldr.w	r2, [r4, #136]	; 0x88
    2794:	b322      	cbz	r2, 27e0 <_ZN3AjK9MODSERIAL6isr_txEb+0x70>
    2796:	6de3      	ldr	r3, [r4, #92]	; 0x5c
    2798:	7d18      	ldrb	r0, [r3, #20]
    279a:	f000 0120 	and.w	r1, r0, #32
    279e:	b2ca      	uxtb	r2, r1
    27a0:	b1f2      	cbz	r2, 27e0 <_ZN3AjK9MODSERIAL6isr_txEb+0x70>
    27a2:	6fa1      	ldr	r1, [r4, #120]	; 0x78
    27a4:	6ea2      	ldr	r2, [r4, #104]	; 0x68
    27a6:	5c50      	ldrb	r0, [r2, r1]
    27a8:	f884 0060 	strb.w	r0, [r4, #96]	; 0x60
    27ac:	7018      	strb	r0, [r3, #0]
    27ae:	f8d4 3088 	ldr.w	r3, [r4, #136]	; 0x88
    27b2:	1e59      	subs	r1, r3, #1
    27b4:	f8c4 1088 	str.w	r1, [r4, #136]	; 0x88
    27b8:	6fa2      	ldr	r2, [r4, #120]	; 0x78
    27ba:	1c50      	adds	r0, r2, #1
    27bc:	67a0      	str	r0, [r4, #120]	; 0x78
    27be:	6fa1      	ldr	r1, [r4, #120]	; 0x78
    27c0:	f8d4 3080 	ldr.w	r3, [r4, #128]	; 0x80
    27c4:	4299      	cmp	r1, r3
    27c6:	db00      	blt.n	27ca <_ZN3AjK9MODSERIAL6isr_txEb+0x5a>
    27c8:	67a7      	str	r7, [r4, #120]	; 0x78
    27ca:	2d00      	cmp	r5, #0
    27cc:	d0e0      	beq.n	2790 <_ZN3AjK9MODSERIAL6isr_txEb+0x20>
    27ce:	f8d4 20a8 	ldr.w	r2, [r4, #168]	; 0xa8
    27d2:	b192      	cbz	r2, 27fa <_ZN3AjK9MODSERIAL6isr_txEb+0x8a>
    27d4:	4630      	mov	r0, r6
    27d6:	4790      	blx	r2
    27d8:	f8d4 2088 	ldr.w	r2, [r4, #136]	; 0x88
    27dc:	2a00      	cmp	r2, #0
    27de:	d1da      	bne.n	2796 <_ZN3AjK9MODSERIAL6isr_txEb+0x26>
    27e0:	f8d4 3088 	ldr.w	r3, [r4, #136]	; 0x88
    27e4:	b1fb      	cbz	r3, 2826 <_ZN3AjK9MODSERIAL6isr_txEb+0xb6>
    27e6:	bdf8      	pop	{r3, r4, r5, r6, r7, pc}
    27e8:	f8d4 20a8 	ldr.w	r2, [r4, #168]	; 0xa8
    27ec:	f104 0158 	add.w	r1, r4, #88	; 0x58
    27f0:	2a00      	cmp	r2, #0
    27f2:	d02e      	beq.n	2852 <_ZN3AjK9MODSERIAL6isr_txEb+0xe2>
    27f4:	4608      	mov	r0, r1
    27f6:	4790      	blx	r2
    27f8:	bdf8      	pop	{r3, r4, r5, r6, r7, pc}
    27fa:	f8d4 20ac 	ldr.w	r2, [r4, #172]	; 0xac
    27fe:	2a00      	cmp	r2, #0
    2800:	d0c6      	beq.n	2790 <_ZN3AjK9MODSERIAL6isr_txEb+0x20>
    2802:	f8d4 30b0 	ldr.w	r3, [r4, #176]	; 0xb0
    2806:	f8d4 10b4 	ldr.w	r1, [r4, #180]	; 0xb4
    280a:	b133      	cbz	r3, 281a <_ZN3AjK9MODSERIAL6isr_txEb+0xaa>
    280c:	07c8      	lsls	r0, r1, #31
    280e:	d406      	bmi.n	281e <_ZN3AjK9MODSERIAL6isr_txEb+0xae>
    2810:	1048      	asrs	r0, r1, #1
    2812:	1810      	adds	r0, r2, r0
    2814:	4631      	mov	r1, r6
    2816:	4798      	blx	r3
    2818:	e7ba      	b.n	2790 <_ZN3AjK9MODSERIAL6isr_txEb+0x20>
    281a:	07c8      	lsls	r0, r1, #31
    281c:	d5b8      	bpl.n	2790 <_ZN3AjK9MODSERIAL6isr_txEb+0x20>
    281e:	1048      	asrs	r0, r1, #1
    2820:	5811      	ldr	r1, [r2, r0]
    2822:	585b      	ldr	r3, [r3, r1]
    2824:	e7f5      	b.n	2812 <_ZN3AjK9MODSERIAL6isr_txEb+0xa2>
    2826:	6de0      	ldr	r0, [r4, #92]	; 0x5c
    2828:	2101      	movs	r1, #1
    282a:	7101      	strb	r1, [r0, #4]
    282c:	f8d4 20d8 	ldr.w	r2, [r4, #216]	; 0xd8
    2830:	f104 0158 	add.w	r1, r4, #88	; 0x58
    2834:	2a00      	cmp	r2, #0
    2836:	d1dd      	bne.n	27f4 <_ZN3AjK9MODSERIAL6isr_txEb+0x84>
    2838:	f8d4 20dc 	ldr.w	r2, [r4, #220]	; 0xdc
    283c:	2a00      	cmp	r2, #0
    283e:	d0d2      	beq.n	27e6 <_ZN3AjK9MODSERIAL6isr_txEb+0x76>
    2840:	f8d4 30e0 	ldr.w	r3, [r4, #224]	; 0xe0
    2844:	f8d4 00e4 	ldr.w	r0, [r4, #228]	; 0xe4
    2848:	b963      	cbnz	r3, 2864 <_ZN3AjK9MODSERIAL6isr_txEb+0xf4>
    284a:	f010 0f01 	tst.w	r0, #1
    284e:	d110      	bne.n	2872 <_ZN3AjK9MODSERIAL6isr_txEb+0x102>
    2850:	bdf8      	pop	{r3, r4, r5, r6, r7, pc}
    2852:	f8d4 20ac 	ldr.w	r2, [r4, #172]	; 0xac
    2856:	2a00      	cmp	r2, #0
    2858:	d0c5      	beq.n	27e6 <_ZN3AjK9MODSERIAL6isr_txEb+0x76>
    285a:	f8d4 30b0 	ldr.w	r3, [r4, #176]	; 0xb0
    285e:	f8d4 00b4 	ldr.w	r0, [r4, #180]	; 0xb4
    2862:	b153      	cbz	r3, 287a <_ZN3AjK9MODSERIAL6isr_txEb+0x10a>
    2864:	f010 0f01 	tst.w	r0, #1
    2868:	d103      	bne.n	2872 <_ZN3AjK9MODSERIAL6isr_txEb+0x102>
    286a:	1040      	asrs	r0, r0, #1
    286c:	1810      	adds	r0, r2, r0
    286e:	4798      	blx	r3
    2870:	bdf8      	pop	{r3, r4, r5, r6, r7, pc}
    2872:	1040      	asrs	r0, r0, #1
    2874:	5814      	ldr	r4, [r2, r0]
    2876:	591b      	ldr	r3, [r3, r4]
    2878:	e7f8      	b.n	286c <_ZN3AjK9MODSERIAL6isr_txEb+0xfc>
    287a:	f010 0f01 	tst.w	r0, #1
    287e:	d1f8      	bne.n	2872 <_ZN3AjK9MODSERIAL6isr_txEb+0x102>
    2880:	bdf8      	pop	{r3, r4, r5, r6, r7, pc}
    2882:	bf00      	nop

00002884 <_ZN3AjK9MODSERIAL5_getcEv>:
    2884:	2101      	movs	r1, #1
    2886:	f7ff bddb 	b.w	2440 <_ZN3AjK9MODSERIAL6__getcEb>
    288a:	bf00      	nop

0000288c <_ZN3AjK9MODSERIAL5_putcEi>:
    288c:	2201      	movs	r2, #1
    288e:	f000 b8d1 	b.w	2a34 <_ZN3AjK9MODSERIAL6__putcEib>
    2892:	bf00      	nop

00002894 <_ZN3AjK9MODSERIALC1E7PinNameS1_PKc>:
    2894:	b538      	push	{r3, r4, r5, lr}
    2896:	4604      	mov	r4, r0
    2898:	4615      	mov	r5, r2
    289a:	f001 fa91 	bl	3dc0 <_ZN4mbed6SerialC1E7PinNameS1_PKc>
    289e:	f648 7168 	movw	r1, #36712	; 0x8f68
    28a2:	f2c0 0100 	movt	r1, #0
    28a6:	2000      	movs	r0, #0
    28a8:	f101 0208 	add.w	r2, r1, #8
    28ac:	f101 033c 	add.w	r3, r1, #60	; 0x3c
    28b0:	f44f 7180 	mov.w	r1, #256	; 0x100
    28b4:	e884 000c 	stmia.w	r4, {r2, r3}
    28b8:	65a0      	str	r0, [r4, #88]	; 0x58
    28ba:	f8c4 0098 	str.w	r0, [r4, #152]	; 0x98
    28be:	f8c4 009c 	str.w	r0, [r4, #156]	; 0x9c
    28c2:	f8c4 00a0 	str.w	r0, [r4, #160]	; 0xa0
    28c6:	f8c4 00a4 	str.w	r0, [r4, #164]	; 0xa4
    28ca:	f8c4 00a8 	str.w	r0, [r4, #168]	; 0xa8
    28ce:	f8c4 00ac 	str.w	r0, [r4, #172]	; 0xac
    28d2:	f8c4 00b0 	str.w	r0, [r4, #176]	; 0xb0
    28d6:	f8c4 00b4 	str.w	r0, [r4, #180]	; 0xb4
    28da:	f8c4 00b8 	str.w	r0, [r4, #184]	; 0xb8
    28de:	f8c4 00bc 	str.w	r0, [r4, #188]	; 0xbc
    28e2:	f8c4 00c0 	str.w	r0, [r4, #192]	; 0xc0
    28e6:	f8c4 00c4 	str.w	r0, [r4, #196]	; 0xc4
    28ea:	f8c4 00c8 	str.w	r0, [r4, #200]	; 0xc8
    28ee:	f8c4 00cc 	str.w	r0, [r4, #204]	; 0xcc
    28f2:	f8c4 00d0 	str.w	r0, [r4, #208]	; 0xd0
    28f6:	f8c4 00d4 	str.w	r0, [r4, #212]	; 0xd4
    28fa:	f8c4 00d8 	str.w	r0, [r4, #216]	; 0xd8
    28fe:	f8c4 00dc 	str.w	r0, [r4, #220]	; 0xdc
    2902:	f8c4 00e0 	str.w	r0, [r4, #224]	; 0xe0
    2906:	f8c4 00e4 	str.w	r0, [r4, #228]	; 0xe4
    290a:	f8c4 00e8 	str.w	r0, [r4, #232]	; 0xe8
    290e:	f8c4 00ec 	str.w	r0, [r4, #236]	; 0xec
    2912:	f8c4 00f0 	str.w	r0, [r4, #240]	; 0xf0
    2916:	f8c4 00f4 	str.w	r0, [r4, #244]	; 0xf4
    291a:	460a      	mov	r2, r1
    291c:	4620      	mov	r0, r4
    291e:	462b      	mov	r3, r5
    2920:	f7ff fdf0 	bl	2504 <_ZN3AjK9MODSERIAL4initEii7PinName>
    2924:	4620      	mov	r0, r4
    2926:	bd38      	pop	{r3, r4, r5, pc}

00002928 <_ZN3AjK9MODSERIAL13rxBufferEmptyEv>:
    2928:	f8d0 0084 	ldr.w	r0, [r0, #132]	; 0x84
    292c:	f1d0 0001 	rsbs	r0, r0, #1
    2930:	bf38      	it	cc
    2932:	2000      	movcc	r0, #0
    2934:	4770      	bx	lr
    2936:	bf00      	nop

00002938 <_ZN3AjK9MODSERIAL10disableIrqEv>:
    2938:	69c3      	ldr	r3, [r0, #28]
    293a:	2b03      	cmp	r3, #3
    293c:	d80b      	bhi.n	2956 <_ZN3AjK9MODSERIAL10disableIrqEv+0x1e>
    293e:	e8df f003 	tbb	[pc, r3]
    2942:	131b      	.short	0x131b
    2944:	020b      	.short	0x020b
    2946:	f44f 4061 	mov.w	r0, #57600	; 0xe100
    294a:	f2ce 0000 	movt	r0, #57344	; 0xe000
    294e:	f44f 7280 	mov.w	r2, #256	; 0x100
    2952:	f8c0 2080 	str.w	r2, [r0, #128]	; 0x80
    2956:	4770      	bx	lr
    2958:	f44f 4161 	mov.w	r1, #57600	; 0xe100
    295c:	f2ce 0100 	movt	r1, #57344	; 0xe000
    2960:	2380      	movs	r3, #128	; 0x80
    2962:	f8c1 3080 	str.w	r3, [r1, #128]	; 0x80
    2966:	4770      	bx	lr
    2968:	f44f 4061 	mov.w	r0, #57600	; 0xe100
    296c:	f2ce 0000 	movt	r0, #57344	; 0xe000
    2970:	2240      	movs	r2, #64	; 0x40
    2972:	f8c0 2080 	str.w	r2, [r0, #128]	; 0x80
    2976:	4770      	bx	lr
    2978:	f44f 4161 	mov.w	r1, #57600	; 0xe100
    297c:	f2ce 0100 	movt	r1, #57344	; 0xe000
    2980:	2320      	movs	r3, #32
    2982:	f8c1 3080 	str.w	r3, [r1, #128]	; 0x80
    2986:	4770      	bx	lr

00002988 <_ZN3AjK9MODSERIALD1Ev>:
    2988:	4b0d      	ldr	r3, [pc, #52]	; (29c0 <_ZN3AjK9MODSERIALD1Ev+0x38>)
    298a:	b510      	push	{r4, lr}
    298c:	f103 0234 	add.w	r2, r3, #52	; 0x34
    2990:	4604      	mov	r4, r0
    2992:	6003      	str	r3, [r0, #0]
    2994:	6042      	str	r2, [r0, #4]
    2996:	f7ff ffcf 	bl	2938 <_ZN3AjK9MODSERIAL10disableIrqEv>
    299a:	6e60      	ldr	r0, [r4, #100]	; 0x64
    299c:	b108      	cbz	r0, 29a2 <_ZN3AjK9MODSERIALD1Ev+0x1a>
    299e:	f004 fa2f 	bl	6e00 <free>
    29a2:	6ea0      	ldr	r0, [r4, #104]	; 0x68
    29a4:	b108      	cbz	r0, 29aa <_ZN3AjK9MODSERIALD1Ev+0x22>
    29a6:	f004 fa2b 	bl	6e00 <free>
    29aa:	4906      	ldr	r1, [pc, #24]	; (29c4 <_ZN3AjK9MODSERIALD1Ev+0x3c>)
    29ac:	4620      	mov	r0, r4
    29ae:	f101 0334 	add.w	r3, r1, #52	; 0x34
    29b2:	6021      	str	r1, [r4, #0]
    29b4:	6063      	str	r3, [r4, #4]
    29b6:	f001 fc43 	bl	4240 <_ZN4mbed6StreamD1Ev>
    29ba:	4620      	mov	r0, r4
    29bc:	bd10      	pop	{r4, pc}
    29be:	bf00      	nop
    29c0:	00008f70 	.word	0x00008f70
    29c4:	00009218 	.word	0x00009218

000029c8 <_ZThn4_N3AjK9MODSERIALD1Ev>:
    29c8:	f1a0 0004 	sub.w	r0, r0, #4
    29cc:	f7ff bfdc 	b.w	2988 <_ZN3AjK9MODSERIALD1Ev>

000029d0 <_ZN3AjK9MODSERIALD0Ev>:
    29d0:	b510      	push	{r4, lr}
    29d2:	4604      	mov	r4, r0
    29d4:	f7ff ffd8 	bl	2988 <_ZN3AjK9MODSERIALD1Ev>
    29d8:	4620      	mov	r0, r4
    29da:	f001 ff6f 	bl	48bc <_ZdlPv>
    29de:	4620      	mov	r0, r4
    29e0:	bd10      	pop	{r4, pc}
    29e2:	bf00      	nop

000029e4 <_ZThn4_N3AjK9MODSERIALD0Ev>:
    29e4:	f1a0 0004 	sub.w	r0, r0, #4
    29e8:	f7ff bff2 	b.w	29d0 <_ZN3AjK9MODSERIALD0Ev>

000029ec <_ZN3AjK9MODSERIAL9enableIrqEv>:
    29ec:	69c3      	ldr	r3, [r0, #28]
    29ee:	2b03      	cmp	r3, #3
    29f0:	d80a      	bhi.n	2a08 <_ZN3AjK9MODSERIAL9enableIrqEv+0x1c>
    29f2:	e8df f003 	tbb	[pc, r3]
    29f6:	1118      	.short	0x1118
    29f8:	020a      	.short	0x020a
    29fa:	f44f 4061 	mov.w	r0, #57600	; 0xe100
    29fe:	f2ce 0000 	movt	r0, #57344	; 0xe000
    2a02:	f44f 7280 	mov.w	r2, #256	; 0x100
    2a06:	6002      	str	r2, [r0, #0]
    2a08:	4770      	bx	lr
    2a0a:	f44f 4161 	mov.w	r1, #57600	; 0xe100
    2a0e:	f2ce 0100 	movt	r1, #57344	; 0xe000
    2a12:	2380      	movs	r3, #128	; 0x80
    2a14:	600b      	str	r3, [r1, #0]
    2a16:	4770      	bx	lr
    2a18:	f44f 4061 	mov.w	r0, #57600	; 0xe100
    2a1c:	f2ce 0000 	movt	r0, #57344	; 0xe000
    2a20:	2240      	movs	r2, #64	; 0x40
    2a22:	6002      	str	r2, [r0, #0]
    2a24:	4770      	bx	lr
    2a26:	f44f 4161 	mov.w	r1, #57600	; 0xe100
    2a2a:	f2ce 0100 	movt	r1, #57344	; 0xe000
    2a2e:	2320      	movs	r3, #32
    2a30:	600b      	str	r3, [r1, #0]
    2a32:	4770      	bx	lr

00002a34 <_ZN3AjK9MODSERIAL6__putcEib>:
    2a34:	6e83      	ldr	r3, [r0, #104]	; 0x68
    2a36:	b570      	push	{r4, r5, r6, lr}
    2a38:	4604      	mov	r4, r0
    2a3a:	460d      	mov	r5, r1
    2a3c:	b113      	cbz	r3, 2a44 <_ZN3AjK9MODSERIAL6__putcEib+0x10>
    2a3e:	f8d0 0080 	ldr.w	r0, [r0, #128]	; 0x80
    2a42:	b948      	cbnz	r0, 2a58 <_ZN3AjK9MODSERIAL6__putcEib+0x24>
    2a44:	6de0      	ldr	r0, [r4, #92]	; 0x5c
    2a46:	7d03      	ldrb	r3, [r0, #20]
    2a48:	f003 0220 	and.w	r2, r3, #32
    2a4c:	b2d1      	uxtb	r1, r2
    2a4e:	b111      	cbz	r1, 2a56 <_ZN3AjK9MODSERIAL6__putcEib+0x22>
    2a50:	7005      	strb	r5, [r0, #0]
    2a52:	2000      	movs	r0, #0
    2a54:	bd70      	pop	{r4, r5, r6, pc}
    2a56:	e7fe      	b.n	2a56 <_ZN3AjK9MODSERIAL6__putcEib+0x22>
    2a58:	6de3      	ldr	r3, [r4, #92]	; 0x5c
    2a5a:	7d19      	ldrb	r1, [r3, #20]
    2a5c:	f001 0020 	and.w	r0, r1, #32
    2a60:	b2c1      	uxtb	r1, r0
    2a62:	b119      	cbz	r1, 2a6c <_ZN3AjK9MODSERIAL6__putcEib+0x38>
    2a64:	f8d4 0088 	ldr.w	r0, [r4, #136]	; 0x88
    2a68:	2800      	cmp	r0, #0
    2a6a:	d037      	beq.n	2adc <_ZN3AjK9MODSERIAL6__putcEib+0xa8>
    2a6c:	2a00      	cmp	r2, #0
    2a6e:	d03b      	beq.n	2ae8 <_ZN3AjK9MODSERIAL6__putcEib+0xb4>
    2a70:	2101      	movs	r1, #1
    2a72:	791e      	ldrb	r6, [r3, #4]
    2a74:	7119      	strb	r1, [r3, #4]
    2a76:	f8d4 0088 	ldr.w	r0, [r4, #136]	; 0x88
    2a7a:	f8d4 3080 	ldr.w	r3, [r4, #128]	; 0x80
    2a7e:	4298      	cmp	r0, r3
    2a80:	d109      	bne.n	2a96 <_ZN3AjK9MODSERIAL6__putcEib+0x62>
    2a82:	2100      	movs	r1, #0
    2a84:	4620      	mov	r0, r4
    2a86:	f7ff fe73 	bl	2770 <_ZN3AjK9MODSERIAL6isr_txEb>
    2a8a:	f8d4 2088 	ldr.w	r2, [r4, #136]	; 0x88
    2a8e:	f8d4 1080 	ldr.w	r1, [r4, #128]	; 0x80
    2a92:	428a      	cmp	r2, r1
    2a94:	d0f5      	beq.n	2a82 <_ZN3AjK9MODSERIAL6__putcEib+0x4e>
    2a96:	6de0      	ldr	r0, [r4, #92]	; 0x5c
    2a98:	7106      	strb	r6, [r0, #4]
    2a9a:	6de3      	ldr	r3, [r4, #92]	; 0x5c
    2a9c:	791a      	ldrb	r2, [r3, #4]
    2a9e:	b2ed      	uxtb	r5, r5
    2aa0:	f022 0102 	bic.w	r1, r2, #2
    2aa4:	7119      	strb	r1, [r3, #4]
    2aa6:	6f20      	ldr	r0, [r4, #112]	; 0x70
    2aa8:	6ea3      	ldr	r3, [r4, #104]	; 0x68
    2aaa:	541d      	strb	r5, [r3, r0]
    2aac:	b672      	cpsid	i
    2aae:	f8d4 2088 	ldr.w	r2, [r4, #136]	; 0x88
    2ab2:	1c51      	adds	r1, r2, #1
    2ab4:	f8c4 1088 	str.w	r1, [r4, #136]	; 0x88
    2ab8:	b662      	cpsie	i
    2aba:	6f20      	ldr	r0, [r4, #112]	; 0x70
    2abc:	1c43      	adds	r3, r0, #1
    2abe:	6723      	str	r3, [r4, #112]	; 0x70
    2ac0:	6f22      	ldr	r2, [r4, #112]	; 0x70
    2ac2:	f8d4 1080 	ldr.w	r1, [r4, #128]	; 0x80
    2ac6:	428a      	cmp	r2, r1
    2ac8:	db01      	blt.n	2ace <_ZN3AjK9MODSERIAL6__putcEib+0x9a>
    2aca:	2000      	movs	r0, #0
    2acc:	6720      	str	r0, [r4, #112]	; 0x70
    2ace:	6de3      	ldr	r3, [r4, #92]	; 0x5c
    2ad0:	2000      	movs	r0, #0
    2ad2:	791a      	ldrb	r2, [r3, #4]
    2ad4:	f042 0102 	orr.w	r1, r2, #2
    2ad8:	7119      	strb	r1, [r3, #4]
    2ada:	bd70      	pop	{r4, r5, r6, pc}
    2adc:	f8d4 10f8 	ldr.w	r1, [r4, #248]	; 0xf8
    2ae0:	3101      	adds	r1, #1
    2ae2:	d1c3      	bne.n	2a6c <_ZN3AjK9MODSERIAL6__putcEib+0x38>
    2ae4:	701d      	strb	r5, [r3, #0]
    2ae6:	bd70      	pop	{r4, r5, r6, pc}
    2ae8:	f8d4 0088 	ldr.w	r0, [r4, #136]	; 0x88
    2aec:	f8d4 2080 	ldr.w	r2, [r4, #128]	; 0x80
    2af0:	4290      	cmp	r0, r2
    2af2:	d1d3      	bne.n	2a9c <_ZN3AjK9MODSERIAL6__putcEib+0x68>
    2af4:	f8d4 30c8 	ldr.w	r3, [r4, #200]	; 0xc8
    2af8:	f8c4 5090 	str.w	r5, [r4, #144]	; 0x90
    2afc:	f104 0158 	add.w	r1, r4, #88	; 0x58
    2b00:	b123      	cbz	r3, 2b0c <_ZN3AjK9MODSERIAL6__putcEib+0xd8>
    2b02:	4608      	mov	r0, r1
    2b04:	4798      	blx	r3
    2b06:	f04f 30ff 	mov.w	r0, #4294967295	; 0xffffffff
    2b0a:	bd70      	pop	{r4, r5, r6, pc}
    2b0c:	f8d4 50cc 	ldr.w	r5, [r4, #204]	; 0xcc
    2b10:	b195      	cbz	r5, 2b38 <_ZN3AjK9MODSERIAL6__putcEib+0x104>
    2b12:	f8d4 20d0 	ldr.w	r2, [r4, #208]	; 0xd0
    2b16:	f8d4 30d4 	ldr.w	r3, [r4, #212]	; 0xd4
    2b1a:	b15a      	cbz	r2, 2b34 <_ZN3AjK9MODSERIAL6__putcEib+0x100>
    2b1c:	07d8      	lsls	r0, r3, #31
    2b1e:	d507      	bpl.n	2b30 <_ZN3AjK9MODSERIAL6__putcEib+0xfc>
    2b20:	1058      	asrs	r0, r3, #1
    2b22:	582b      	ldr	r3, [r5, r0]
    2b24:	58d2      	ldr	r2, [r2, r3]
    2b26:	1828      	adds	r0, r5, r0
    2b28:	4790      	blx	r2
    2b2a:	f04f 30ff 	mov.w	r0, #4294967295	; 0xffffffff
    2b2e:	bd70      	pop	{r4, r5, r6, pc}
    2b30:	1058      	asrs	r0, r3, #1
    2b32:	e7f8      	b.n	2b26 <_ZN3AjK9MODSERIAL6__putcEib+0xf2>
    2b34:	07d8      	lsls	r0, r3, #31
    2b36:	d4f3      	bmi.n	2b20 <_ZN3AjK9MODSERIAL6__putcEib+0xec>
    2b38:	f04f 30ff 	mov.w	r0, #4294967295	; 0xffffffff
    2b3c:	bd70      	pop	{r4, r5, r6, pc}
    2b3e:	bf00      	nop

00002b40 <_ZN3ros16normalizeSecNSecERmS0_>:
    2b40:	b430      	push	{r4, r5}
    2b42:	680c      	ldr	r4, [r1, #0]
    2b44:	f644 3383 	movw	r3, #19331	; 0x4b83
    2b48:	0a62      	lsrs	r2, r4, #9
    2b4a:	f2c0 0304 	movt	r3, #4
    2b4e:	fba3 5302 	umull	r5, r3, r3, r2
    2b52:	f44f 454a 	mov.w	r5, #51712	; 0xca00
    2b56:	09db      	lsrs	r3, r3, #7
    2b58:	f6c3 359a 	movt	r5, #15258	; 0x3b9a
    2b5c:	fb05 4213 	mls	r2, r5, r3, r4
    2b60:	6805      	ldr	r5, [r0, #0]
    2b62:	18eb      	adds	r3, r5, r3
    2b64:	6003      	str	r3, [r0, #0]
    2b66:	600a      	str	r2, [r1, #0]
    2b68:	bc30      	pop	{r4, r5}
    2b6a:	4770      	bx	lr

00002b6c <_ZN16FileConfigSource8is_namedEt>:
    2b6c:	8880      	ldrh	r0, [r0, #4]
    2b6e:	1a43      	subs	r3, r0, r1
    2b70:	4259      	negs	r1, r3
    2b72:	eb51 0003 	adcs.w	r0, r1, r3
    2b76:	4770      	bx	lr

00002b78 <_ZN16FileConfigSource5writeESsSs>:
    2b78:	4770      	bx	lr
    2b7a:	bf00      	nop

00002b7c <_ZN16FileConfigSourceC1ESst>:
    2b7c:	4b07      	ldr	r3, [pc, #28]	; (2b9c <_ZN16FileConfigSourceC1ESst+0x20>)
    2b7e:	b510      	push	{r4, lr}
    2b80:	4604      	mov	r4, r0
    2b82:	6003      	str	r3, [r0, #0]
    2b84:	4806      	ldr	r0, [pc, #24]	; (2ba0 <_ZN16FileConfigSourceC1ESst+0x24>)
    2b86:	80a2      	strh	r2, [r4, #4]
    2b88:	60a0      	str	r0, [r4, #8]
    2b8a:	f104 0008 	add.w	r0, r4, #8
    2b8e:	f002 fae5 	bl	515c <_ZNSs6assignERKSs>
    2b92:	2100      	movs	r1, #0
    2b94:	7321      	strb	r1, [r4, #12]
    2b96:	4620      	mov	r0, r4
    2b98:	bd10      	pop	{r4, pc}
    2b9a:	bf00      	nop
    2b9c:	00008fe0 	.word	0x00008fe0
    2ba0:	10000970 	.word	0x10000970

00002ba4 <_ZN16FileConfigSource15has_config_fileEv>:
    2ba4:	b570      	push	{r4, r5, r6, lr}
    2ba6:	7b03      	ldrb	r3, [r0, #12]
    2ba8:	b084      	sub	sp, #16
    2baa:	4604      	mov	r4, r0
    2bac:	b113      	cbz	r3, 2bb4 <_ZN16FileConfigSource15has_config_fileEv+0x10>
    2bae:	2001      	movs	r0, #1
    2bb0:	b004      	add	sp, #16
    2bb2:	bd70      	pop	{r4, r5, r6, pc}
    2bb4:	f100 0108 	add.w	r1, r0, #8
    2bb8:	a802      	add	r0, sp, #8
    2bba:	f002 fae4 	bl	5186 <_ZNSsC1ERKSs>
    2bbe:	a902      	add	r1, sp, #8
    2bc0:	a803      	add	r0, sp, #12
    2bc2:	f002 fae0 	bl	5186 <_ZNSsC1ERKSs>
    2bc6:	a803      	add	r0, sp, #12
    2bc8:	f7ff f93e 	bl	1e48 <_Z11file_existsSs>
    2bcc:	9b03      	ldr	r3, [sp, #12]
    2bce:	4d13      	ldr	r5, [pc, #76]	; (2c1c <_ZN16FileConfigSource15has_config_fileEv+0x78>)
    2bd0:	f1a3 020c 	sub.w	r2, r3, #12
    2bd4:	42aa      	cmp	r2, r5
    2bd6:	4606      	mov	r6, r0
    2bd8:	d109      	bne.n	2bee <_ZN16FileConfigSource15has_config_fileEv+0x4a>
    2bda:	b10e      	cbz	r6, 2be0 <_ZN16FileConfigSource15has_config_fileEv+0x3c>
    2bdc:	2301      	movs	r3, #1
    2bde:	7323      	strb	r3, [r4, #12]
    2be0:	9b02      	ldr	r3, [sp, #8]
    2be2:	f1a3 000c 	sub.w	r0, r3, #12
    2be6:	42a8      	cmp	r0, r5
    2be8:	d10d      	bne.n	2c06 <_ZN16FileConfigSource15has_config_fileEv+0x62>
    2bea:	7b20      	ldrb	r0, [r4, #12]
    2bec:	e7e0      	b.n	2bb0 <_ZN16FileConfigSource15has_config_fileEv+0xc>
    2bee:	f853 1c04 	ldr.w	r1, [r3, #-4]
    2bf2:	1e48      	subs	r0, r1, #1
    2bf4:	2900      	cmp	r1, #0
    2bf6:	f843 0c04 	str.w	r0, [r3, #-4]
    2bfa:	dcee      	bgt.n	2bda <_ZN16FileConfigSource15has_config_fileEv+0x36>
    2bfc:	4610      	mov	r0, r2
    2bfe:	a901      	add	r1, sp, #4
    2c00:	f002 fa08 	bl	5014 <_ZNSs4_Rep10_M_destroyERKSaIcE>
    2c04:	e7e9      	b.n	2bda <_ZN16FileConfigSource15has_config_fileEv+0x36>
    2c06:	f853 2c04 	ldr.w	r2, [r3, #-4]
    2c0a:	1e51      	subs	r1, r2, #1
    2c0c:	2a00      	cmp	r2, #0
    2c0e:	f843 1c04 	str.w	r1, [r3, #-4]
    2c12:	dcea      	bgt.n	2bea <_ZN16FileConfigSource15has_config_fileEv+0x46>
    2c14:	a901      	add	r1, sp, #4
    2c16:	f002 f9fd 	bl	5014 <_ZNSs4_Rep10_M_destroyERKSaIcE>
    2c1a:	e7e6      	b.n	2bea <_ZN16FileConfigSource15has_config_fileEv+0x46>
    2c1c:	10000964 	.word	0x10000964

00002c20 <_ZN16FileConfigSource15get_config_fileEv>:
    2c20:	b538      	push	{r3, r4, r5, lr}
    2c22:	7b0b      	ldrb	r3, [r1, #12]
    2c24:	460d      	mov	r5, r1
    2c26:	4604      	mov	r4, r0
    2c28:	b91b      	cbnz	r3, 2c32 <_ZN16FileConfigSource15get_config_fileEv+0x12>
    2c2a:	4608      	mov	r0, r1
    2c2c:	f7ff ffba 	bl	2ba4 <_ZN16FileConfigSource15has_config_fileEv>
    2c30:	b130      	cbz	r0, 2c40 <_ZN16FileConfigSource15get_config_fileEv+0x20>
    2c32:	4620      	mov	r0, r4
    2c34:	f105 0108 	add.w	r1, r5, #8
    2c38:	f002 faa5 	bl	5186 <_ZNSsC1ERKSs>
    2c3c:	4620      	mov	r0, r4
    2c3e:	bd38      	pop	{r3, r4, r5, pc}
    2c40:	4802      	ldr	r0, [pc, #8]	; (2c4c <_ZN16FileConfigSource15get_config_fileEv+0x2c>)
    2c42:	f004 f9c7 	bl	6fd4 <puts>
    2c46:	4620      	mov	r0, r4
    2c48:	bd38      	pop	{r3, r4, r5, pc}
    2c4a:	bf00      	nop
    2c4c:	00009004 	.word	0x00009004

00002c50 <_ZN16FileConfigSource4readESt6vectorItSaItEE>:
    2c50:	e92d 4ff0 	stmdb	sp!, {r4, r5, r6, r7, r8, r9, r10, r11, lr}
    2c54:	b089      	sub	sp, #36	; 0x24
    2c56:	460c      	mov	r4, r1
    2c58:	4690      	mov	r8, r2
    2c5a:	49a7      	ldr	r1, [pc, #668]	; (2ef8 <_ZN16FileConfigSource4readESt6vectorItSaItEE+0x2a8>)
    2c5c:	aa01      	add	r2, sp, #4
    2c5e:	4681      	mov	r9, r0
    2c60:	f002 fb5e 	bl	5320 <_ZNSsC1EPKcRKSaIcE>
    2c64:	4620      	mov	r0, r4
    2c66:	f7ff ff9d 	bl	2ba4 <_ZN16FileConfigSource15has_config_fileEv>
    2c6a:	b918      	cbnz	r0, 2c74 <_ZN16FileConfigSource4readESt6vectorItSaItEE+0x24>
    2c6c:	4648      	mov	r0, r9
    2c6e:	b009      	add	sp, #36	; 0x24
    2c70:	e8bd 8ff0 	ldmia.w	sp!, {r4, r5, r6, r7, r8, r9, r10, r11, pc}
    2c74:	a804      	add	r0, sp, #16
    2c76:	4621      	mov	r1, r4
    2c78:	f7ff ffd2 	bl	2c20 <_ZN16FileConfigSource15get_config_fileEv>
    2c7c:	9804      	ldr	r0, [sp, #16]
    2c7e:	499f      	ldr	r1, [pc, #636]	; (2efc <_ZN16FileConfigSource4readESt6vectorItSaItEE+0x2ac>)
    2c80:	f003 fd30 	bl	66e4 <fopen>
    2c84:	9b04      	ldr	r3, [sp, #16]
    2c86:	4e9e      	ldr	r6, [pc, #632]	; (2f00 <_ZN16FileConfigSource4readESt6vectorItSaItEE+0x2b0>)
    2c88:	4607      	mov	r7, r0
    2c8a:	f1a3 000c 	sub.w	r0, r3, #12
    2c8e:	42b0      	cmp	r0, r6
    2c90:	f040 8125 	bne.w	2ede <_ZN16FileConfigSource4readESt6vectorItSaItEE+0x28e>
    2c94:	489b      	ldr	r0, [pc, #620]	; (2f04 <_ZN16FileConfigSource4readESt6vectorItSaItEE+0x2b4>)
    2c96:	ad08      	add	r5, sp, #32
    2c98:	f845 0d18 	str.w	r0, [r5, #-24]!
    2c9c:	4638      	mov	r0, r7
    2c9e:	f003 fc1b 	bl	64d8 <fgetc>
    2ca2:	280a      	cmp	r0, #10
    2ca4:	4604      	mov	r4, r0
    2ca6:	9b02      	ldr	r3, [sp, #8]
    2ca8:	d023      	beq.n	2cf2 <_ZN16FileConfigSource4readESt6vectorItSaItEE+0xa2>
    2caa:	1c41      	adds	r1, r0, #1
    2cac:	d021      	beq.n	2cf2 <_ZN16FileConfigSource4readESt6vectorItSaItEE+0xa2>
    2cae:	f853 1c0c 	ldr.w	r1, [r3, #-12]
    2cb2:	f853 2c08 	ldr.w	r2, [r3, #-8]
    2cb6:	f101 0b01 	add.w	r11, r1, #1
    2cba:	4593      	cmp	r11, r2
    2cbc:	b2c4      	uxtb	r4, r0
    2cbe:	d803      	bhi.n	2cc8 <_ZN16FileConfigSource4readESt6vectorItSaItEE+0x78>
    2cc0:	f853 0c04 	ldr.w	r0, [r3, #-4]
    2cc4:	2800      	cmp	r0, #0
    2cc6:	dd06      	ble.n	2cd6 <_ZN16FileConfigSource4readESt6vectorItSaItEE+0x86>
    2cc8:	4659      	mov	r1, r11
    2cca:	4628      	mov	r0, r5
    2ccc:	f002 fa66 	bl	519c <_ZNSs7reserveEj>
    2cd0:	9b02      	ldr	r3, [sp, #8]
    2cd2:	f853 1c0c 	ldr.w	r1, [r3, #-12]
    2cd6:	545c      	strb	r4, [r3, r1]
    2cd8:	9c02      	ldr	r4, [sp, #8]
    2cda:	f1a4 020c 	sub.w	r2, r4, #12
    2cde:	42b2      	cmp	r2, r6
    2ce0:	d0dc      	beq.n	2c9c <_ZN16FileConfigSource4readESt6vectorItSaItEE+0x4c>
    2ce2:	2000      	movs	r0, #0
    2ce4:	f844 0c04 	str.w	r0, [r4, #-4]
    2ce8:	f844 bc0c 	str.w	r11, [r4, #-12]
    2cec:	f804 000b 	strb.w	r0, [r4, r11]
    2cf0:	e7d4      	b.n	2c9c <_ZN16FileConfigSource4readESt6vectorItSaItEE+0x4c>
    2cf2:	f853 1c04 	ldr.w	r1, [r3, #-4]
    2cf6:	2900      	cmp	r1, #0
    2cf8:	db03      	blt.n	2d02 <_ZN16FileConfigSource4readESt6vectorItSaItEE+0xb2>
    2cfa:	4628      	mov	r0, r5
    2cfc:	f002 f9e8 	bl	50d0 <_ZNSs12_M_leak_hardEv>
    2d00:	9b02      	ldr	r3, [sp, #8]
    2d02:	781a      	ldrb	r2, [r3, #0]
    2d04:	2a23      	cmp	r2, #35	; 0x23
    2d06:	f000 80bd 	beq.w	2e84 <_ZN16FileConfigSource4readESt6vectorItSaItEE+0x234>
    2d0a:	f853 2c0c 	ldr.w	r2, [r3, #-12]
    2d0e:	2a02      	cmp	r2, #2
    2d10:	d819      	bhi.n	2d46 <_ZN16FileConfigSource4readESt6vectorItSaItEE+0xf6>
    2d12:	2100      	movs	r1, #0
    2d14:	4628      	mov	r0, r5
    2d16:	460b      	mov	r3, r1
    2d18:	f002 f98c 	bl	5034 <_ZNSs9_M_mutateEjjj>
    2d1c:	1c62      	adds	r2, r4, #1
    2d1e:	d1bd      	bne.n	2c9c <_ZN16FileConfigSource4readESt6vectorItSaItEE+0x4c>
    2d20:	4638      	mov	r0, r7
    2d22:	f003 faef 	bl	6304 <fclose>
    2d26:	9b02      	ldr	r3, [sp, #8]
    2d28:	f1a3 000c 	sub.w	r0, r3, #12
    2d2c:	42b0      	cmp	r0, r6
    2d2e:	d09d      	beq.n	2c6c <_ZN16FileConfigSource4readESt6vectorItSaItEE+0x1c>
    2d30:	f853 2c04 	ldr.w	r2, [r3, #-4]
    2d34:	1e51      	subs	r1, r2, #1
    2d36:	2a00      	cmp	r2, #0
    2d38:	f843 1c04 	str.w	r1, [r3, #-4]
    2d3c:	dc96      	bgt.n	2c6c <_ZN16FileConfigSource4readESt6vectorItSaItEE+0x1c>
    2d3e:	a901      	add	r1, sp, #4
    2d40:	f002 f968 	bl	5014 <_ZNSs4_Rep10_M_destroyERKSaIcE>
    2d44:	e792      	b.n	2c6c <_ZN16FileConfigSource4readESt6vectorItSaItEE+0x1c>
    2d46:	2200      	movs	r2, #0
    2d48:	2301      	movs	r3, #1
    2d4a:	496f      	ldr	r1, [pc, #444]	; (2f08 <_ZN16FileConfigSource4readESt6vectorItSaItEE+0x2b8>)
    2d4c:	4628      	mov	r0, r5
    2d4e:	f002 f911 	bl	4f74 <_ZNKSs17find_first_not_ofEPKcjj>
    2d52:	4682      	mov	r10, r0
    2d54:	2301      	movs	r3, #1
    2d56:	496c      	ldr	r1, [pc, #432]	; (2f08 <_ZN16FileConfigSource4readESt6vectorItSaItEE+0x2b8>)
    2d58:	4652      	mov	r2, r10
    2d5a:	4628      	mov	r0, r5
    2d5c:	f002 f8f1 	bl	4f42 <_ZNKSs13find_first_ofEPKcjj>
    2d60:	2301      	movs	r3, #1
    2d62:	4602      	mov	r2, r0
    2d64:	4968      	ldr	r1, [pc, #416]	; (2f08 <_ZN16FileConfigSource4readESt6vectorItSaItEE+0x2b8>)
    2d66:	4628      	mov	r0, r5
    2d68:	f002 f904 	bl	4f74 <_ZNKSs17find_first_not_ofEPKcjj>
    2d6c:	2301      	movs	r3, #1
    2d6e:	4966      	ldr	r1, [pc, #408]	; (2f08 <_ZN16FileConfigSource4readESt6vectorItSaItEE+0x2b8>)
    2d70:	4683      	mov	r11, r0
    2d72:	4652      	mov	r2, r10
    2d74:	4628      	mov	r0, r5
    2d76:	f002 f8e4 	bl	4f42 <_ZNKSs13find_first_ofEPKcjj>
    2d7a:	ebca 0300 	rsb	r3, r10, r0
    2d7e:	9802      	ldr	r0, [sp, #8]
    2d80:	f850 1c0c 	ldr.w	r1, [r0, #-12]
    2d84:	458a      	cmp	r10, r1
    2d86:	f200 8090 	bhi.w	2eaa <_ZN16FileConfigSource4readESt6vectorItSaItEE+0x25a>
    2d8a:	4629      	mov	r1, r5
    2d8c:	4652      	mov	r2, r10
    2d8e:	a804      	add	r0, sp, #16
    2d90:	f002 fa84 	bl	529c <_ZNSsC1ERKSsjj>
    2d94:	2201      	movs	r2, #1
    2d96:	495c      	ldr	r1, [pc, #368]	; (2f08 <_ZN16FileConfigSource4readESt6vectorItSaItEE+0x2b8>)
    2d98:	a804      	add	r0, sp, #16
    2d9a:	f002 fa1f 	bl	51dc <_ZNSs6appendEPKcj>
    2d9e:	4601      	mov	r1, r0
    2da0:	a803      	add	r0, sp, #12
    2da2:	f002 f9f0 	bl	5186 <_ZNSsC1ERKSs>
    2da6:	9b04      	ldr	r3, [sp, #16]
    2da8:	f1a3 000c 	sub.w	r0, r3, #12
    2dac:	42b0      	cmp	r0, r6
    2dae:	d17f      	bne.n	2eb0 <_ZN16FileConfigSource4readESt6vectorItSaItEE+0x260>
    2db0:	a903      	add	r1, sp, #12
    2db2:	a804      	add	r0, sp, #16
    2db4:	f002 f9e7 	bl	5186 <_ZNSsC1ERKSs>
    2db8:	a805      	add	r0, sp, #20
    2dba:	a904      	add	r1, sp, #16
    2dbc:	f7ff f8ba 	bl	1f34 <_Z13get_checksumsSs>
    2dc0:	9b04      	ldr	r3, [sp, #16]
    2dc2:	f1a3 000c 	sub.w	r0, r3, #12
    2dc6:	42b0      	cmp	r0, r6
    2dc8:	d164      	bne.n	2e94 <_ZN16FileConfigSource4readESt6vectorItSaItEE+0x244>
    2dca:	e898 0005 	ldmia.w	r8, {r0, r2}
    2dce:	1a13      	subs	r3, r2, r0
    2dd0:	105a      	asrs	r2, r3, #1
    2dd2:	9905      	ldr	r1, [sp, #20]
    2dd4:	9b06      	ldr	r3, [sp, #24]
    2dd6:	1a5b      	subs	r3, r3, r1
    2dd8:	ebb2 0f63 	cmp.w	r2, r3, asr #1
    2ddc:	d01b      	beq.n	2e16 <_ZN16FileConfigSource4readESt6vectorItSaItEE+0x1c6>
    2dde:	9a02      	ldr	r2, [sp, #8]
    2de0:	2100      	movs	r1, #0
    2de2:	4628      	mov	r0, r5
    2de4:	f852 2c0c 	ldr.w	r2, [r2, #-12]
    2de8:	460b      	mov	r3, r1
    2dea:	f002 f923 	bl	5034 <_ZNSs9_M_mutateEjjj>
    2dee:	9805      	ldr	r0, [sp, #20]
    2df0:	b108      	cbz	r0, 2df6 <_ZN16FileConfigSource4readESt6vectorItSaItEE+0x1a6>
    2df2:	f001 fd63 	bl	48bc <_ZdlPv>
    2df6:	9b03      	ldr	r3, [sp, #12]
    2df8:	f1a3 000c 	sub.w	r0, r3, #12
    2dfc:	42b0      	cmp	r0, r6
    2dfe:	d08d      	beq.n	2d1c <_ZN16FileConfigSource4readESt6vectorItSaItEE+0xcc>
    2e00:	f853 2c04 	ldr.w	r2, [r3, #-4]
    2e04:	1e51      	subs	r1, r2, #1
    2e06:	2a00      	cmp	r2, #0
    2e08:	f843 1c04 	str.w	r1, [r3, #-4]
    2e0c:	dc86      	bgt.n	2d1c <_ZN16FileConfigSource4readESt6vectorItSaItEE+0xcc>
    2e0e:	a901      	add	r1, sp, #4
    2e10:	f002 f900 	bl	5014 <_ZNSs4_Rep10_M_destroyERKSaIcE>
    2e14:	e782      	b.n	2d1c <_ZN16FileConfigSource4readESt6vectorItSaItEE+0xcc>
    2e16:	0052      	lsls	r2, r2, #1
    2e18:	f004 f852 	bl	6ec0 <memcmp>
    2e1c:	2800      	cmp	r0, #0
    2e1e:	d1de      	bne.n	2dde <_ZN16FileConfigSource4readESt6vectorItSaItEE+0x18e>
    2e20:	2304      	movs	r3, #4
    2e22:	f10b 0201 	add.w	r2, r11, #1
    2e26:	4628      	mov	r0, r5
    2e28:	4938      	ldr	r1, [pc, #224]	; (2f0c <_ZN16FileConfigSource4readESt6vectorItSaItEE+0x2bc>)
    2e2a:	f002 f88a 	bl	4f42 <_ZNKSs13find_first_ofEPKcjj>
    2e2e:	ebcb 0300 	rsb	r3, r11, r0
    2e32:	9802      	ldr	r0, [sp, #8]
    2e34:	f850 2c0c 	ldr.w	r2, [r0, #-12]
    2e38:	455a      	cmp	r2, r11
    2e3a:	d336      	bcc.n	2eaa <_ZN16FileConfigSource4readESt6vectorItSaItEE+0x25a>
    2e3c:	465a      	mov	r2, r11
    2e3e:	4629      	mov	r1, r5
    2e40:	a804      	add	r0, sp, #16
    2e42:	f002 fa2b 	bl	529c <_ZNSsC1ERKSsjj>
    2e46:	4648      	mov	r0, r9
    2e48:	a904      	add	r1, sp, #16
    2e4a:	f002 f987 	bl	515c <_ZNSs6assignERKSs>
    2e4e:	9b04      	ldr	r3, [sp, #16]
    2e50:	f1a3 000c 	sub.w	r0, r3, #12
    2e54:	42b0      	cmp	r0, r6
    2e56:	d137      	bne.n	2ec8 <_ZN16FileConfigSource4readESt6vectorItSaItEE+0x278>
    2e58:	9805      	ldr	r0, [sp, #20]
    2e5a:	b108      	cbz	r0, 2e60 <_ZN16FileConfigSource4readESt6vectorItSaItEE+0x210>
    2e5c:	f001 fd2e 	bl	48bc <_ZdlPv>
    2e60:	9b03      	ldr	r3, [sp, #12]
    2e62:	f1a3 000c 	sub.w	r0, r3, #12
    2e66:	42b0      	cmp	r0, r6
    2e68:	f43f af5a 	beq.w	2d20 <_ZN16FileConfigSource4readESt6vectorItSaItEE+0xd0>
    2e6c:	f853 2c04 	ldr.w	r2, [r3, #-4]
    2e70:	1e51      	subs	r1, r2, #1
    2e72:	2a00      	cmp	r2, #0
    2e74:	f843 1c04 	str.w	r1, [r3, #-4]
    2e78:	f73f af52 	bgt.w	2d20 <_ZN16FileConfigSource4readESt6vectorItSaItEE+0xd0>
    2e7c:	a901      	add	r1, sp, #4
    2e7e:	f002 f8c9 	bl	5014 <_ZNSs4_Rep10_M_destroyERKSaIcE>
    2e82:	e74d      	b.n	2d20 <_ZN16FileConfigSource4readESt6vectorItSaItEE+0xd0>
    2e84:	2100      	movs	r1, #0
    2e86:	f853 2c0c 	ldr.w	r2, [r3, #-12]
    2e8a:	4628      	mov	r0, r5
    2e8c:	460b      	mov	r3, r1
    2e8e:	f002 f8d1 	bl	5034 <_ZNSs9_M_mutateEjjj>
    2e92:	e743      	b.n	2d1c <_ZN16FileConfigSource4readESt6vectorItSaItEE+0xcc>
    2e94:	f853 2c04 	ldr.w	r2, [r3, #-4]
    2e98:	1e51      	subs	r1, r2, #1
    2e9a:	2a00      	cmp	r2, #0
    2e9c:	f843 1c04 	str.w	r1, [r3, #-4]
    2ea0:	dc93      	bgt.n	2dca <_ZN16FileConfigSource4readESt6vectorItSaItEE+0x17a>
    2ea2:	a901      	add	r1, sp, #4
    2ea4:	f002 f8b6 	bl	5014 <_ZNSs4_Rep10_M_destroyERKSaIcE>
    2ea8:	e78f      	b.n	2dca <_ZN16FileConfigSource4readESt6vectorItSaItEE+0x17a>
    2eaa:	4819      	ldr	r0, [pc, #100]	; (2f10 <_ZN16FileConfigSource4readESt6vectorItSaItEE+0x2c0>)
    2eac:	f001 fffd 	bl	4eaa <_ZSt20__throw_out_of_rangePKc>
    2eb0:	f853 2c04 	ldr.w	r2, [r3, #-4]
    2eb4:	1e51      	subs	r1, r2, #1
    2eb6:	2a00      	cmp	r2, #0
    2eb8:	f843 1c04 	str.w	r1, [r3, #-4]
    2ebc:	f73f af78 	bgt.w	2db0 <_ZN16FileConfigSource4readESt6vectorItSaItEE+0x160>
    2ec0:	a901      	add	r1, sp, #4
    2ec2:	f002 f8a7 	bl	5014 <_ZNSs4_Rep10_M_destroyERKSaIcE>
    2ec6:	e773      	b.n	2db0 <_ZN16FileConfigSource4readESt6vectorItSaItEE+0x160>
    2ec8:	f853 2c04 	ldr.w	r2, [r3, #-4]
    2ecc:	1e51      	subs	r1, r2, #1
    2ece:	2a00      	cmp	r2, #0
    2ed0:	f843 1c04 	str.w	r1, [r3, #-4]
    2ed4:	dcc0      	bgt.n	2e58 <_ZN16FileConfigSource4readESt6vectorItSaItEE+0x208>
    2ed6:	a901      	add	r1, sp, #4
    2ed8:	f002 f89c 	bl	5014 <_ZNSs4_Rep10_M_destroyERKSaIcE>
    2edc:	e7bc      	b.n	2e58 <_ZN16FileConfigSource4readESt6vectorItSaItEE+0x208>
    2ede:	f853 2c04 	ldr.w	r2, [r3, #-4]
    2ee2:	1e51      	subs	r1, r2, #1
    2ee4:	2a00      	cmp	r2, #0
    2ee6:	f843 1c04 	str.w	r1, [r3, #-4]
    2eea:	f73f aed3 	bgt.w	2c94 <_ZN16FileConfigSource4readESt6vectorItSaItEE+0x44>
    2eee:	a901      	add	r1, sp, #4
    2ef0:	f002 f890 	bl	5014 <_ZNSs4_Rep10_M_destroyERKSaIcE>
    2ef4:	e6ce      	b.n	2c94 <_ZN16FileConfigSource4readESt6vectorItSaItEE+0x44>
    2ef6:	bf00      	nop
    2ef8:	00009020 	.word	0x00009020
    2efc:	00008e9c 	.word	0x00008e9c
    2f00:	10000964 	.word	0x10000964
    2f04:	10000970 	.word	0x10000970
    2f08:	00008e80 	.word	0x00008e80
    2f0c:	00009024 	.word	0x00009024
    2f10:	00008e84 	.word	0x00008e84

00002f14 <_ZN16FileConfigSource24transfer_values_to_cacheEP11ConfigCache>:
    2f14:	e92d 4ff0 	stmdb	sp!, {r4, r5, r6, r7, r8, r9, r10, r11, lr}
    2f18:	4604      	mov	r4, r0
    2f1a:	b091      	sub	sp, #68	; 0x44
    2f1c:	2028      	movs	r0, #40	; 0x28
    2f1e:	9101      	str	r1, [sp, #4]
    2f20:	f001 fcd0 	bl	48c4 <_Znwj>
    2f24:	4992      	ldr	r1, [pc, #584]	; (3170 <_ZN16FileConfigSource24transfer_values_to_cacheEP11ConfigCache+0x25c>)
    2f26:	2200      	movs	r2, #0
    2f28:	e880 0006 	stmia.w	r0, {r1, r2}
    2f2c:	6082      	str	r2, [r0, #8]
    2f2e:	60c2      	str	r2, [r0, #12]
    2f30:	6201      	str	r1, [r0, #32]
    2f32:	7482      	strb	r2, [r0, #18]
    2f34:	74c2      	strb	r2, [r0, #19]
    2f36:	4620      	mov	r0, r4
    2f38:	f7ff fe34 	bl	2ba4 <_ZN16FileConfigSource15has_config_fileEv>
    2f3c:	b910      	cbnz	r0, 2f44 <_ZN16FileConfigSource24transfer_values_to_cacheEP11ConfigCache+0x30>
    2f3e:	b011      	add	sp, #68	; 0x44
    2f40:	e8bd 8ff0 	ldmia.w	sp!, {r4, r5, r6, r7, r8, r9, r10, r11, pc}
    2f44:	a80b      	add	r0, sp, #44	; 0x2c
    2f46:	4621      	mov	r1, r4
    2f48:	f7ff fe6a 	bl	2c20 <_ZN16FileConfigSource15get_config_fileEv>
    2f4c:	980b      	ldr	r0, [sp, #44]	; 0x2c
    2f4e:	4989      	ldr	r1, [pc, #548]	; (3174 <_ZN16FileConfigSource24transfer_values_to_cacheEP11ConfigCache+0x260>)
    2f50:	f003 fbc8 	bl	66e4 <fopen>
    2f54:	9b0b      	ldr	r3, [sp, #44]	; 0x2c
    2f56:	4a86      	ldr	r2, [pc, #536]	; (3170 <_ZN16FileConfigSource24transfer_values_to_cacheEP11ConfigCache+0x25c>)
    2f58:	9002      	str	r0, [sp, #8]
    2f5a:	f1a2 090c 	sub.w	r9, r2, #12
    2f5e:	f1a3 000c 	sub.w	r0, r3, #12
    2f62:	4548      	cmp	r0, r9
    2f64:	f040 8193 	bne.w	328e <_ZN16FileConfigSource24transfer_values_to_cacheEP11ConfigCache+0x37a>
    2f68:	4881      	ldr	r0, [pc, #516]	; (3170 <_ZN16FileConfigSource24transfer_values_to_cacheEP11ConfigCache+0x25c>)
    2f6a:	f10d 0840 	add.w	r8, sp, #64	; 0x40
    2f6e:	f848 0d1c 	str.w	r0, [r8, #-28]!
    2f72:	9802      	ldr	r0, [sp, #8]
    2f74:	f003 fab0 	bl	64d8 <fgetc>
    2f78:	280a      	cmp	r0, #10
    2f7a:	4605      	mov	r5, r0
    2f7c:	9b09      	ldr	r3, [sp, #36]	; 0x24
    2f7e:	d021      	beq.n	2fc4 <_ZN16FileConfigSource24transfer_values_to_cacheEP11ConfigCache+0xb0>
    2f80:	1c42      	adds	r2, r0, #1
    2f82:	d01f      	beq.n	2fc4 <_ZN16FileConfigSource24transfer_values_to_cacheEP11ConfigCache+0xb0>
    2f84:	f853 2c0c 	ldr.w	r2, [r3, #-12]
    2f88:	f853 1c08 	ldr.w	r1, [r3, #-8]
    2f8c:	1c54      	adds	r4, r2, #1
    2f8e:	428c      	cmp	r4, r1
    2f90:	b2c5      	uxtb	r5, r0
    2f92:	d803      	bhi.n	2f9c <_ZN16FileConfigSource24transfer_values_to_cacheEP11ConfigCache+0x88>
    2f94:	f853 0c04 	ldr.w	r0, [r3, #-4]
    2f98:	2800      	cmp	r0, #0
    2f9a:	dd06      	ble.n	2faa <_ZN16FileConfigSource24transfer_values_to_cacheEP11ConfigCache+0x96>
    2f9c:	4640      	mov	r0, r8
    2f9e:	4621      	mov	r1, r4
    2fa0:	f002 f8fc 	bl	519c <_ZNSs7reserveEj>
    2fa4:	9b09      	ldr	r3, [sp, #36]	; 0x24
    2fa6:	f853 2c0c 	ldr.w	r2, [r3, #-12]
    2faa:	549d      	strb	r5, [r3, r2]
    2fac:	9d09      	ldr	r5, [sp, #36]	; 0x24
    2fae:	f1a5 010c 	sub.w	r1, r5, #12
    2fb2:	4549      	cmp	r1, r9
    2fb4:	d0dd      	beq.n	2f72 <_ZN16FileConfigSource24transfer_values_to_cacheEP11ConfigCache+0x5e>
    2fb6:	2000      	movs	r0, #0
    2fb8:	f845 0c04 	str.w	r0, [r5, #-4]
    2fbc:	f845 4c0c 	str.w	r4, [r5, #-12]
    2fc0:	5528      	strb	r0, [r5, r4]
    2fc2:	e7d6      	b.n	2f72 <_ZN16FileConfigSource24transfer_values_to_cacheEP11ConfigCache+0x5e>
    2fc4:	f853 2c04 	ldr.w	r2, [r3, #-4]
    2fc8:	2a00      	cmp	r2, #0
    2fca:	db03      	blt.n	2fd4 <_ZN16FileConfigSource24transfer_values_to_cacheEP11ConfigCache+0xc0>
    2fcc:	4640      	mov	r0, r8
    2fce:	f002 f87f 	bl	50d0 <_ZNSs12_M_leak_hardEv>
    2fd2:	9b09      	ldr	r3, [sp, #36]	; 0x24
    2fd4:	7819      	ldrb	r1, [r3, #0]
    2fd6:	2923      	cmp	r1, #35	; 0x23
    2fd8:	f000 813f 	beq.w	325a <_ZN16FileConfigSource24transfer_values_to_cacheEP11ConfigCache+0x346>
    2fdc:	f853 2c0c 	ldr.w	r2, [r3, #-12]
    2fe0:	2a02      	cmp	r2, #2
    2fe2:	d819      	bhi.n	3018 <_ZN16FileConfigSource24transfer_values_to_cacheEP11ConfigCache+0x104>
    2fe4:	2100      	movs	r1, #0
    2fe6:	4640      	mov	r0, r8
    2fe8:	460b      	mov	r3, r1
    2fea:	f002 f823 	bl	5034 <_ZNSs9_M_mutateEjjj>
    2fee:	1c68      	adds	r0, r5, #1
    2ff0:	d1bf      	bne.n	2f72 <_ZN16FileConfigSource24transfer_values_to_cacheEP11ConfigCache+0x5e>
    2ff2:	9802      	ldr	r0, [sp, #8]
    2ff4:	f003 f986 	bl	6304 <fclose>
    2ff8:	9b09      	ldr	r3, [sp, #36]	; 0x24
    2ffa:	f1a3 000c 	sub.w	r0, r3, #12
    2ffe:	4548      	cmp	r0, r9
    3000:	d09d      	beq.n	2f3e <_ZN16FileConfigSource24transfer_values_to_cacheEP11ConfigCache+0x2a>
    3002:	f853 2c04 	ldr.w	r2, [r3, #-4]
    3006:	1e51      	subs	r1, r2, #1
    3008:	2a00      	cmp	r2, #0
    300a:	f843 1c04 	str.w	r1, [r3, #-4]
    300e:	dc96      	bgt.n	2f3e <_ZN16FileConfigSource24transfer_values_to_cacheEP11ConfigCache+0x2a>
    3010:	a908      	add	r1, sp, #32
    3012:	f001 ffff 	bl	5014 <_ZNSs4_Rep10_M_destroyERKSaIcE>
    3016:	e792      	b.n	2f3e <_ZN16FileConfigSource24transfer_values_to_cacheEP11ConfigCache+0x2a>
    3018:	2200      	movs	r2, #0
    301a:	2301      	movs	r3, #1
    301c:	4956      	ldr	r1, [pc, #344]	; (3178 <_ZN16FileConfigSource24transfer_values_to_cacheEP11ConfigCache+0x264>)
    301e:	4640      	mov	r0, r8
    3020:	f001 ffa8 	bl	4f74 <_ZNKSs17find_first_not_ofEPKcjj>
    3024:	4604      	mov	r4, r0
    3026:	2301      	movs	r3, #1
    3028:	4953      	ldr	r1, [pc, #332]	; (3178 <_ZN16FileConfigSource24transfer_values_to_cacheEP11ConfigCache+0x264>)
    302a:	4622      	mov	r2, r4
    302c:	4640      	mov	r0, r8
    302e:	f001 ff88 	bl	4f42 <_ZNKSs13find_first_ofEPKcjj>
    3032:	2301      	movs	r3, #1
    3034:	4602      	mov	r2, r0
    3036:	4950      	ldr	r1, [pc, #320]	; (3178 <_ZN16FileConfigSource24transfer_values_to_cacheEP11ConfigCache+0x264>)
    3038:	4640      	mov	r0, r8
    303a:	f001 ff9b 	bl	4f74 <_ZNKSs17find_first_not_ofEPKcjj>
    303e:	2301      	movs	r3, #1
    3040:	4607      	mov	r7, r0
    3042:	494d      	ldr	r1, [pc, #308]	; (3178 <_ZN16FileConfigSource24transfer_values_to_cacheEP11ConfigCache+0x264>)
    3044:	4640      	mov	r0, r8
    3046:	4622      	mov	r2, r4
    3048:	f001 ff7b 	bl	4f42 <_ZNKSs13find_first_ofEPKcjj>
    304c:	9e09      	ldr	r6, [sp, #36]	; 0x24
    304e:	1b03      	subs	r3, r0, r4
    3050:	f856 0c0c 	ldr.w	r0, [r6, #-12]
    3054:	4284      	cmp	r4, r0
    3056:	f200 8126 	bhi.w	32a6 <_ZN16FileConfigSource24transfer_values_to_cacheEP11ConfigCache+0x392>
    305a:	4641      	mov	r1, r8
    305c:	4622      	mov	r2, r4
    305e:	a80b      	add	r0, sp, #44	; 0x2c
    3060:	f002 f91c 	bl	529c <_ZNSsC1ERKSsjj>
    3064:	2201      	movs	r2, #1
    3066:	4944      	ldr	r1, [pc, #272]	; (3178 <_ZN16FileConfigSource24transfer_values_to_cacheEP11ConfigCache+0x264>)
    3068:	a80b      	add	r0, sp, #44	; 0x2c
    306a:	f002 f8b7 	bl	51dc <_ZNSs6appendEPKcj>
    306e:	4601      	mov	r1, r0
    3070:	a80a      	add	r0, sp, #40	; 0x28
    3072:	f002 f888 	bl	5186 <_ZNSsC1ERKSs>
    3076:	9b0b      	ldr	r3, [sp, #44]	; 0x2c
    3078:	f1a3 000c 	sub.w	r0, r3, #12
    307c:	4548      	cmp	r0, r9
    307e:	f040 8115 	bne.w	32ac <_ZN16FileConfigSource24transfer_values_to_cacheEP11ConfigCache+0x398>
    3082:	a90a      	add	r1, sp, #40	; 0x28
    3084:	a80b      	add	r0, sp, #44	; 0x2c
    3086:	f002 f87e 	bl	5186 <_ZNSsC1ERKSs>
    308a:	a80d      	add	r0, sp, #52	; 0x34
    308c:	a90b      	add	r1, sp, #44	; 0x2c
    308e:	f7fe ff51 	bl	1f34 <_Z13get_checksumsSs>
    3092:	9e0b      	ldr	r6, [sp, #44]	; 0x2c
    3094:	f1a6 000c 	sub.w	r0, r6, #12
    3098:	4548      	cmp	r0, r9
    309a:	f040 8113 	bne.w	32c4 <_ZN16FileConfigSource24transfer_values_to_cacheEP11ConfigCache+0x3b0>
    309e:	2028      	movs	r0, #40	; 0x28
    30a0:	f001 fc10 	bl	48c4 <_Znwj>
    30a4:	4606      	mov	r6, r0
    30a6:	4832      	ldr	r0, [pc, #200]	; (3170 <_ZN16FileConfigSource24transfer_values_to_cacheEP11ConfigCache+0x25c>)
    30a8:	2300      	movs	r3, #0
    30aa:	2201      	movs	r2, #1
    30ac:	a90d      	add	r1, sp, #52	; 0x34
    30ae:	6030      	str	r0, [r6, #0]
    30b0:	6073      	str	r3, [r6, #4]
    30b2:	60b3      	str	r3, [r6, #8]
    30b4:	60f3      	str	r3, [r6, #12]
    30b6:	6230      	str	r0, [r6, #32]
    30b8:	74f3      	strb	r3, [r6, #19]
    30ba:	74b2      	strb	r2, [r6, #18]
    30bc:	1d30      	adds	r0, r6, #4
    30be:	f7fe ffff 	bl	20c0 <_ZNSt6vectorItSaItEEaSERKS1_>
    30c2:	2304      	movs	r3, #4
    30c4:	492d      	ldr	r1, [pc, #180]	; (317c <_ZN16FileConfigSource24transfer_values_to_cacheEP11ConfigCache+0x268>)
    30c6:	1c7a      	adds	r2, r7, #1
    30c8:	4640      	mov	r0, r8
    30ca:	f001 ff3a 	bl	4f42 <_ZNKSs13find_first_ofEPKcjj>
    30ce:	9909      	ldr	r1, [sp, #36]	; 0x24
    30d0:	1bc3      	subs	r3, r0, r7
    30d2:	f851 0c0c 	ldr.w	r0, [r1, #-12]
    30d6:	4287      	cmp	r7, r0
    30d8:	f200 80e5 	bhi.w	32a6 <_ZN16FileConfigSource24transfer_values_to_cacheEP11ConfigCache+0x392>
    30dc:	463a      	mov	r2, r7
    30de:	4641      	mov	r1, r8
    30e0:	a80b      	add	r0, sp, #44	; 0x2c
    30e2:	f002 f8db 	bl	529c <_ZNSsC1ERKSsjj>
    30e6:	4630      	mov	r0, r6
    30e8:	a90b      	add	r1, sp, #44	; 0x2c
    30ea:	f002 f837 	bl	515c <_ZNSs6assignERKSs>
    30ee:	9b0b      	ldr	r3, [sp, #44]	; 0x2c
    30f0:	f1a3 000c 	sub.w	r0, r3, #12
    30f4:	4548      	cmp	r0, r9
    30f6:	f040 80f1 	bne.w	32dc <_ZN16FileConfigSource24transfer_values_to_cacheEP11ConfigCache+0x3c8>
    30fa:	9801      	ldr	r0, [sp, #4]
    30fc:	9a01      	ldr	r2, [sp, #4]
    30fe:	6843      	ldr	r3, [r0, #4]
    3100:	6811      	ldr	r1, [r2, #0]
    3102:	9306      	str	r3, [sp, #24]
    3104:	1a5b      	subs	r3, r3, r1
    3106:	109b      	asrs	r3, r3, #2
    3108:	2b01      	cmp	r3, #1
    310a:	9100      	str	r1, [sp, #0]
    310c:	960c      	str	r6, [sp, #48]	; 0x30
    310e:	9303      	str	r3, [sp, #12]
    3110:	f240 8095 	bls.w	323e <_ZN16FileConfigSource24transfer_values_to_cacheEP11ConfigCache+0x32a>
    3114:	6870      	ldr	r0, [r6, #4]
    3116:	68b7      	ldr	r7, [r6, #8]
    3118:	1a3a      	subs	r2, r7, r0
    311a:	1051      	asrs	r1, r2, #1
    311c:	f000 80b0 	beq.w	3280 <_ZN16FileConfigSource24transfer_values_to_cacheEP11ConfigCache+0x36c>
    3120:	8807      	ldrh	r7, [r0, #0]
    3122:	f04f 0e01 	mov.w	lr, #1
    3126:	9704      	str	r7, [sp, #16]
    3128:	9607      	str	r6, [sp, #28]
    312a:	4677      	mov	r7, lr
    312c:	461e      	mov	r6, r3
    312e:	4684      	mov	r12, r0
    3130:	42be      	cmp	r6, r7
    3132:	f240 80a2 	bls.w	327a <_ZN16FileConfigSource24transfer_values_to_cacheEP11ConfigCache+0x366>
    3136:	9a00      	ldr	r2, [sp, #0]
    3138:	00bb      	lsls	r3, r7, #2
    313a:	f852 0027 	ldr.w	r0, [r2, r7, lsl #2]
    313e:	9305      	str	r3, [sp, #20]
    3140:	f8d0 a004 	ldr.w	r10, [r0, #4]
    3144:	9a04      	ldr	r2, [sp, #16]
    3146:	f8ba 3000 	ldrh.w	r3, [r10]
    314a:	4293      	cmp	r3, r2
    314c:	d170      	bne.n	3230 <_ZN16FileConfigSource24transfer_values_to_cacheEP11ConfigCache+0x31c>
    314e:	2400      	movs	r4, #0
    3150:	f011 0f01 	tst.w	r1, #1
    3154:	4663      	mov	r3, r12
    3156:	4652      	mov	r2, r10
    3158:	d11f      	bne.n	319a <_ZN16FileConfigSource24transfer_values_to_cacheEP11ConfigCache+0x286>
    315a:	4663      	mov	r3, r12
    315c:	f833 bf02 	ldrh.w	r11, [r3, #2]!
    3160:	f8ba a002 	ldrh.w	r10, [r10, #2]
    3164:	2401      	movs	r4, #1
    3166:	3202      	adds	r2, #2
    3168:	45d3      	cmp	r11, r10
    316a:	d016      	beq.n	319a <_ZN16FileConfigSource24transfer_values_to_cacheEP11ConfigCache+0x286>
    316c:	e060      	b.n	3230 <_ZN16FileConfigSource24transfer_values_to_cacheEP11ConfigCache+0x31c>
    316e:	bf00      	nop
    3170:	10000970 	.word	0x10000970
    3174:	00008e9c 	.word	0x00008e9c
    3178:	00008e80 	.word	0x00008e80
    317c:	00009024 	.word	0x00009024
    3180:	f833 bf02 	ldrh.w	r11, [r3, #2]!
    3184:	f832 af02 	ldrh.w	r10, [r2, #2]!
    3188:	45d3      	cmp	r11, r10
    318a:	d151      	bne.n	3230 <_ZN16FileConfigSource24transfer_values_to_cacheEP11ConfigCache+0x31c>
    318c:	f833 bf02 	ldrh.w	r11, [r3, #2]!
    3190:	f832 af02 	ldrh.w	r10, [r2, #2]!
    3194:	3401      	adds	r4, #1
    3196:	45d3      	cmp	r11, r10
    3198:	d14a      	bne.n	3230 <_ZN16FileConfigSource24transfer_values_to_cacheEP11ConfigCache+0x31c>
    319a:	3401      	adds	r4, #1
    319c:	42a1      	cmp	r1, r4
    319e:	d1ef      	bne.n	3180 <_ZN16FileConfigSource24transfer_values_to_cacheEP11ConfigCache+0x26c>
    31a0:	4682      	mov	r10, r0
    31a2:	f1ba 0f00 	cmp.w	r10, #0
    31a6:	d01e      	beq.n	31e6 <_ZN16FileConfigSource24transfer_values_to_cacheEP11ConfigCache+0x2d2>
    31a8:	f8da 3020 	ldr.w	r3, [r10, #32]
    31ac:	f1a3 000c 	sub.w	r0, r3, #12
    31b0:	4548      	cmp	r0, r9
    31b2:	f040 809f 	bne.w	32f4 <_ZN16FileConfigSource24transfer_values_to_cacheEP11ConfigCache+0x3e0>
    31b6:	f8da 0004 	ldr.w	r0, [r10, #4]
    31ba:	b108      	cbz	r0, 31c0 <_ZN16FileConfigSource24transfer_values_to_cacheEP11ConfigCache+0x2ac>
    31bc:	f001 fb7e 	bl	48bc <_ZdlPv>
    31c0:	f8da 3000 	ldr.w	r3, [r10]
    31c4:	f1a3 000c 	sub.w	r0, r3, #12
    31c8:	4548      	cmp	r0, r9
    31ca:	f040 809f 	bne.w	330c <_ZN16FileConfigSource24transfer_values_to_cacheEP11ConfigCache+0x3f8>
    31ce:	4650      	mov	r0, r10
    31d0:	f001 fb74 	bl	48bc <_ZdlPv>
    31d4:	9801      	ldr	r0, [sp, #4]
    31d6:	9a01      	ldr	r2, [sp, #4]
    31d8:	6803      	ldr	r3, [r0, #0]
    31da:	6851      	ldr	r1, [r2, #4]
    31dc:	9300      	str	r3, [sp, #0]
    31de:	9800      	ldr	r0, [sp, #0]
    31e0:	1a0b      	subs	r3, r1, r0
    31e2:	109a      	asrs	r2, r3, #2
    31e4:	9203      	str	r2, [sp, #12]
    31e6:	9903      	ldr	r1, [sp, #12]
    31e8:	428f      	cmp	r7, r1
    31ea:	d246      	bcs.n	327a <_ZN16FileConfigSource24transfer_values_to_cacheEP11ConfigCache+0x366>
    31ec:	980c      	ldr	r0, [sp, #48]	; 0x30
    31ee:	9b00      	ldr	r3, [sp, #0]
    31f0:	9a05      	ldr	r2, [sp, #20]
    31f2:	5098      	str	r0, [r3, r2]
    31f4:	9b09      	ldr	r3, [sp, #36]	; 0x24
    31f6:	2100      	movs	r1, #0
    31f8:	4640      	mov	r0, r8
    31fa:	f853 2c0c 	ldr.w	r2, [r3, #-12]
    31fe:	460b      	mov	r3, r1
    3200:	f001 ff18 	bl	5034 <_ZNSs9_M_mutateEjjj>
    3204:	980d      	ldr	r0, [sp, #52]	; 0x34
    3206:	b108      	cbz	r0, 320c <_ZN16FileConfigSource24transfer_values_to_cacheEP11ConfigCache+0x2f8>
    3208:	f001 fb58 	bl	48bc <_ZdlPv>
    320c:	9b0a      	ldr	r3, [sp, #40]	; 0x28
    320e:	f1a3 000c 	sub.w	r0, r3, #12
    3212:	4548      	cmp	r0, r9
    3214:	f43f aeeb 	beq.w	2fee <_ZN16FileConfigSource24transfer_values_to_cacheEP11ConfigCache+0xda>
    3218:	f853 2c04 	ldr.w	r2, [r3, #-4]
    321c:	1e51      	subs	r1, r2, #1
    321e:	2a00      	cmp	r2, #0
    3220:	f843 1c04 	str.w	r1, [r3, #-4]
    3224:	f73f aee3 	bgt.w	2fee <_ZN16FileConfigSource24transfer_values_to_cacheEP11ConfigCache+0xda>
    3228:	a908      	add	r1, sp, #32
    322a:	f001 fef3 	bl	5014 <_ZNSs4_Rep10_M_destroyERKSaIcE>
    322e:	e6de      	b.n	2fee <_ZN16FileConfigSource24transfer_values_to_cacheEP11ConfigCache+0xda>
    3230:	f10e 0e01 	add.w	lr, lr, #1
    3234:	45b6      	cmp	lr, r6
    3236:	4677      	mov	r7, lr
    3238:	f47f af7a 	bne.w	3130 <_ZN16FileConfigSource24transfer_values_to_cacheEP11ConfigCache+0x21c>
    323c:	9e07      	ldr	r6, [sp, #28]
    323e:	9901      	ldr	r1, [sp, #4]
    3240:	9b06      	ldr	r3, [sp, #24]
    3242:	6888      	ldr	r0, [r1, #8]
    3244:	4298      	cmp	r0, r3
    3246:	d012      	beq.n	326e <_ZN16FileConfigSource24transfer_values_to_cacheEP11ConfigCache+0x35a>
    3248:	9a06      	ldr	r2, [sp, #24]
    324a:	b172      	cbz	r2, 326a <_ZN16FileConfigSource24transfer_values_to_cacheEP11ConfigCache+0x356>
    324c:	9801      	ldr	r0, [sp, #4]
    324e:	6016      	str	r6, [r2, #0]
    3250:	6841      	ldr	r1, [r0, #4]
    3252:	9a01      	ldr	r2, [sp, #4]
    3254:	1d0b      	adds	r3, r1, #4
    3256:	6053      	str	r3, [r2, #4]
    3258:	e7cc      	b.n	31f4 <_ZN16FileConfigSource24transfer_values_to_cacheEP11ConfigCache+0x2e0>
    325a:	2100      	movs	r1, #0
    325c:	f853 2c0c 	ldr.w	r2, [r3, #-12]
    3260:	4640      	mov	r0, r8
    3262:	460b      	mov	r3, r1
    3264:	f001 fee6 	bl	5034 <_ZNSs9_M_mutateEjjj>
    3268:	e6c1      	b.n	2fee <_ZN16FileConfigSource24transfer_values_to_cacheEP11ConfigCache+0xda>
    326a:	9906      	ldr	r1, [sp, #24]
    326c:	e7f1      	b.n	3252 <_ZN16FileConfigSource24transfer_values_to_cacheEP11ConfigCache+0x33e>
    326e:	9801      	ldr	r0, [sp, #4]
    3270:	9906      	ldr	r1, [sp, #24]
    3272:	aa0c      	add	r2, sp, #48	; 0x30
    3274:	f7fe ff8a 	bl	218c <_ZNSt6vectorIP11ConfigValueSaIS1_EE13_M_insert_auxEN9__gnu_cxx17__normal_iteratorIPS1_S3_EERKS1_>
    3278:	e7bc      	b.n	31f4 <_ZN16FileConfigSource24transfer_values_to_cacheEP11ConfigCache+0x2e0>
    327a:	482a      	ldr	r0, [pc, #168]	; (3324 <_ZN16FileConfigSource24transfer_values_to_cacheEP11ConfigCache+0x410>)
    327c:	f001 fe15 	bl	4eaa <_ZSt20__throw_out_of_rangePKc>
    3280:	9b00      	ldr	r3, [sp, #0]
    3282:	2004      	movs	r0, #4
    3284:	f8d3 a004 	ldr.w	r10, [r3, #4]
    3288:	2701      	movs	r7, #1
    328a:	9005      	str	r0, [sp, #20]
    328c:	e789      	b.n	31a2 <_ZN16FileConfigSource24transfer_values_to_cacheEP11ConfigCache+0x28e>
    328e:	f853 5c04 	ldr.w	r5, [r3, #-4]
    3292:	1e69      	subs	r1, r5, #1
    3294:	2d00      	cmp	r5, #0
    3296:	f843 1c04 	str.w	r1, [r3, #-4]
    329a:	f73f ae65 	bgt.w	2f68 <_ZN16FileConfigSource24transfer_values_to_cacheEP11ConfigCache+0x54>
    329e:	a908      	add	r1, sp, #32
    32a0:	f001 feb8 	bl	5014 <_ZNSs4_Rep10_M_destroyERKSaIcE>
    32a4:	e660      	b.n	2f68 <_ZN16FileConfigSource24transfer_values_to_cacheEP11ConfigCache+0x54>
    32a6:	4820      	ldr	r0, [pc, #128]	; (3328 <_ZN16FileConfigSource24transfer_values_to_cacheEP11ConfigCache+0x414>)
    32a8:	f001 fdff 	bl	4eaa <_ZSt20__throw_out_of_rangePKc>
    32ac:	f853 2c04 	ldr.w	r2, [r3, #-4]
    32b0:	1e51      	subs	r1, r2, #1
    32b2:	2a00      	cmp	r2, #0
    32b4:	f843 1c04 	str.w	r1, [r3, #-4]
    32b8:	f73f aee3 	bgt.w	3082 <_ZN16FileConfigSource24transfer_values_to_cacheEP11ConfigCache+0x16e>
    32bc:	a908      	add	r1, sp, #32
    32be:	f001 fea9 	bl	5014 <_ZNSs4_Rep10_M_destroyERKSaIcE>
    32c2:	e6de      	b.n	3082 <_ZN16FileConfigSource24transfer_values_to_cacheEP11ConfigCache+0x16e>
    32c4:	f856 3c04 	ldr.w	r3, [r6, #-4]
    32c8:	1e5a      	subs	r2, r3, #1
    32ca:	2b00      	cmp	r3, #0
    32cc:	f846 2c04 	str.w	r2, [r6, #-4]
    32d0:	f73f aee5 	bgt.w	309e <_ZN16FileConfigSource24transfer_values_to_cacheEP11ConfigCache+0x18a>
    32d4:	a908      	add	r1, sp, #32
    32d6:	f001 fe9d 	bl	5014 <_ZNSs4_Rep10_M_destroyERKSaIcE>
    32da:	e6e0      	b.n	309e <_ZN16FileConfigSource24transfer_values_to_cacheEP11ConfigCache+0x18a>
    32dc:	f853 2c04 	ldr.w	r2, [r3, #-4]
    32e0:	1e51      	subs	r1, r2, #1
    32e2:	2a00      	cmp	r2, #0
    32e4:	f843 1c04 	str.w	r1, [r3, #-4]
    32e8:	f73f af07 	bgt.w	30fa <_ZN16FileConfigSource24transfer_values_to_cacheEP11ConfigCache+0x1e6>
    32ec:	a908      	add	r1, sp, #32
    32ee:	f001 fe91 	bl	5014 <_ZNSs4_Rep10_M_destroyERKSaIcE>
    32f2:	e702      	b.n	30fa <_ZN16FileConfigSource24transfer_values_to_cacheEP11ConfigCache+0x1e6>
    32f4:	f853 2c04 	ldr.w	r2, [r3, #-4]
    32f8:	1e51      	subs	r1, r2, #1
    32fa:	2a00      	cmp	r2, #0
    32fc:	f843 1c04 	str.w	r1, [r3, #-4]
    3300:	f73f af59 	bgt.w	31b6 <_ZN16FileConfigSource24transfer_values_to_cacheEP11ConfigCache+0x2a2>
    3304:	a908      	add	r1, sp, #32
    3306:	f001 fe85 	bl	5014 <_ZNSs4_Rep10_M_destroyERKSaIcE>
    330a:	e754      	b.n	31b6 <_ZN16FileConfigSource24transfer_values_to_cacheEP11ConfigCache+0x2a2>
    330c:	f853 2c04 	ldr.w	r2, [r3, #-4]
    3310:	1e51      	subs	r1, r2, #1
    3312:	2a00      	cmp	r2, #0
    3314:	f843 1c04 	str.w	r1, [r3, #-4]
    3318:	f73f af59 	bgt.w	31ce <_ZN16FileConfigSource24transfer_values_to_cacheEP11ConfigCache+0x2ba>
    331c:	a908      	add	r1, sp, #32
    331e:	f001 fe79 	bl	5014 <_ZNSs4_Rep10_M_destroyERKSaIcE>
    3322:	e754      	b.n	31ce <_ZN16FileConfigSource24transfer_values_to_cacheEP11ConfigCache+0x2ba>
    3324:	00008ef8 	.word	0x00008ef8
    3328:	00008e84 	.word	0x00008e84

0000332c <_start>:
    332c:	f240 1048 	movw	r0, #328	; 0x148
    3330:	f640 128c 	movw	r2, #2444	; 0x98c
    3334:	f2c1 0000 	movt	r0, #4096	; 0x1000
    3338:	f2c1 0200 	movt	r2, #4096	; 0x1000
    333c:	b508      	push	{r3, lr}
    333e:	2100      	movs	r1, #0
    3340:	1a12      	subs	r2, r2, r0
    3342:	f003 fdef 	bl	6f24 <memset>
    3346:	f3af 8000 	nop.w
    334a:	f003 fcd7 	bl	6cfc <__libc_init_array>
    334e:	f7fd ff55 	bl	11fc <main>
    3352:	f000 fc7f 	bl	3c54 <exit>
    3356:	bf00      	nop

00003358 <__wrap__isatty>:
    3358:	2802      	cmp	r0, #2
    335a:	dc01      	bgt.n	3360 <__wrap__isatty+0x8>
    335c:	2001      	movs	r0, #1
    335e:	4770      	bx	lr
    3360:	f005 baf0 	b.w	8944 <_isatty>

00003364 <abort>:
    3364:	b508      	push	{r3, lr}
    3366:	2001      	movs	r0, #1
    3368:	f000 fc74 	bl	3c54 <exit>

0000336c <__cxa_pure_virtual>:
    336c:	b508      	push	{r3, lr}
    336e:	f7ff fff9 	bl	3364 <abort>
    3372:	bf00      	nop

00003374 <Reset_Handler>:
    3374:	4907      	ldr	r1, [pc, #28]	; (3394 <.flash_to_ram_loop+0x1a>)
    3376:	4a08      	ldr	r2, [pc, #32]	; (3398 <.flash_to_ram_loop+0x1e>)
    3378:	4b08      	ldr	r3, [pc, #32]	; (339c <.flash_to_ram_loop+0x22>)

0000337a <.flash_to_ram_loop>:
    337a:	429a      	cmp	r2, r3
    337c:	bfbe      	ittt	lt
    337e:	f851 0b04 	ldrlt.w	r0, [r1], #4
    3382:	f842 0b04 	strlt.w	r0, [r2], #4
    3386:	f7ff bff8 	blt.w	337a <.flash_to_ram_loop>
    338a:	4805      	ldr	r0, [pc, #20]	; (33a0 <.flash_to_ram_loop+0x26>)
    338c:	4780      	blx	r0
    338e:	4805      	ldr	r0, [pc, #20]	; (33a4 <.flash_to_ram_loop+0x2a>)
    3390:	4700      	bx	r0
    3392:	0000      	.short	0x0000
    3394:	00009860 	.word	0x00009860
    3398:	100000c8 	.word	0x100000c8
    339c:	10000148 	.word	0x10000148
    33a0:	0000345d 	.word	0x0000345d
    33a4:	0000332d 	.word	0x0000332d

000033a8 <NMI_Handler>:
    33a8:	e7fe      	b.n	33a8 <NMI_Handler>

000033aa <HardFault_Handler>:
    33aa:	e7fe      	b.n	33aa <HardFault_Handler>

000033ac <MemManage_Handler>:
    33ac:	e7fe      	b.n	33ac <MemManage_Handler>

000033ae <BusFault_Handler>:
    33ae:	e7fe      	b.n	33ae <BusFault_Handler>

000033b0 <UsageFault_Handler>:
    33b0:	e7fe      	b.n	33b0 <UsageFault_Handler>

000033b2 <SVC_Handler>:
    33b2:	e7fe      	b.n	33b2 <SVC_Handler>

000033b4 <DebugMon_Handler>:
    33b4:	e7fe      	b.n	33b4 <DebugMon_Handler>

000033b6 <PendSV_Handler>:
    33b6:	e7fe      	b.n	33b6 <PendSV_Handler>

000033b8 <SysTick_Handler>:
    33b8:	e7fe      	b.n	33b8 <SysTick_Handler>

000033ba <DEF_IRQHandler>:
    33ba:	e7fe      	b.n	33ba <DEF_IRQHandler>

000033bc <WDT_IRQHandler>:
    33bc:	e7fe      	b.n	33bc <WDT_IRQHandler>

000033be <TIMER0_IRQHandler>:
    33be:	e7fe      	b.n	33be <TIMER0_IRQHandler>

000033c0 <TIMER1_IRQHandler>:
    33c0:	e7fe      	b.n	33c0 <TIMER1_IRQHandler>

000033c2 <TIMER2_IRQHandler>:
    33c2:	e7fe      	b.n	33c2 <TIMER2_IRQHandler>

000033c4 <TIMER3_IRQHandler>:
    33c4:	e7fe      	b.n	33c4 <TIMER3_IRQHandler>

000033c6 <UART0_IRQHandler>:
    33c6:	e7fe      	b.n	33c6 <UART0_IRQHandler>

000033c8 <UART1_IRQHandler>:
    33c8:	e7fe      	b.n	33c8 <UART1_IRQHandler>

000033ca <UART2_IRQHandler>:
    33ca:	e7fe      	b.n	33ca <UART2_IRQHandler>

000033cc <UART3_IRQHandler>:
    33cc:	e7fe      	b.n	33cc <UART3_IRQHandler>

000033ce <PWM1_IRQHandler>:
    33ce:	e7fe      	b.n	33ce <PWM1_IRQHandler>

000033d0 <I2C0_IRQHandler>:
    33d0:	e7fe      	b.n	33d0 <I2C0_IRQHandler>

000033d2 <I2C1_IRQHandler>:
    33d2:	e7fe      	b.n	33d2 <I2C1_IRQHandler>

000033d4 <I2C2_IRQHandler>:
    33d4:	e7fe      	b.n	33d4 <I2C2_IRQHandler>

000033d6 <SPI_IRQHandler>:
    33d6:	e7fe      	b.n	33d6 <SPI_IRQHandler>

000033d8 <SSP0_IRQHandler>:
    33d8:	e7fe      	b.n	33d8 <SSP0_IRQHandler>

000033da <SSP1_IRQHandler>:
    33da:	e7fe      	b.n	33da <SSP1_IRQHandler>

000033dc <PLL0_IRQHandler>:
    33dc:	e7fe      	b.n	33dc <PLL0_IRQHandler>

000033de <RTC_IRQHandler>:
    33de:	e7fe      	b.n	33de <RTC_IRQHandler>

000033e0 <EINT0_IRQHandler>:
    33e0:	e7fe      	b.n	33e0 <EINT0_IRQHandler>

000033e2 <EINT1_IRQHandler>:
    33e2:	e7fe      	b.n	33e2 <EINT1_IRQHandler>

000033e4 <EINT2_IRQHandler>:
    33e4:	e7fe      	b.n	33e4 <EINT2_IRQHandler>

000033e6 <EINT3_IRQHandler>:
    33e6:	e7fe      	b.n	33e6 <EINT3_IRQHandler>

000033e8 <ADC_IRQHandler>:
    33e8:	e7fe      	b.n	33e8 <ADC_IRQHandler>

000033ea <BOD_IRQHandler>:
    33ea:	e7fe      	b.n	33ea <BOD_IRQHandler>

000033ec <USB_IRQHandler>:
    33ec:	e7fe      	b.n	33ec <USB_IRQHandler>

000033ee <CAN_IRQHandler>:
    33ee:	e7fe      	b.n	33ee <CAN_IRQHandler>

000033f0 <DMA_IRQHandler>:
    33f0:	e7fe      	b.n	33f0 <DMA_IRQHandler>

000033f2 <I2S_IRQHandler>:
    33f2:	e7fe      	b.n	33f2 <I2S_IRQHandler>

000033f4 <ENET_IRQHandler>:
    33f4:	e7fe      	b.n	33f4 <ENET_IRQHandler>

000033f6 <RIT_IRQHandler>:
    33f6:	e7fe      	b.n	33f6 <RIT_IRQHandler>

000033f8 <MCPWM_IRQHandler>:
    33f8:	e7fe      	b.n	33f8 <MCPWM_IRQHandler>

000033fa <QEI_IRQHandler>:
    33fa:	e7fe      	b.n	33fa <QEI_IRQHandler>

000033fc <PLL1_IRQHandler>:
    33fc:	e7fe      	b.n	33fc <PLL1_IRQHandler>

000033fe <USBActivity_IRQHandler>:
    33fe:	e7fe      	b.n	33fe <USBActivity_IRQHandler>

00003400 <CANActivity_IRQHandler>:
    3400:	e7fe      	b.n	3400 <CANActivity_IRQHandler>
    3402:	bf00      	nop

00003404 <NVIC_SetVector>:
    3404:	f44f 436d 	mov.w	r3, #60672	; 0xed00
    3408:	f2ce 0300 	movt	r3, #57344	; 0xe000
    340c:	689a      	ldr	r2, [r3, #8]
    340e:	b470      	push	{r4, r5, r6}
    3410:	f1b2 5f80 	cmp.w	r2, #268435456	; 0x10000000
    3414:	d019      	beq.n	344a <NVIC_SetVector+0x46>
    3416:	689e      	ldr	r6, [r3, #8]
    3418:	f04f 5580 	mov.w	r5, #268435456	; 0x10000000
    341c:	6832      	ldr	r2, [r6, #0]
    341e:	f1c6 5480 	rsb	r4, r6, #268435456	; 0x10000000
    3422:	4633      	mov	r3, r6
    3424:	3404      	adds	r4, #4
    3426:	36c0      	adds	r6, #192	; 0xc0
    3428:	602a      	str	r2, [r5, #0]
    342a:	685d      	ldr	r5, [r3, #4]
    342c:	1d1a      	adds	r2, r3, #4
    342e:	50e5      	str	r5, [r4, r3]
    3430:	689d      	ldr	r5, [r3, #8]
    3432:	3308      	adds	r3, #8
    3434:	42b3      	cmp	r3, r6
    3436:	50a5      	str	r5, [r4, r2]
    3438:	d1f7      	bne.n	342a <NVIC_SetVector+0x26>
    343a:	f44f 4c6d 	mov.w	r12, #60672	; 0xed00
    343e:	f2ce 0c00 	movt	r12, #57344	; 0xe000
    3442:	f04f 5380 	mov.w	r3, #268435456	; 0x10000000
    3446:	f8cc 3008 	str.w	r3, [r12, #8]
    344a:	f100 0010 	add.w	r0, r0, #16
    344e:	0082      	lsls	r2, r0, #2
    3450:	f102 5c80 	add.w	r12, r2, #268435456	; 0x10000000
    3454:	f8cc 1000 	str.w	r1, [r12]
    3458:	bc70      	pop	{r4, r5, r6}
    345a:	4770      	bx	lr

0000345c <SystemInit>:
    345c:	f44f 4240 	mov.w	r2, #49152	; 0xc000
    3460:	f2c4 020f 	movt	r2, #16399	; 0x400f
    3464:	2320      	movs	r3, #32
    3466:	b430      	push	{r4, r5}
    3468:	f8c2 31a0 	str.w	r3, [r2, #416]	; 0x1a0
    346c:	f8d2 01a0 	ldr.w	r0, [r2, #416]	; 0x1a0
    3470:	0680      	lsls	r0, r0, #26
    3472:	d456      	bmi.n	3522 <SystemInit+0xc6>
    3474:	f44f 4c40 	mov.w	r12, #49152	; 0xc000
    3478:	f2c4 0c0f 	movt	r12, #16399	; 0x400f
    347c:	2500      	movs	r5, #0
    347e:	2002      	movs	r0, #2
    3480:	f8cc 0104 	str.w	r0, [r12, #260]	; 0x104
    3484:	2401      	movs	r4, #1
    3486:	f8cc 51a8 	str.w	r5, [r12, #424]	; 0x1a8
    348a:	23aa      	movs	r3, #170	; 0xaa
    348c:	f8cc 51ac 	str.w	r5, [r12, #428]	; 0x1ac
    3490:	2255      	movs	r2, #85	; 0x55
    3492:	250b      	movs	r5, #11
    3494:	f8cc 410c 	str.w	r4, [r12, #268]	; 0x10c
    3498:	4661      	mov	r1, r12
    349a:	f8cc 5084 	str.w	r5, [r12, #132]	; 0x84
    349e:	f8cc 308c 	str.w	r3, [r12, #140]	; 0x8c
    34a2:	f8cc 208c 	str.w	r2, [r12, #140]	; 0x8c
    34a6:	f8cc 4080 	str.w	r4, [r12, #128]	; 0x80
    34aa:	f8cc 308c 	str.w	r3, [r12, #140]	; 0x8c
    34ae:	f8cc 208c 	str.w	r2, [r12, #140]	; 0x8c
    34b2:	f8d1 2088 	ldr.w	r2, [r1, #136]	; 0x88
    34b6:	f44f 4c40 	mov.w	r12, #49152	; 0xc000
    34ba:	0152      	lsls	r2, r2, #5
    34bc:	f2c4 0c0f 	movt	r12, #16399	; 0x400f
    34c0:	d5f7      	bpl.n	34b2 <SystemInit+0x56>
    34c2:	2303      	movs	r3, #3
    34c4:	21aa      	movs	r1, #170	; 0xaa
    34c6:	2255      	movs	r2, #85	; 0x55
    34c8:	f8cc 3080 	str.w	r3, [r12, #128]	; 0x80
    34cc:	4660      	mov	r0, r12
    34ce:	f8cc 108c 	str.w	r1, [r12, #140]	; 0x8c
    34d2:	f8cc 208c 	str.w	r2, [r12, #140]	; 0x8c
    34d6:	f8d0 1088 	ldr.w	r1, [r0, #136]	; 0x88
    34da:	f44f 4c40 	mov.w	r12, #49152	; 0xc000
    34de:	f011 7f40 	tst.w	r1, #50331648	; 0x3000000
    34e2:	f2c4 0c0f 	movt	r12, #16399	; 0x400f
    34e6:	d0f6      	beq.n	34d6 <SystemInit+0x7a>
    34e8:	f248 73de 	movw	r3, #34782	; 0x87de
    34ec:	f2c0 4328 	movt	r3, #1064	; 0x428
    34f0:	2005      	movs	r0, #5
    34f2:	2200      	movs	r2, #0
    34f4:	f8cc 0108 	str.w	r0, [r12, #264]	; 0x108
    34f8:	f8cc 30c4 	str.w	r3, [r12, #196]	; 0xc4
    34fc:	f8cc 21c8 	str.w	r2, [r12, #456]	; 0x1c8
    3500:	f8dc 1000 	ldr.w	r1, [r12]
    3504:	f421 4370 	bic.w	r3, r1, #61440	; 0xf000
    3508:	f023 003a 	bic.w	r0, r3, #58	; 0x3a
    350c:	f440 5240 	orr.w	r2, r0, #12288	; 0x3000
    3510:	4b08      	ldr	r3, [pc, #32]	; (3534 <SystemInit+0xd8>)
    3512:	f042 013a 	orr.w	r1, r2, #58	; 0x3a
    3516:	2001      	movs	r0, #1
    3518:	f8cc 1000 	str.w	r1, [r12]
    351c:	6018      	str	r0, [r3, #0]
    351e:	bc30      	pop	{r4, r5}
    3520:	4770      	bx	lr
    3522:	f8d2 11a0 	ldr.w	r1, [r2, #416]	; 0x1a0
    3526:	0649      	lsls	r1, r1, #25
    3528:	d4a4      	bmi.n	3474 <SystemInit+0x18>
    352a:	f8d2 11a0 	ldr.w	r1, [r2, #416]	; 0x1a0
    352e:	0649      	lsls	r1, r1, #25
    3530:	d5f7      	bpl.n	3522 <SystemInit+0xc6>
    3532:	e79f      	b.n	3474 <SystemInit+0x18>
    3534:	10000858 	.word	0x10000858

00003538 <uart2_irq>:
    3538:	b508      	push	{r3, lr}
    353a:	f44f 4300 	mov.w	r3, #32768	; 0x8000
    353e:	f2c4 0309 	movt	r3, #16393	; 0x4009
    3542:	6899      	ldr	r1, [r3, #8]
    3544:	f3c1 0142 	ubfx	r1, r1, #1, #3
    3548:	2901      	cmp	r1, #1
    354a:	d003      	beq.n	3554 <uart2_irq+0x1c>
    354c:	2902      	cmp	r1, #2
    354e:	d000      	beq.n	3552 <uart2_irq+0x1a>
    3550:	bd08      	pop	{r3, pc}
    3552:	2100      	movs	r1, #0
    3554:	4803      	ldr	r0, [pc, #12]	; (3564 <uart2_irq+0x2c>)
    3556:	6880      	ldr	r0, [r0, #8]
    3558:	2800      	cmp	r0, #0
    355a:	d0f9      	beq.n	3550 <uart2_irq+0x18>
    355c:	4a02      	ldr	r2, [pc, #8]	; (3568 <uart2_irq+0x30>)
    355e:	6813      	ldr	r3, [r2, #0]
    3560:	4798      	blx	r3
    3562:	bd08      	pop	{r3, pc}
    3564:	10000844 	.word	0x10000844
    3568:	10000854 	.word	0x10000854

0000356c <uart3_irq>:
    356c:	b508      	push	{r3, lr}
    356e:	f44f 4340 	mov.w	r3, #49152	; 0xc000
    3572:	f2c4 0309 	movt	r3, #16393	; 0x4009
    3576:	6899      	ldr	r1, [r3, #8]
    3578:	f3c1 0142 	ubfx	r1, r1, #1, #3
    357c:	2901      	cmp	r1, #1
    357e:	d003      	beq.n	3588 <uart3_irq+0x1c>
    3580:	2902      	cmp	r1, #2
    3582:	d000      	beq.n	3586 <uart3_irq+0x1a>
    3584:	bd08      	pop	{r3, pc}
    3586:	2100      	movs	r1, #0
    3588:	4803      	ldr	r0, [pc, #12]	; (3598 <uart3_irq+0x2c>)
    358a:	68c0      	ldr	r0, [r0, #12]
    358c:	2800      	cmp	r0, #0
    358e:	d0f9      	beq.n	3584 <uart3_irq+0x18>
    3590:	4a02      	ldr	r2, [pc, #8]	; (359c <uart3_irq+0x30>)
    3592:	6813      	ldr	r3, [r2, #0]
    3594:	4798      	blx	r3
    3596:	bd08      	pop	{r3, pc}
    3598:	10000844 	.word	0x10000844
    359c:	10000854 	.word	0x10000854

000035a0 <uart0_irq>:
    35a0:	b508      	push	{r3, lr}
    35a2:	f44f 4340 	mov.w	r3, #49152	; 0xc000
    35a6:	f2c4 0300 	movt	r3, #16384	; 0x4000
    35aa:	6899      	ldr	r1, [r3, #8]
    35ac:	f3c1 0142 	ubfx	r1, r1, #1, #3
    35b0:	2901      	cmp	r1, #1
    35b2:	d003      	beq.n	35bc <uart0_irq+0x1c>
    35b4:	2902      	cmp	r1, #2
    35b6:	d000      	beq.n	35ba <uart0_irq+0x1a>
    35b8:	bd08      	pop	{r3, pc}
    35ba:	2100      	movs	r1, #0
    35bc:	4803      	ldr	r0, [pc, #12]	; (35cc <uart0_irq+0x2c>)
    35be:	6800      	ldr	r0, [r0, #0]
    35c0:	2800      	cmp	r0, #0
    35c2:	d0f9      	beq.n	35b8 <uart0_irq+0x18>
    35c4:	4a02      	ldr	r2, [pc, #8]	; (35d0 <uart0_irq+0x30>)
    35c6:	6813      	ldr	r3, [r2, #0]
    35c8:	4798      	blx	r3
    35ca:	bd08      	pop	{r3, pc}
    35cc:	10000844 	.word	0x10000844
    35d0:	10000854 	.word	0x10000854

000035d4 <uart1_irq>:
    35d4:	b508      	push	{r3, lr}
    35d6:	2300      	movs	r3, #0
    35d8:	f2c4 0301 	movt	r3, #16385	; 0x4001
    35dc:	6899      	ldr	r1, [r3, #8]
    35de:	f3c1 0142 	ubfx	r1, r1, #1, #3
    35e2:	2901      	cmp	r1, #1
    35e4:	d003      	beq.n	35ee <uart1_irq+0x1a>
    35e6:	2902      	cmp	r1, #2
    35e8:	d000      	beq.n	35ec <uart1_irq+0x18>
    35ea:	bd08      	pop	{r3, pc}
    35ec:	2100      	movs	r1, #0
    35ee:	4804      	ldr	r0, [pc, #16]	; (3600 <uart1_irq+0x2c>)
    35f0:	6840      	ldr	r0, [r0, #4]
    35f2:	2800      	cmp	r0, #0
    35f4:	d0f9      	beq.n	35ea <uart1_irq+0x16>
    35f6:	4a03      	ldr	r2, [pc, #12]	; (3604 <uart1_irq+0x30>)
    35f8:	6813      	ldr	r3, [r2, #0]
    35fa:	4798      	blx	r3
    35fc:	bd08      	pop	{r3, pc}
    35fe:	bf00      	nop
    3600:	10000844 	.word	0x10000844
    3604:	10000854 	.word	0x10000854

00003608 <serial_baud>:
    3608:	e92d 4ff0 	stmdb	sp!, {r4, r5, r6, r7, r8, r9, r10, r11, lr}
    360c:	2300      	movs	r3, #0
    360e:	6804      	ldr	r4, [r0, #0]
    3610:	f2c4 0301 	movt	r3, #16385	; 0x4001
    3614:	b08b      	sub	sp, #44	; 0x2c
    3616:	429c      	cmp	r4, r3
    3618:	9009      	str	r0, [sp, #36]	; 0x24
    361a:	f000 80fb 	beq.w	3814 <serial_baud+0x20c>
    361e:	f340 80d9 	ble.w	37d4 <serial_baud+0x1cc>
    3622:	f44f 4c00 	mov.w	r12, #32768	; 0x8000
    3626:	f2c4 0c09 	movt	r12, #16393	; 0x4009
    362a:	4564      	cmp	r4, r12
    362c:	f44f 4340 	mov.w	r3, #49152	; 0xc000
    3630:	f000 80e1 	beq.w	37f6 <serial_baud+0x1ee>
    3634:	f2c4 0309 	movt	r3, #16393	; 0x4009
    3638:	429c      	cmp	r4, r3
    363a:	f040 80d1 	bne.w	37e0 <serial_baud+0x1d8>
    363e:	f44f 4040 	mov.w	r0, #49152	; 0xc000
    3642:	f2c4 000f 	movt	r0, #16399	; 0x400f
    3646:	f8d0 21ac 	ldr.w	r2, [r0, #428]	; 0x1ac
    364a:	f422 2340 	bic.w	r3, r2, #786432	; 0xc0000
    364e:	f8c0 31ac 	str.w	r3, [r0, #428]	; 0x1ac
    3652:	f8d0 21ac 	ldr.w	r2, [r0, #428]	; 0x1ac
    3656:	f442 2380 	orr.w	r3, r2, #262144	; 0x40000
    365a:	f8c0 31ac 	str.w	r3, [r0, #428]	; 0x1ac
    365e:	4880      	ldr	r0, [pc, #512]	; (3860 <serial_baud+0x258>)
    3660:	010a      	lsls	r2, r1, #4
    3662:	6803      	ldr	r3, [r0, #0]
    3664:	9308      	str	r3, [sp, #32]
    3666:	9808      	ldr	r0, [sp, #32]
    3668:	fbb3 fcf2 	udiv	r12, r3, r2
    366c:	fb02 021c 	mls	r2, r2, r12, r0
    3670:	fa1f f38c 	uxth.w	r3, r12
    3674:	9307      	str	r3, [sp, #28]
    3676:	2a00      	cmp	r2, #0
    3678:	f000 80bb 	beq.w	37f2 <serial_baud+0x1ea>
    367c:	4608      	mov	r0, r1
    367e:	0859      	lsrs	r1, r3, #1
    3680:	9102      	str	r1, [sp, #8]
    3682:	f002 fbbd 	bl	5e00 <__aeabi_i2f>
    3686:	9a02      	ldr	r2, [sp, #8]
    3688:	4683      	mov	r11, r0
    368a:	9807      	ldr	r0, [sp, #28]
    368c:	4290      	cmp	r0, r2
    368e:	f0c0 80b0 	bcc.w	37f2 <serial_baud+0x1ea>
    3692:	9f07      	ldr	r7, [sp, #28]
    3694:	2401      	movs	r4, #1
    3696:	2100      	movs	r1, #0
    3698:	46da      	mov	r10, r11
    369a:	9703      	str	r7, [sp, #12]
    369c:	9405      	str	r4, [sp, #20]
    369e:	9104      	str	r1, [sp, #16]
    36a0:	f04f 0901 	mov.w	r9, #1
    36a4:	f109 0201 	add.w	r2, r9, #1
    36a8:	fa5f f982 	uxtb.w	r9, r2
    36ac:	2000      	movs	r0, #0
    36ae:	f1b9 0f10 	cmp.w	r9, #16
    36b2:	9006      	str	r0, [sp, #24]
    36b4:	9f08      	ldr	r7, [sp, #32]
    36b6:	d061      	beq.n	377c <serial_baud+0x174>
    36b8:	9802      	ldr	r0, [sp, #8]
    36ba:	f002 fb9d 	bl	5df8 <__aeabi_ui2f>
    36be:	f001 ffa7 	bl	5610 <__aeabi_f2d>
    36c2:	2300      	movs	r3, #0
    36c4:	2200      	movs	r2, #0
    36c6:	f2c4 0330 	movt	r3, #16432	; 0x4030
    36ca:	f001 fff5 	bl	56b8 <__aeabi_dmul>
    36ce:	e9cd 0100 	strd	r0, r1, [sp]
    36d2:	2601      	movs	r6, #1
    36d4:	4638      	mov	r0, r7
    36d6:	f002 fb8f 	bl	5df8 <__aeabi_ui2f>
    36da:	f001 ff99 	bl	5610 <__aeabi_f2d>
    36de:	4604      	mov	r4, r0
    36e0:	4630      	mov	r0, r6
    36e2:	460d      	mov	r5, r1
    36e4:	f002 fb88 	bl	5df8 <__aeabi_ui2f>
    36e8:	4680      	mov	r8, r0
    36ea:	4648      	mov	r0, r9
    36ec:	f002 fb84 	bl	5df8 <__aeabi_ui2f>
    36f0:	4601      	mov	r1, r0
    36f2:	4640      	mov	r0, r8
    36f4:	f002 fc8c 	bl	6010 <__aeabi_fdiv>
    36f8:	f04f 517e 	mov.w	r1, #1065353216	; 0x3f800000
    36fc:	f002 facc 	bl	5c98 <__addsf3>
    3700:	f001 ff86 	bl	5610 <__aeabi_f2d>
    3704:	4602      	mov	r2, r0
    3706:	460b      	mov	r3, r1
    3708:	e9dd 0100 	ldrd	r0, r1, [sp]
    370c:	f001 ffd4 	bl	56b8 <__aeabi_dmul>
    3710:	4602      	mov	r2, r0
    3712:	460b      	mov	r3, r1
    3714:	4620      	mov	r0, r4
    3716:	4629      	mov	r1, r5
    3718:	f002 f8f8 	bl	590c <__aeabi_ddiv>
    371c:	f002 fa66 	bl	5bec <__aeabi_d2f>
    3720:	4601      	mov	r1, r0
    3722:	4658      	mov	r0, r11
    3724:	f002 fab6 	bl	5c94 <__aeabi_fsub>
    3728:	4659      	mov	r1, r11
    372a:	f002 fc71 	bl	6010 <__aeabi_fdiv>
    372e:	f001 ff6f 	bl	5610 <__aeabi_f2d>
    3732:	f005 f91f 	bl	8974 <fabs>
    3736:	f002 fa59 	bl	5bec <__aeabi_d2f>
    373a:	4651      	mov	r1, r10
    373c:	4604      	mov	r4, r0
    373e:	f002 fd51 	bl	61e4 <__aeabi_fcmplt>
    3742:	b180      	cbz	r0, 3766 <serial_baud+0x15e>
    3744:	4620      	mov	r0, r4
    3746:	f001 ff63 	bl	5610 <__aeabi_f2d>
    374a:	a343      	add	r3, pc, #268	; (adr r3, 3858 <serial_baud+0x250>)
    374c:	e9d3 2300 	ldrd	r2, r3, [r3]
    3750:	f002 fa24 	bl	5b9c <__aeabi_dcmplt>
    3754:	9a02      	ldr	r2, [sp, #8]
    3756:	46a2      	mov	r10, r4
    3758:	f8cd 9014 	str.w	r9, [sp, #20]
    375c:	9604      	str	r6, [sp, #16]
    375e:	9203      	str	r2, [sp, #12]
    3760:	b108      	cbz	r0, 3766 <serial_baud+0x15e>
    3762:	2301      	movs	r3, #1
    3764:	9306      	str	r3, [sp, #24]
    3766:	3601      	adds	r6, #1
    3768:	b2f6      	uxtb	r6, r6
    376a:	454e      	cmp	r6, r9
    376c:	d1b2      	bne.n	36d4 <serial_baud+0xcc>
    376e:	f109 0201 	add.w	r2, r9, #1
    3772:	fa5f f982 	uxtb.w	r9, r2
    3776:	f1b9 0f10 	cmp.w	r9, #16
    377a:	d19d      	bne.n	36b8 <serial_baud+0xb0>
    377c:	9b02      	ldr	r3, [sp, #8]
    377e:	9807      	ldr	r0, [sp, #28]
    3780:	1c5c      	adds	r4, r3, #1
    3782:	b2a1      	uxth	r1, r4
    3784:	4288      	cmp	r0, r1
    3786:	9102      	str	r1, [sp, #8]
    3788:	d302      	bcc.n	3790 <serial_baud+0x188>
    378a:	9a06      	ldr	r2, [sp, #24]
    378c:	2a00      	cmp	r2, #0
    378e:	d087      	beq.n	36a0 <serial_baud+0x98>
    3790:	9b04      	ldr	r3, [sp, #16]
    3792:	9c05      	ldr	r4, [sp, #20]
    3794:	9a09      	ldr	r2, [sp, #36]	; 0x24
    3796:	9803      	ldr	r0, [sp, #12]
    3798:	ea43 1104 	orr.w	r1, r3, r4, lsl #4
    379c:	6814      	ldr	r4, [r2, #0]
    379e:	b2cb      	uxtb	r3, r1
    37a0:	9007      	str	r0, [sp, #28]
    37a2:	f894 c00c 	ldrb.w	r12, [r4, #12]
    37a6:	9907      	ldr	r1, [sp, #28]
    37a8:	f04c 0280 	orr.w	r2, r12, #128	; 0x80
    37ac:	7322      	strb	r2, [r4, #12]
    37ae:	9c09      	ldr	r4, [sp, #36]	; 0x24
    37b0:	0a08      	lsrs	r0, r1, #8
    37b2:	6822      	ldr	r2, [r4, #0]
    37b4:	9c09      	ldr	r4, [sp, #36]	; 0x24
    37b6:	7110      	strb	r0, [r2, #4]
    37b8:	6820      	ldr	r0, [r4, #0]
    37ba:	b2c9      	uxtb	r1, r1
    37bc:	7001      	strb	r1, [r0, #0]
    37be:	6822      	ldr	r2, [r4, #0]
    37c0:	f882 3028 	strb.w	r3, [r2, #40]	; 0x28
    37c4:	6823      	ldr	r3, [r4, #0]
    37c6:	7b19      	ldrb	r1, [r3, #12]
    37c8:	f001 007f 	and.w	r0, r1, #127	; 0x7f
    37cc:	7318      	strb	r0, [r3, #12]
    37ce:	b00b      	add	sp, #44	; 0x2c
    37d0:	e8bd 8ff0 	ldmia.w	sp!, {r4, r5, r6, r7, r8, r9, r10, r11, pc}
    37d4:	f44f 4040 	mov.w	r0, #49152	; 0xc000
    37d8:	f2c4 0000 	movt	r0, #16384	; 0x4000
    37dc:	4284      	cmp	r4, r0
    37de:	d02a      	beq.n	3836 <serial_baud+0x22e>
    37e0:	4d20      	ldr	r5, [pc, #128]	; (3864 <serial_baud+0x25c>)
    37e2:	4921      	ldr	r1, [pc, #132]	; (3868 <serial_baud+0x260>)
    37e4:	682e      	ldr	r6, [r5, #0]
    37e6:	68f0      	ldr	r0, [r6, #12]
    37e8:	f002 ff86 	bl	66f8 <fiprintf>
    37ec:	2001      	movs	r0, #1
    37ee:	f000 fa31 	bl	3c54 <exit>
    37f2:	2310      	movs	r3, #16
    37f4:	e7d5      	b.n	37a2 <serial_baud+0x19a>
    37f6:	f2c4 030f 	movt	r3, #16399	; 0x400f
    37fa:	f8d3 01ac 	ldr.w	r0, [r3, #428]	; 0x1ac
    37fe:	f420 3240 	bic.w	r2, r0, #196608	; 0x30000
    3802:	f8c3 21ac 	str.w	r2, [r3, #428]	; 0x1ac
    3806:	f8d3 01ac 	ldr.w	r0, [r3, #428]	; 0x1ac
    380a:	f440 3280 	orr.w	r2, r0, #65536	; 0x10000
    380e:	f8c3 21ac 	str.w	r2, [r3, #428]	; 0x1ac
    3812:	e724      	b.n	365e <serial_baud+0x56>
    3814:	f44f 4c40 	mov.w	r12, #49152	; 0xc000
    3818:	f2c4 0c0f 	movt	r12, #16399	; 0x400f
    381c:	f8dc 31a8 	ldr.w	r3, [r12, #424]	; 0x1a8
    3820:	f423 7040 	bic.w	r0, r3, #768	; 0x300
    3824:	f8cc 01a8 	str.w	r0, [r12, #424]	; 0x1a8
    3828:	f8dc 21a8 	ldr.w	r2, [r12, #424]	; 0x1a8
    382c:	f442 7380 	orr.w	r3, r2, #256	; 0x100
    3830:	f8cc 31a8 	str.w	r3, [r12, #424]	; 0x1a8
    3834:	e713      	b.n	365e <serial_baud+0x56>
    3836:	f44f 4c40 	mov.w	r12, #49152	; 0xc000
    383a:	f2c4 0c0f 	movt	r12, #16399	; 0x400f
    383e:	f8dc 21a8 	ldr.w	r2, [r12, #424]	; 0x1a8
    3842:	f022 03c0 	bic.w	r3, r2, #192	; 0xc0
    3846:	f8cc 31a8 	str.w	r3, [r12, #424]	; 0x1a8
    384a:	f8dc 01a8 	ldr.w	r0, [r12, #424]	; 0x1a8
    384e:	f040 0240 	orr.w	r2, r0, #64	; 0x40
    3852:	f8cc 21a8 	str.w	r2, [r12, #424]	; 0x1a8
    3856:	e702      	b.n	365e <serial_baud+0x56>
    3858:	d2f1a9fc 	.word	0xd2f1a9fc
    385c:	3f50624d 	.word	0x3f50624d
    3860:	100000cc 	.word	0x100000cc
