
MotionC.elf:     file format elf32-littlearm
architecture: arm, flags 0x00000112:
EXEC_P, HAS_SYMS, D_PAGED
start address 0x00003375


Disassembly of section .text:

00000000 <__isr_vector>:
       0:	10008000 	.word	0x10008000
       4:	00003375 	.word	0x00003375
       8:	000033a9 	.word	0x000033a9
       c:	000033ab 	.word	0x000033ab
      10:	000033ad 	.word	0x000033ad
      14:	000033af 	.word	0x000033af
      18:	000033b1 	.word	0x000033b1
	...
      2c:	000033b3 	.word	0x000033b3
      30:	000033b5 	.word	0x000033b5
      34:	00000000 	.word	0x00000000
      38:	000033b7 	.word	0x000033b7
      3c:	000033b9 	.word	0x000033b9
      40:	000033bd 	.word	0x000033bd
      44:	000033bf 	.word	0x000033bf
      48:	000033c1 	.word	0x000033c1
      4c:	000033c3 	.word	0x000033c3
      50:	000033c5 	.word	0x000033c5
      54:	000033c7 	.word	0x000033c7
      58:	000033c9 	.word	0x000033c9
      5c:	000033cb 	.word	0x000033cb
      60:	000033cd 	.word	0x000033cd
      64:	000033cf 	.word	0x000033cf
      68:	000033d1 	.word	0x000033d1
      6c:	000033d3 	.word	0x000033d3
      70:	000033d5 	.word	0x000033d5
      74:	000033d7 	.word	0x000033d7
      78:	000033d9 	.word	0x000033d9
      7c:	000033db 	.word	0x000033db
      80:	000033dd 	.word	0x000033dd
      84:	000033df 	.word	0x000033df
      88:	000033e1 	.word	0x000033e1
      8c:	000033e3 	.word	0x000033e3
      90:	000033e5 	.word	0x000033e5
      94:	000033e7 	.word	0x000033e7
      98:	000033e9 	.word	0x000033e9
      9c:	000033eb 	.word	0x000033eb
      a0:	000033ed 	.word	0x000033ed
      a4:	000033ef 	.word	0x000033ef
      a8:	000033f1 	.word	0x000033f1
      ac:	000033f3 	.word	0x000033f3
      b0:	000033f5 	.word	0x000033f5
      b4:	000033f7 	.word	0x000033f7
      b8:	000033f9 	.word	0x000033f9
      bc:	000033fb 	.word	0x000033fb
      c0:	000033fd 	.word	0x000033fd
      c4:	000033ff 	.word	0x000033ff
      c8:	00003401 	.word	0x00003401

000000cc <__do_global_dtors_aux>:
      cc:	b510      	push	{r4, lr}
      ce:	4c05      	ldr	r4, [pc, #20]	; (e4 <__do_global_dtors_aux+0x18>)
      d0:	7823      	ldrb	r3, [r4, #0]
      d2:	b933      	cbnz	r3, e2 <__do_global_dtors_aux+0x16>
      d4:	4804      	ldr	r0, [pc, #16]	; (e8 <__do_global_dtors_aux+0x1c>)
      d6:	b110      	cbz	r0, de <__do_global_dtors_aux+0x12>
      d8:	4804      	ldr	r0, [pc, #16]	; (ec <__do_global_dtors_aux+0x20>)
      da:	f3af 8000 	nop.w
      de:	2101      	movs	r1, #1
      e0:	7021      	strb	r1, [r4, #0]
      e2:	bd10      	pop	{r4, pc}
      e4:	10000148 	.word	0x10000148
      e8:	00000000 	.word	0x00000000
      ec:	0000985c 	.word	0x0000985c

000000f0 <frame_dummy>:
      f0:	b508      	push	{r3, lr}
      f2:	4b06      	ldr	r3, [pc, #24]	; (10c <frame_dummy+0x1c>)
      f4:	b11b      	cbz	r3, fe <frame_dummy+0xe>
      f6:	4806      	ldr	r0, [pc, #24]	; (110 <frame_dummy+0x20>)
      f8:	4906      	ldr	r1, [pc, #24]	; (114 <frame_dummy+0x24>)
      fa:	f3af 8000 	nop.w
      fe:	4806      	ldr	r0, [pc, #24]	; (118 <frame_dummy+0x28>)
     100:	6801      	ldr	r1, [r0, #0]
     102:	b111      	cbz	r1, 10a <frame_dummy+0x1a>
     104:	4a05      	ldr	r2, [pc, #20]	; (11c <frame_dummy+0x2c>)
     106:	b102      	cbz	r2, 10a <frame_dummy+0x1a>
     108:	4790      	blx	r2
     10a:	bd08      	pop	{r3, pc}
     10c:	00000000 	.word	0x00000000
     110:	0000985c 	.word	0x0000985c
     114:	1000014c 	.word	0x1000014c
     118:	10000148 	.word	0x10000148
     11c:	00000000 	.word	0x00000000

00000120 <_ZNK8std_msgs4Time9serializeEPh>:
     120:	6842      	ldr	r2, [r0, #4]
     122:	4603      	mov	r3, r0
     124:	700a      	strb	r2, [r1, #0]
     126:	6842      	ldr	r2, [r0, #4]
     128:	2008      	movs	r0, #8
     12a:	fa22 f200 	lsr.w	r2, r2, r0
     12e:	704a      	strb	r2, [r1, #1]
     130:	88da      	ldrh	r2, [r3, #6]
     132:	708a      	strb	r2, [r1, #2]
     134:	79da      	ldrb	r2, [r3, #7]
     136:	70ca      	strb	r2, [r1, #3]
     138:	689a      	ldr	r2, [r3, #8]
     13a:	710a      	strb	r2, [r1, #4]
     13c:	689a      	ldr	r2, [r3, #8]
     13e:	fa22 f200 	lsr.w	r2, r2, r0
     142:	714a      	strb	r2, [r1, #5]
     144:	895a      	ldrh	r2, [r3, #10]
     146:	718a      	strb	r2, [r1, #6]
     148:	7adb      	ldrb	r3, [r3, #11]
     14a:	71cb      	strb	r3, [r1, #7]
     14c:	4770      	bx	lr
     14e:	bf00      	nop

00000150 <_ZN8std_msgs4Time11deserializeEPh>:
     150:	b410      	push	{r4}
     152:	780a      	ldrb	r2, [r1, #0]
     154:	4603      	mov	r3, r0
     156:	6042      	str	r2, [r0, #4]
     158:	784c      	ldrb	r4, [r1, #1]
     15a:	2008      	movs	r0, #8
     15c:	ea42 2204 	orr.w	r2, r2, r4, lsl #8
     160:	605a      	str	r2, [r3, #4]
     162:	788c      	ldrb	r4, [r1, #2]
     164:	ea42 4204 	orr.w	r2, r2, r4, lsl #16
     168:	605a      	str	r2, [r3, #4]
     16a:	78cc      	ldrb	r4, [r1, #3]
     16c:	ea42 6204 	orr.w	r2, r2, r4, lsl #24
     170:	605a      	str	r2, [r3, #4]
     172:	790a      	ldrb	r2, [r1, #4]
     174:	609a      	str	r2, [r3, #8]
     176:	794c      	ldrb	r4, [r1, #5]
     178:	ea42 2204 	orr.w	r2, r2, r4, lsl #8
     17c:	609a      	str	r2, [r3, #8]
     17e:	798c      	ldrb	r4, [r1, #6]
     180:	ea42 4204 	orr.w	r2, r2, r4, lsl #16
     184:	609a      	str	r2, [r3, #8]
     186:	79c9      	ldrb	r1, [r1, #7]
     188:	ea42 6201 	orr.w	r2, r2, r1, lsl #24
     18c:	609a      	str	r2, [r3, #8]
     18e:	bc10      	pop	{r4}
     190:	4770      	bx	lr
     192:	bf00      	nop

00000194 <_ZN8std_msgs4Time7getTypeEv>:
     194:	f648 4014 	movw	r0, #35860	; 0x8c14
     198:	f2c0 0000 	movt	r0, #0
     19c:	4770      	bx	lr
     19e:	bf00      	nop

000001a0 <_ZN8std_msgs4Time6getMD5Ev>:
     1a0:	f648 4024 	movw	r0, #35876	; 0x8c24
     1a4:	f2c0 0000 	movt	r0, #0
     1a8:	4770      	bx	lr
     1aa:	bf00      	nop

000001ac <_ZN14rosserial_msgs9TopicInfo7getTypeEv>:
     1ac:	f648 4048 	movw	r0, #35912	; 0x8c48
     1b0:	f2c0 0000 	movt	r0, #0
     1b4:	4770      	bx	lr
     1b6:	bf00      	nop

000001b8 <_ZN14rosserial_msgs9TopicInfo6getMD5Ev>:
     1b8:	f648 4064 	movw	r0, #35940	; 0x8c64
     1bc:	f2c0 0000 	movt	r0, #0
     1c0:	4770      	bx	lr
     1c2:	bf00      	nop

000001c4 <_ZN14rosserial_msgs3Log7getTypeEv>:
     1c4:	f648 4088 	movw	r0, #35976	; 0x8c88
     1c8:	f2c0 0000 	movt	r0, #0
     1cc:	4770      	bx	lr
     1ce:	bf00      	nop

000001d0 <_ZN14rosserial_msgs3Log6getMD5Ev>:
     1d0:	f648 409c 	movw	r0, #35996	; 0x8c9c
     1d4:	f2c0 0000 	movt	r0, #0
     1d8:	4770      	bx	lr
     1da:	bf00      	nop

000001dc <_ZN14rosserial_msgs20RequestParamResponse7getTypeEv>:
     1dc:	f648 50a4 	movw	r0, #36260	; 0x8da4
     1e0:	f2c0 0000 	movt	r0, #0
     1e4:	4770      	bx	lr
     1e6:	bf00      	nop

000001e8 <_ZN14rosserial_msgs20RequestParamResponse6getMD5Ev>:
     1e8:	f648 40c0 	movw	r0, #36032	; 0x8cc0
     1ec:	f2c0 0000 	movt	r0, #0
     1f0:	4770      	bx	lr
     1f2:	bf00      	nop

000001f4 <_ZN8std_msgs6String7getTypeEv>:
     1f4:	f648 40e4 	movw	r0, #36068	; 0x8ce4
     1f8:	f2c0 0000 	movt	r0, #0
     1fc:	4770      	bx	lr
     1fe:	bf00      	nop

00000200 <_ZN8std_msgs6String6getMD5Ev>:
     200:	f648 40f4 	movw	r0, #36084	; 0x8cf4
     204:	f2c0 0000 	movt	r0, #0
     208:	4770      	bx	lr
     20a:	bf00      	nop

0000020c <_ZNK13geometry_msgs6Pose2D9serializeEPh>:
     20c:	b5f8      	push	{r3, r4, r5, r6, r7, lr}
     20e:	6843      	ldr	r3, [r0, #4]
     210:	460c      	mov	r4, r1
     212:	f3c3 51c7 	ubfx	r1, r3, #23, #8
     216:	4605      	mov	r5, r0
     218:	2900      	cmp	r1, #0
     21a:	d06b      	beq.n	2f4 <_ZNK13geometry_msgs6Pose2D9serializeEPh+0xe8>
     21c:	f501 7260 	add.w	r2, r1, #896	; 0x380
     220:	0117      	lsls	r7, r2, #4
     222:	1116      	asrs	r6, r2, #4
     224:	b2f8      	uxtb	r0, r7
     226:	b2f1      	uxtb	r1, r6
     228:	f3c3 4cc3 	ubfx	r12, r3, #19, #4
     22c:	2200      	movs	r2, #0
     22e:	ea4f 1e43 	mov.w	lr, r3, lsl #5
     232:	10df      	asrs	r7, r3, #3
     234:	ea40 000c 	orr.w	r0, r0, r12
     238:	12db      	asrs	r3, r3, #11
     23a:	71e1      	strb	r1, [r4, #7]
     23c:	7022      	strb	r2, [r4, #0]
     23e:	7062      	strb	r2, [r4, #1]
     240:	70a2      	strb	r2, [r4, #2]
     242:	f884 e003 	strb.w	lr, [r4, #3]
     246:	7127      	strb	r7, [r4, #4]
     248:	7163      	strb	r3, [r4, #5]
     24a:	71a0      	strb	r0, [r4, #6]
     24c:	6868      	ldr	r0, [r5, #4]
     24e:	2100      	movs	r1, #0
     250:	f005 ffc8 	bl	61e4 <__aeabi_fcmplt>
     254:	2800      	cmp	r0, #0
     256:	d154      	bne.n	302 <_ZNK13geometry_msgs6Pose2D9serializeEPh+0xf6>
     258:	68ab      	ldr	r3, [r5, #8]
     25a:	f3c3 51c7 	ubfx	r1, r3, #23, #8
     25e:	2900      	cmp	r1, #0
     260:	d045      	beq.n	2ee <_ZNK13geometry_msgs6Pose2D9serializeEPh+0xe2>
     262:	f501 7260 	add.w	r2, r1, #896	; 0x380
     266:	0117      	lsls	r7, r2, #4
     268:	1116      	asrs	r6, r2, #4
     26a:	b2f8      	uxtb	r0, r7
     26c:	b2f1      	uxtb	r1, r6
     26e:	f3c3 4cc3 	ubfx	r12, r3, #19, #4
     272:	2200      	movs	r2, #0
     274:	ea4f 1e43 	mov.w	lr, r3, lsl #5
     278:	10df      	asrs	r7, r3, #3
     27a:	ea40 000c 	orr.w	r0, r0, r12
     27e:	12db      	asrs	r3, r3, #11
     280:	73e1      	strb	r1, [r4, #15]
     282:	7222      	strb	r2, [r4, #8]
     284:	7262      	strb	r2, [r4, #9]
     286:	72a2      	strb	r2, [r4, #10]
     288:	f884 e00b 	strb.w	lr, [r4, #11]
     28c:	7327      	strb	r7, [r4, #12]
     28e:	7363      	strb	r3, [r4, #13]
     290:	73a0      	strb	r0, [r4, #14]
     292:	68a8      	ldr	r0, [r5, #8]
     294:	2100      	movs	r1, #0
     296:	f005 ffa5 	bl	61e4 <__aeabi_fcmplt>
     29a:	bb70      	cbnz	r0, 2fa <_ZNK13geometry_msgs6Pose2D9serializeEPh+0xee>
     29c:	68eb      	ldr	r3, [r5, #12]
     29e:	f3c3 51c7 	ubfx	r1, r3, #23, #8
     2a2:	b309      	cbz	r1, 2e8 <_ZNK13geometry_msgs6Pose2D9serializeEPh+0xdc>
     2a4:	f501 7660 	add.w	r6, r1, #896	; 0x380
     2a8:	0132      	lsls	r2, r6, #4
     2aa:	1136      	asrs	r6, r6, #4
     2ac:	b2d0      	uxtb	r0, r2
     2ae:	b2f1      	uxtb	r1, r6
     2b0:	f3c3 4cc3 	ubfx	r12, r3, #19, #4
     2b4:	2200      	movs	r2, #0
     2b6:	ea4f 1e43 	mov.w	lr, r3, lsl #5
     2ba:	10df      	asrs	r7, r3, #3
     2bc:	ea40 000c 	orr.w	r0, r0, r12
     2c0:	12db      	asrs	r3, r3, #11
     2c2:	75e1      	strb	r1, [r4, #23]
     2c4:	7422      	strb	r2, [r4, #16]
     2c6:	7462      	strb	r2, [r4, #17]
     2c8:	74a2      	strb	r2, [r4, #18]
     2ca:	f884 e013 	strb.w	lr, [r4, #19]
     2ce:	7527      	strb	r7, [r4, #20]
     2d0:	7563      	strb	r3, [r4, #21]
     2d2:	75a0      	strb	r0, [r4, #22]
     2d4:	68e8      	ldr	r0, [r5, #12]
     2d6:	2100      	movs	r1, #0
     2d8:	f005 ff84 	bl	61e4 <__aeabi_fcmplt>
     2dc:	b110      	cbz	r0, 2e4 <_ZNK13geometry_msgs6Pose2D9serializeEPh+0xd8>
     2de:	f046 0680 	orr.w	r6, r6, #128	; 0x80
     2e2:	75e6      	strb	r6, [r4, #23]
     2e4:	2018      	movs	r0, #24
     2e6:	bdf8      	pop	{r3, r4, r5, r6, r7, pc}
     2e8:	460e      	mov	r6, r1
     2ea:	4608      	mov	r0, r1
     2ec:	e7e0      	b.n	2b0 <_ZNK13geometry_msgs6Pose2D9serializeEPh+0xa4>
     2ee:	460e      	mov	r6, r1
     2f0:	4608      	mov	r0, r1
     2f2:	e7bc      	b.n	26e <_ZNK13geometry_msgs6Pose2D9serializeEPh+0x62>
     2f4:	460e      	mov	r6, r1
     2f6:	4608      	mov	r0, r1
     2f8:	e796      	b.n	228 <_ZNK13geometry_msgs6Pose2D9serializeEPh+0x1c>
     2fa:	f046 0180 	orr.w	r1, r6, #128	; 0x80
     2fe:	73e1      	strb	r1, [r4, #15]
     300:	e7cc      	b.n	29c <_ZNK13geometry_msgs6Pose2D9serializeEPh+0x90>
     302:	f046 0180 	orr.w	r1, r6, #128	; 0x80
     306:	71e1      	strb	r1, [r4, #7]
     308:	e7a6      	b.n	258 <_ZNK13geometry_msgs6Pose2D9serializeEPh+0x4c>
     30a:	bf00      	nop

0000030c <_ZN13geometry_msgs6Pose2D11deserializeEPh>:
     30c:	b430      	push	{r4, r5}
     30e:	78cb      	ldrb	r3, [r1, #3]
     310:	095c      	lsrs	r4, r3, #5
     312:	6044      	str	r4, [r0, #4]
     314:	790a      	ldrb	r2, [r1, #4]
     316:	ea44 05c2 	orr.w	r5, r4, r2, lsl #3
     31a:	6045      	str	r5, [r0, #4]
     31c:	794b      	ldrb	r3, [r1, #5]
     31e:	ea45 24c3 	orr.w	r4, r5, r3, lsl #11
     322:	6044      	str	r4, [r0, #4]
     324:	798a      	ldrb	r2, [r1, #6]
     326:	f002 050f 	and.w	r5, r2, #15
     32a:	ea44 42c5 	orr.w	r2, r4, r5, lsl #19
     32e:	6042      	str	r2, [r0, #4]
     330:	79cb      	ldrb	r3, [r1, #7]
     332:	798d      	ldrb	r5, [r1, #6]
     334:	f003 047f 	and.w	r4, r3, #127	; 0x7f
     338:	0124      	lsls	r4, r4, #4
     33a:	ea54 1515 	orrs.w	r5, r4, r5, lsr #4
     33e:	d005      	beq.n	34c <_ZN13geometry_msgs6Pose2D11deserializeEPh+0x40>
     340:	f5a5 7360 	sub.w	r3, r5, #896	; 0x380
     344:	ea42 54c3 	orr.w	r4, r2, r3, lsl #23
     348:	6044      	str	r4, [r0, #4]
     34a:	79cb      	ldrb	r3, [r1, #7]
     34c:	f003 0580 	and.w	r5, r3, #128	; 0x80
     350:	b2ec      	uxtb	r4, r5
     352:	b114      	cbz	r4, 35a <_ZN13geometry_msgs6Pose2D11deserializeEPh+0x4e>
     354:	f102 4200 	add.w	r2, r2, #2147483648	; 0x80000000
     358:	6042      	str	r2, [r0, #4]
     35a:	7acb      	ldrb	r3, [r1, #11]
     35c:	095d      	lsrs	r5, r3, #5
     35e:	6085      	str	r5, [r0, #8]
     360:	7b0c      	ldrb	r4, [r1, #12]
     362:	ea45 03c4 	orr.w	r3, r5, r4, lsl #3
     366:	6083      	str	r3, [r0, #8]
     368:	7b4a      	ldrb	r2, [r1, #13]
     36a:	ea43 25c2 	orr.w	r5, r3, r2, lsl #11
     36e:	6085      	str	r5, [r0, #8]
     370:	7b8c      	ldrb	r4, [r1, #14]
     372:	f004 030f 	and.w	r3, r4, #15
     376:	ea45 42c3 	orr.w	r2, r5, r3, lsl #19
     37a:	6082      	str	r2, [r0, #8]
     37c:	7bcb      	ldrb	r3, [r1, #15]
     37e:	7b8d      	ldrb	r5, [r1, #14]
     380:	f003 047f 	and.w	r4, r3, #127	; 0x7f
     384:	0124      	lsls	r4, r4, #4
     386:	ea54 1515 	orrs.w	r5, r4, r5, lsr #4
     38a:	d005      	beq.n	398 <_ZN13geometry_msgs6Pose2D11deserializeEPh+0x8c>
     38c:	f5a5 7360 	sub.w	r3, r5, #896	; 0x380
     390:	ea42 54c3 	orr.w	r4, r2, r3, lsl #23
     394:	6084      	str	r4, [r0, #8]
     396:	7bcb      	ldrb	r3, [r1, #15]
     398:	f003 0580 	and.w	r5, r3, #128	; 0x80
     39c:	b2ec      	uxtb	r4, r5
     39e:	b114      	cbz	r4, 3a6 <_ZN13geometry_msgs6Pose2D11deserializeEPh+0x9a>
     3a0:	f102 4200 	add.w	r2, r2, #2147483648	; 0x80000000
     3a4:	6082      	str	r2, [r0, #8]
     3a6:	7ccb      	ldrb	r3, [r1, #19]
     3a8:	095d      	lsrs	r5, r3, #5
     3aa:	60c5      	str	r5, [r0, #12]
     3ac:	7d0c      	ldrb	r4, [r1, #20]
     3ae:	ea45 03c4 	orr.w	r3, r5, r4, lsl #3
     3b2:	60c3      	str	r3, [r0, #12]
     3b4:	7d4a      	ldrb	r2, [r1, #21]
     3b6:	ea43 25c2 	orr.w	r5, r3, r2, lsl #11
     3ba:	60c5      	str	r5, [r0, #12]
     3bc:	7d8c      	ldrb	r4, [r1, #22]
     3be:	f004 030f 	and.w	r3, r4, #15
     3c2:	ea45 42c3 	orr.w	r2, r5, r3, lsl #19
     3c6:	60c2      	str	r2, [r0, #12]
     3c8:	7dcb      	ldrb	r3, [r1, #23]
     3ca:	7d8d      	ldrb	r5, [r1, #22]
     3cc:	f003 047f 	and.w	r4, r3, #127	; 0x7f
     3d0:	0124      	lsls	r4, r4, #4
     3d2:	ea54 1415 	orrs.w	r4, r4, r5, lsr #4
     3d6:	d005      	beq.n	3e4 <_ZN13geometry_msgs6Pose2D11deserializeEPh+0xd8>
     3d8:	f5a4 7360 	sub.w	r3, r4, #896	; 0x380
     3dc:	ea42 54c3 	orr.w	r4, r2, r3, lsl #23
     3e0:	60c4      	str	r4, [r0, #12]
     3e2:	7dcb      	ldrb	r3, [r1, #23]
     3e4:	f003 0180 	and.w	r1, r3, #128	; 0x80
     3e8:	b2cb      	uxtb	r3, r1
     3ea:	b113      	cbz	r3, 3f2 <_ZN13geometry_msgs6Pose2D11deserializeEPh+0xe6>
     3ec:	f102 4200 	add.w	r2, r2, #2147483648	; 0x80000000
     3f0:	60c2      	str	r2, [r0, #12]
     3f2:	2018      	movs	r0, #24
     3f4:	bc30      	pop	{r4, r5}
     3f6:	4770      	bx	lr

000003f8 <_ZN13geometry_msgs6Pose2D7getTypeEv>:
     3f8:	f648 5018 	movw	r0, #36120	; 0x8d18
     3fc:	f2c0 0000 	movt	r0, #0
     400:	4770      	bx	lr
     402:	bf00      	nop

00000404 <_ZN13geometry_msgs6Pose2D6getMD5Ev>:
     404:	f648 5030 	movw	r0, #36144	; 0x8d30
     408:	f2c0 0000 	movt	r0, #0
     40c:	4770      	bx	lr
     40e:	bf00      	nop

00000410 <_ZN3ros10SubscriberIN8std_msgs6StringEE15getEndpointTypeEv>:
     410:	6980      	ldr	r0, [r0, #24]
     412:	4770      	bx	lr

00000414 <_ZN3ros10SubscriberIN8std_msgs6StringEE10getMsgTypeEv>:
     414:	f648 40e4 	movw	r0, #36068	; 0x8ce4
     418:	f2c0 0000 	movt	r0, #0
     41c:	4770      	bx	lr
     41e:	bf00      	nop

00000420 <_ZN3ros10SubscriberIN8std_msgs6StringEE9getMsgMD5Ev>:
     420:	f648 40f4 	movw	r0, #36084	; 0x8cf4
     424:	f2c0 0000 	movt	r0, #0
     428:	4770      	bx	lr
     42a:	bf00      	nop

0000042c <_ZN3ros11NodeHandle_I12MbedHardwareLi25ELi25ELi512ELi512EE9connectedEv>:
     42c:	f890 05fc 	ldrb.w	r0, [r0, #1532]	; 0x5fc
     430:	4770      	bx	lr
     432:	bf00      	nop

00000434 <_Z13getCommand_cbRKN8std_msgs6StringE>:
     434:	b538      	push	{r3, r4, r5, lr}
     436:	f240 74c0 	movw	r4, #1984	; 0x7c0
     43a:	f2c1 0400 	movt	r4, #4096	; 0x1000
     43e:	2100      	movs	r1, #0
     440:	2264      	movs	r2, #100	; 0x64
     442:	4605      	mov	r5, r0
     444:	4620      	mov	r0, r4
     446:	f006 fd6d 	bl	6f24 <memset>
     44a:	686d      	ldr	r5, [r5, #4]
     44c:	4628      	mov	r0, r5
     44e:	f007 f80d 	bl	746c <strlen>
     452:	4629      	mov	r1, r5
     454:	4602      	mov	r2, r0
     456:	4620      	mov	r0, r4
     458:	e8bd 4038 	ldmia.w	sp!, {r3, r4, r5, lr}
     45c:	f006 bd3f 	b.w	6ede <memcpy>

00000460 <_ZN8std_msgs6String11deserializeEPh>:
     460:	b4f0      	push	{r4, r5, r6, r7}
     462:	4606      	mov	r6, r0
     464:	6808      	ldr	r0, [r1, #0]
     466:	b082      	sub	sp, #8
     468:	9001      	str	r0, [sp, #4]
     46a:	9d01      	ldr	r5, [sp, #4]
     46c:	1ccf      	adds	r7, r1, #3
     46e:	1d28      	adds	r0, r5, #4
     470:	2804      	cmp	r0, #4
     472:	d91d      	bls.n	4b0 <_ZN8std_msgs6String11deserializeEPh+0x50>
     474:	460b      	mov	r3, r1
     476:	f813 7f04 	ldrb.w	r7, [r3, #4]!
     47a:	2205      	movs	r2, #5
     47c:	1e6c      	subs	r4, r5, #1
     47e:	f803 7c01 	strb.w	r7, [r3, #-1]
     482:	1ccf      	adds	r7, r1, #3
     484:	4282      	cmp	r2, r0
     486:	f004 0401 	and.w	r4, r4, #1
     48a:	d011      	beq.n	4b0 <_ZN8std_msgs6String11deserializeEPh+0x50>
     48c:	b13c      	cbz	r4, 49e <_ZN8std_msgs6String11deserializeEPh+0x3e>
     48e:	460b      	mov	r3, r1
     490:	f813 4f05 	ldrb.w	r4, [r3, #5]!
     494:	2206      	movs	r2, #6
     496:	4282      	cmp	r2, r0
     498:	f803 4c01 	strb.w	r4, [r3, #-1]
     49c:	d008      	beq.n	4b0 <_ZN8std_msgs6String11deserializeEPh+0x50>
     49e:	785c      	ldrb	r4, [r3, #1]
     4a0:	3202      	adds	r2, #2
     4a2:	f803 4b01 	strb.w	r4, [r3], #1
     4a6:	785c      	ldrb	r4, [r3, #1]
     4a8:	4282      	cmp	r2, r0
     4aa:	f803 4b01 	strb.w	r4, [r3], #1
     4ae:	d1f6      	bne.n	49e <_ZN8std_msgs6String11deserializeEPh+0x3e>
     4b0:	1949      	adds	r1, r1, r5
     4b2:	2300      	movs	r3, #0
     4b4:	70cb      	strb	r3, [r1, #3]
     4b6:	6077      	str	r7, [r6, #4]
     4b8:	b002      	add	sp, #8
     4ba:	bcf0      	pop	{r4, r5, r6, r7}
     4bc:	4770      	bx	lr
     4be:	bf00      	nop

000004c0 <_ZNK8std_msgs6String9serializeEPh>:
     4c0:	b570      	push	{r4, r5, r6, lr}
     4c2:	4605      	mov	r5, r0
     4c4:	b082      	sub	sp, #8
     4c6:	6840      	ldr	r0, [r0, #4]
     4c8:	460e      	mov	r6, r1
     4ca:	f006 ffcf 	bl	746c <strlen>
     4ce:	ab02      	add	r3, sp, #8
     4d0:	f843 0d04 	str.w	r0, [r3, #-4]!
     4d4:	4604      	mov	r4, r0
     4d6:	6818      	ldr	r0, [r3, #0]
     4d8:	4631      	mov	r1, r6
     4da:	f841 0b04 	str.w	r0, [r1], #4
     4de:	4608      	mov	r0, r1
     4e0:	4622      	mov	r2, r4
     4e2:	6869      	ldr	r1, [r5, #4]
     4e4:	f006 fcfb 	bl	6ede <memcpy>
     4e8:	1d20      	adds	r0, r4, #4
     4ea:	b002      	add	sp, #8
     4ec:	bd70      	pop	{r4, r5, r6, pc}
     4ee:	bf00      	nop

000004f0 <_ZNK14rosserial_msgs20RequestParamResponse9serializeEPh>:
     4f0:	e92d 43f0 	stmdb	sp!, {r4, r5, r6, r7, r8, r9, lr}
     4f4:	7903      	ldrb	r3, [r0, #4]
     4f6:	460e      	mov	r6, r1
     4f8:	2100      	movs	r1, #0
     4fa:	7033      	strb	r3, [r6, #0]
     4fc:	7071      	strb	r1, [r6, #1]
     4fe:	70b1      	strb	r1, [r6, #2]
     500:	70f1      	strb	r1, [r6, #3]
     502:	4604      	mov	r4, r0
     504:	7900      	ldrb	r0, [r0, #4]
     506:	b083      	sub	sp, #12
     508:	2800      	cmp	r0, #0
     50a:	d065      	beq.n	5d8 <_ZNK14rosserial_msgs20RequestParamResponse9serializeEPh+0xe8>
     50c:	4633      	mov	r3, r6
     50e:	2004      	movs	r0, #4
     510:	68e2      	ldr	r2, [r4, #12]
     512:	1c4d      	adds	r5, r1, #1
     514:	f852 2021 	ldr.w	r2, [r2, r1, lsl #2]
     518:	b2e9      	uxtb	r1, r5
     51a:	0c17      	lsrs	r7, r2, #16
     51c:	0e15      	lsrs	r5, r2, #24
     51e:	ea4f 2c12 	mov.w	r12, r2, lsr #8
     522:	711a      	strb	r2, [r3, #4]
     524:	f883 c005 	strb.w	r12, [r3, #5]
     528:	719f      	strb	r7, [r3, #6]
     52a:	71dd      	strb	r5, [r3, #7]
     52c:	7922      	ldrb	r2, [r4, #4]
     52e:	3004      	adds	r0, #4
     530:	3304      	adds	r3, #4
     532:	428a      	cmp	r2, r1
     534:	d8ec      	bhi.n	510 <_ZNK14rosserial_msgs20RequestParamResponse9serializeEPh+0x20>
     536:	4603      	mov	r3, r0
     538:	3004      	adds	r0, #4
     53a:	f103 0801 	add.w	r8, r3, #1
     53e:	f103 0c02 	add.w	r12, r3, #2
     542:	1cdf      	adds	r7, r3, #3
     544:	4602      	mov	r2, r0
     546:	7c25      	ldrb	r5, [r4, #16]
     548:	2100      	movs	r1, #0
     54a:	54f5      	strb	r5, [r6, r3]
     54c:	f806 1008 	strb.w	r1, [r6, r8]
     550:	f806 100c 	strb.w	r1, [r6, r12]
     554:	55f1      	strb	r1, [r6, r7]
     556:	7c23      	ldrb	r3, [r4, #16]
     558:	b1a3      	cbz	r3, 584 <_ZNK14rosserial_msgs20RequestParamResponse9serializeEPh+0x94>
     55a:	1833      	adds	r3, r6, r0
     55c:	69a7      	ldr	r7, [r4, #24]
     55e:	1c4d      	adds	r5, r1, #1
     560:	f857 2021 	ldr.w	r2, [r7, r1, lsl #2]
     564:	b2e9      	uxtb	r1, r5
     566:	0c17      	lsrs	r7, r2, #16
     568:	0e15      	lsrs	r5, r2, #24
     56a:	ea4f 2812 	mov.w	r8, r2, lsr #8
     56e:	5432      	strb	r2, [r6, r0]
     570:	f883 8001 	strb.w	r8, [r3, #1]
     574:	709f      	strb	r7, [r3, #2]
     576:	70dd      	strb	r5, [r3, #3]
     578:	7c22      	ldrb	r2, [r4, #16]
     57a:	3004      	adds	r0, #4
     57c:	3304      	adds	r3, #4
     57e:	428a      	cmp	r2, r1
     580:	d8ec      	bhi.n	55c <_ZNK14rosserial_msgs20RequestParamResponse9serializeEPh+0x6c>
     582:	4602      	mov	r2, r0
     584:	7f21      	ldrb	r1, [r4, #28]
     586:	1833      	adds	r3, r6, r0
     588:	2500      	movs	r5, #0
     58a:	54b1      	strb	r1, [r6, r2]
     58c:	705d      	strb	r5, [r3, #1]
     58e:	709d      	strb	r5, [r3, #2]
     590:	70dd      	strb	r5, [r3, #3]
     592:	7f22      	ldrb	r2, [r4, #28]
     594:	f100 0804 	add.w	r8, r0, #4
     598:	b1d2      	cbz	r2, 5d0 <_ZNK14rosserial_msgs20RequestParamResponse9serializeEPh+0xe0>
     59a:	6a67      	ldr	r7, [r4, #36]	; 0x24
     59c:	f108 0904 	add.w	r9, r8, #4
     5a0:	f857 0025 	ldr.w	r0, [r7, r5, lsl #2]
     5a4:	f006 ff62 	bl	746c <strlen>
     5a8:	9001      	str	r0, [sp, #4]
     5aa:	4607      	mov	r7, r0
     5ac:	9801      	ldr	r0, [sp, #4]
     5ae:	463a      	mov	r2, r7
     5b0:	f846 0008 	str.w	r0, [r6, r8]
     5b4:	6a61      	ldr	r1, [r4, #36]	; 0x24
     5b6:	eb06 0009 	add.w	r0, r6, r9
     5ba:	f851 1025 	ldr.w	r1, [r1, r5, lsl #2]
     5be:	f006 fc8e 	bl	6ede <memcpy>
     5c2:	3501      	adds	r5, #1
     5c4:	7f23      	ldrb	r3, [r4, #28]
     5c6:	b2ed      	uxtb	r5, r5
     5c8:	42ab      	cmp	r3, r5
     5ca:	eb09 0807 	add.w	r8, r9, r7
     5ce:	d8e4      	bhi.n	59a <_ZNK14rosserial_msgs20RequestParamResponse9serializeEPh+0xaa>
     5d0:	4640      	mov	r0, r8
     5d2:	b003      	add	sp, #12
     5d4:	e8bd 83f0 	ldmia.w	sp!, {r4, r5, r6, r7, r8, r9, pc}
     5d8:	2208      	movs	r2, #8
     5da:	4610      	mov	r0, r2
     5dc:	2707      	movs	r7, #7
     5de:	f04f 0c06 	mov.w	r12, #6
     5e2:	f04f 0805 	mov.w	r8, #5
     5e6:	2304      	movs	r3, #4
     5e8:	e7ad      	b.n	546 <_ZNK14rosserial_msgs20RequestParamResponse9serializeEPh+0x56>
     5ea:	bf00      	nop

000005ec <_ZN14rosserial_msgs3Log11deserializeEPh>:
     5ec:	b4f0      	push	{r4, r5, r6, r7}
     5ee:	460b      	mov	r3, r1
     5f0:	f813 2b01 	ldrb.w	r2, [r3], #1
     5f4:	4606      	mov	r6, r0
     5f6:	7102      	strb	r2, [r0, #4]
     5f8:	6818      	ldr	r0, [r3, #0]
     5fa:	b082      	sub	sp, #8
     5fc:	9001      	str	r0, [sp, #4]
     5fe:	9d01      	ldr	r5, [sp, #4]
     600:	1d0f      	adds	r7, r1, #4
     602:	1d68      	adds	r0, r5, #5
     604:	2805      	cmp	r0, #5
     606:	d91d      	bls.n	644 <_ZN14rosserial_msgs3Log11deserializeEPh+0x58>
     608:	460b      	mov	r3, r1
     60a:	f813 7f05 	ldrb.w	r7, [r3, #5]!
     60e:	2206      	movs	r2, #6
     610:	1e6c      	subs	r4, r5, #1
     612:	f803 7c01 	strb.w	r7, [r3, #-1]
     616:	1d0f      	adds	r7, r1, #4
     618:	4282      	cmp	r2, r0
     61a:	f004 0401 	and.w	r4, r4, #1
     61e:	d011      	beq.n	644 <_ZN14rosserial_msgs3Log11deserializeEPh+0x58>
     620:	b13c      	cbz	r4, 632 <_ZN14rosserial_msgs3Log11deserializeEPh+0x46>
     622:	460b      	mov	r3, r1
     624:	f813 4f06 	ldrb.w	r4, [r3, #6]!
     628:	2207      	movs	r2, #7
     62a:	4282      	cmp	r2, r0
     62c:	f803 4c01 	strb.w	r4, [r3, #-1]
     630:	d008      	beq.n	644 <_ZN14rosserial_msgs3Log11deserializeEPh+0x58>
     632:	785c      	ldrb	r4, [r3, #1]
     634:	3202      	adds	r2, #2
     636:	f803 4b01 	strb.w	r4, [r3], #1
     63a:	785c      	ldrb	r4, [r3, #1]
     63c:	4282      	cmp	r2, r0
     63e:	f803 4b01 	strb.w	r4, [r3], #1
     642:	d1f6      	bne.n	632 <_ZN14rosserial_msgs3Log11deserializeEPh+0x46>
     644:	1949      	adds	r1, r1, r5
     646:	2300      	movs	r3, #0
     648:	710b      	strb	r3, [r1, #4]
     64a:	60b7      	str	r7, [r6, #8]
     64c:	b002      	add	sp, #8
     64e:	bcf0      	pop	{r4, r5, r6, r7}
     650:	4770      	bx	lr
     652:	bf00      	nop

00000654 <_ZNK14rosserial_msgs3Log9serializeEPh>:
     654:	b570      	push	{r4, r5, r6, lr}
     656:	7903      	ldrb	r3, [r0, #4]
     658:	b082      	sub	sp, #8
     65a:	700b      	strb	r3, [r1, #0]
     65c:	4606      	mov	r6, r0
     65e:	6880      	ldr	r0, [r0, #8]
     660:	460d      	mov	r5, r1
     662:	f006 ff03 	bl	746c <strlen>
     666:	4604      	mov	r4, r0
     668:	a802      	add	r0, sp, #8
     66a:	f840 4d04 	str.w	r4, [r0, #-4]!
     66e:	6801      	ldr	r1, [r0, #0]
     670:	4622      	mov	r2, r4
     672:	f8c5 1001 	str.w	r1, [r5, #1]
     676:	68b1      	ldr	r1, [r6, #8]
     678:	1d68      	adds	r0, r5, #5
     67a:	f006 fc30 	bl	6ede <memcpy>
     67e:	1d60      	adds	r0, r4, #5
     680:	b002      	add	sp, #8
     682:	bd70      	pop	{r4, r5, r6, pc}

00000684 <_ZN14rosserial_msgs9TopicInfo11deserializeEPh>:
     684:	b4f0      	push	{r4, r5, r6, r7}
     686:	780b      	ldrb	r3, [r1, #0]
     688:	4606      	mov	r6, r0
     68a:	8083      	strh	r3, [r0, #4]
     68c:	784a      	ldrb	r2, [r1, #1]
     68e:	b084      	sub	sp, #16
     690:	ea43 2002 	orr.w	r0, r3, r2, lsl #8
     694:	80b0      	strh	r0, [r6, #4]
     696:	f8d1 4002 	ldr.w	r4, [r1, #2]
     69a:	1d4d      	adds	r5, r1, #5
     69c:	9401      	str	r4, [sp, #4]
     69e:	9c01      	ldr	r4, [sp, #4]
     6a0:	1da7      	adds	r7, r4, #6
     6a2:	2f06      	cmp	r7, #6
     6a4:	d91d      	bls.n	6e2 <_ZN14rosserial_msgs9TopicInfo11deserializeEPh+0x5e>
     6a6:	460b      	mov	r3, r1
     6a8:	f813 5f06 	ldrb.w	r5, [r3, #6]!
     6ac:	2207      	movs	r2, #7
     6ae:	1e60      	subs	r0, r4, #1
     6b0:	f803 5c01 	strb.w	r5, [r3, #-1]
     6b4:	1d4d      	adds	r5, r1, #5
     6b6:	42ba      	cmp	r2, r7
     6b8:	f000 0001 	and.w	r0, r0, #1
     6bc:	d011      	beq.n	6e2 <_ZN14rosserial_msgs9TopicInfo11deserializeEPh+0x5e>
     6be:	b138      	cbz	r0, 6d0 <_ZN14rosserial_msgs9TopicInfo11deserializeEPh+0x4c>
     6c0:	460b      	mov	r3, r1
     6c2:	f813 0f07 	ldrb.w	r0, [r3, #7]!
     6c6:	2208      	movs	r2, #8
     6c8:	42ba      	cmp	r2, r7
     6ca:	f803 0c01 	strb.w	r0, [r3, #-1]
     6ce:	d008      	beq.n	6e2 <_ZN14rosserial_msgs9TopicInfo11deserializeEPh+0x5e>
     6d0:	7858      	ldrb	r0, [r3, #1]
     6d2:	3202      	adds	r2, #2
     6d4:	f803 0b01 	strb.w	r0, [r3], #1
     6d8:	7858      	ldrb	r0, [r3, #1]
     6da:	42ba      	cmp	r2, r7
     6dc:	f803 0b01 	strb.w	r0, [r3], #1
     6e0:	d1f6      	bne.n	6d0 <_ZN14rosserial_msgs9TopicInfo11deserializeEPh+0x4c>
     6e2:	190b      	adds	r3, r1, r4
     6e4:	2200      	movs	r2, #0
     6e6:	715a      	strb	r2, [r3, #5]
     6e8:	60b5      	str	r5, [r6, #8]
     6ea:	59cc      	ldr	r4, [r1, r7]
     6ec:	f107 0c04 	add.w	r12, r7, #4
     6f0:	9402      	str	r4, [sp, #8]
     6f2:	9d02      	ldr	r5, [sp, #8]
     6f4:	4465      	add	r5, r12
     6f6:	45ac      	cmp	r12, r5
     6f8:	d21a      	bcs.n	730 <_ZN14rosserial_msgs9TopicInfo11deserializeEPh+0xac>
     6fa:	7a98      	ldrb	r0, [r3, #10]
     6fc:	ea6f 020c 	mvn.w	r2, r12
     700:	1d7c      	adds	r4, r7, #5
     702:	7258      	strb	r0, [r3, #9]
     704:	1952      	adds	r2, r2, r5
     706:	3301      	adds	r3, #1
     708:	42ac      	cmp	r4, r5
     70a:	f002 0001 	and.w	r0, r2, #1
     70e:	d20f      	bcs.n	730 <_ZN14rosserial_msgs9TopicInfo11deserializeEPh+0xac>
     710:	b128      	cbz	r0, 71e <_ZN14rosserial_msgs9TopicInfo11deserializeEPh+0x9a>
     712:	7a9a      	ldrb	r2, [r3, #10]
     714:	1dbc      	adds	r4, r7, #6
     716:	725a      	strb	r2, [r3, #9]
     718:	3301      	adds	r3, #1
     71a:	42ac      	cmp	r4, r5
     71c:	d208      	bcs.n	730 <_ZN14rosserial_msgs9TopicInfo11deserializeEPh+0xac>
     71e:	7a9f      	ldrb	r7, [r3, #10]
     720:	1c58      	adds	r0, r3, #1
     722:	7ada      	ldrb	r2, [r3, #11]
     724:	3402      	adds	r4, #2
     726:	725f      	strb	r7, [r3, #9]
     728:	1c43      	adds	r3, r0, #1
     72a:	42ac      	cmp	r4, r5
     72c:	7242      	strb	r2, [r0, #9]
     72e:	d3f6      	bcc.n	71e <_ZN14rosserial_msgs9TopicInfo11deserializeEPh+0x9a>
     730:	f10c 34ff 	add.w	r4, r12, #4294967295	; 0xffffffff
     734:	190f      	adds	r7, r1, r4
     736:	2000      	movs	r0, #0
     738:	194b      	adds	r3, r1, r5
     73a:	f803 0c01 	strb.w	r0, [r3, #-1]
     73e:	60f7      	str	r7, [r6, #12]
     740:	681a      	ldr	r2, [r3, #0]
     742:	1d2f      	adds	r7, r5, #4
     744:	9203      	str	r2, [sp, #12]
     746:	9c03      	ldr	r4, [sp, #12]
     748:	1938      	adds	r0, r7, r4
     74a:	4287      	cmp	r7, r0
     74c:	d21b      	bcs.n	786 <_ZN14rosserial_msgs9TopicInfo11deserializeEPh+0x102>
     74e:	f893 c004 	ldrb.w	r12, [r3, #4]
     752:	43fa      	mvns	r2, r7
     754:	1d6c      	adds	r4, r5, #5
     756:	1812      	adds	r2, r2, r0
     758:	f883 c003 	strb.w	r12, [r3, #3]
     75c:	3301      	adds	r3, #1
     75e:	4284      	cmp	r4, r0
     760:	f002 0201 	and.w	r2, r2, #1
     764:	d20f      	bcs.n	786 <_ZN14rosserial_msgs9TopicInfo11deserializeEPh+0x102>
     766:	b12a      	cbz	r2, 774 <_ZN14rosserial_msgs9TopicInfo11deserializeEPh+0xf0>
     768:	791a      	ldrb	r2, [r3, #4]
     76a:	1dac      	adds	r4, r5, #6
     76c:	70da      	strb	r2, [r3, #3]
     76e:	3301      	adds	r3, #1
     770:	4284      	cmp	r4, r0
     772:	d208      	bcs.n	786 <_ZN14rosserial_msgs9TopicInfo11deserializeEPh+0x102>
     774:	791d      	ldrb	r5, [r3, #4]
     776:	1c5a      	adds	r2, r3, #1
     778:	70dd      	strb	r5, [r3, #3]
     77a:	795b      	ldrb	r3, [r3, #5]
     77c:	3402      	adds	r4, #2
     77e:	70d3      	strb	r3, [r2, #3]
     780:	1c53      	adds	r3, r2, #1
     782:	4284      	cmp	r4, r0
     784:	d3f6      	bcc.n	774 <_ZN14rosserial_msgs9TopicInfo11deserializeEPh+0xf0>
     786:	1e7c      	subs	r4, r7, #1
     788:	180b      	adds	r3, r1, r0
     78a:	190f      	adds	r7, r1, r4
     78c:	2500      	movs	r5, #0
     78e:	f803 5c01 	strb.w	r5, [r3, #-1]
     792:	6137      	str	r7, [r6, #16]
     794:	789a      	ldrb	r2, [r3, #2]
     796:	785d      	ldrb	r5, [r3, #1]
     798:	5c09      	ldrb	r1, [r1, r0]
     79a:	0414      	lsls	r4, r2, #16
     79c:	78da      	ldrb	r2, [r3, #3]
     79e:	ea44 2305 	orr.w	r3, r4, r5, lsl #8
     7a2:	430b      	orrs	r3, r1
     7a4:	ea43 6102 	orr.w	r1, r3, r2, lsl #24
     7a8:	6171      	str	r1, [r6, #20]
     7aa:	3004      	adds	r0, #4
     7ac:	b004      	add	sp, #16
     7ae:	bcf0      	pop	{r4, r5, r6, r7}
     7b0:	4770      	bx	lr
     7b2:	bf00      	nop

000007b4 <_ZNK14rosserial_msgs9TopicInfo9serializeEPh>:
     7b4:	8883      	ldrh	r3, [r0, #4]
     7b6:	e92d 41f0 	stmdb	sp!, {r4, r5, r6, r7, r8, lr}
     7ba:	700b      	strb	r3, [r1, #0]
     7bc:	4605      	mov	r5, r0
     7be:	8880      	ldrh	r0, [r0, #4]
     7c0:	460c      	mov	r4, r1
     7c2:	0a01      	lsrs	r1, r0, #8
     7c4:	7061      	strb	r1, [r4, #1]
     7c6:	b084      	sub	sp, #16
     7c8:	68a8      	ldr	r0, [r5, #8]
     7ca:	f006 fe4f 	bl	746c <strlen>
     7ce:	aa04      	add	r2, sp, #16
     7d0:	f842 0d0c 	str.w	r0, [r2, #-12]!
     7d4:	6817      	ldr	r7, [r2, #0]
     7d6:	4606      	mov	r6, r0
     7d8:	f8c4 7002 	str.w	r7, [r4, #2]
     7dc:	4602      	mov	r2, r0
     7de:	68a9      	ldr	r1, [r5, #8]
     7e0:	1da0      	adds	r0, r4, #6
     7e2:	f006 fb7c 	bl	6ede <memcpy>
     7e6:	68e8      	ldr	r0, [r5, #12]
     7e8:	f006 fe40 	bl	746c <strlen>
     7ec:	ab04      	add	r3, sp, #16
     7ee:	f843 0d08 	str.w	r0, [r3, #-8]!
     7f2:	4680      	mov	r8, r0
     7f4:	6818      	ldr	r0, [r3, #0]
     7f6:	1db1      	adds	r1, r6, #6
     7f8:	5060      	str	r0, [r4, r1]
     7fa:	360a      	adds	r6, #10
     7fc:	68e9      	ldr	r1, [r5, #12]
     7fe:	4642      	mov	r2, r8
     800:	19a0      	adds	r0, r4, r6
     802:	f006 fb6c 	bl	6ede <memcpy>
     806:	6928      	ldr	r0, [r5, #16]
     808:	f006 fe30 	bl	746c <strlen>
     80c:	aa04      	add	r2, sp, #16
     80e:	f842 0d04 	str.w	r0, [r2, #-4]!
     812:	6813      	ldr	r3, [r2, #0]
     814:	4446      	add	r6, r8
     816:	51a3      	str	r3, [r4, r6]
     818:	4607      	mov	r7, r0
     81a:	f106 0804 	add.w	r8, r6, #4
     81e:	6929      	ldr	r1, [r5, #16]
     820:	463a      	mov	r2, r7
     822:	eb04 0008 	add.w	r0, r4, r8
     826:	f006 fb5a 	bl	6ede <memcpy>
     82a:	696b      	ldr	r3, [r5, #20]
     82c:	eb08 0007 	add.w	r0, r8, r7
     830:	1822      	adds	r2, r4, r0
     832:	0a1e      	lsrs	r6, r3, #8
     834:	0c1d      	lsrs	r5, r3, #16
     836:	0e19      	lsrs	r1, r3, #24
     838:	5423      	strb	r3, [r4, r0]
     83a:	3004      	adds	r0, #4
     83c:	7056      	strb	r6, [r2, #1]
     83e:	7095      	strb	r5, [r2, #2]
     840:	70d1      	strb	r1, [r2, #3]
     842:	b004      	add	sp, #16
     844:	e8bd 81f0 	ldmia.w	sp!, {r4, r5, r6, r7, r8, pc}

00000848 <_ZN14rosserial_msgs20RequestParamResponse11deserializeEPh>:
     848:	e92d 47f0 	stmdb	sp!, {r4, r5, r6, r7, r8, r9, r10, lr}
     84c:	780c      	ldrb	r4, [r1, #0]
     84e:	7903      	ldrb	r3, [r0, #4]
     850:	b082      	sub	sp, #8
     852:	42a3      	cmp	r3, r4
     854:	4606      	mov	r6, r0
     856:	4688      	mov	r8, r1
     858:	f0c0 808f 	bcc.w	97a <_ZN14rosserial_msgs20RequestParamResponse11deserializeEPh+0x132>
     85c:	7134      	strb	r4, [r6, #4]
     85e:	2c00      	cmp	r4, #0
     860:	f000 8094 	beq.w	98c <_ZN14rosserial_msgs20RequestParamResponse11deserializeEPh+0x144>
     864:	4643      	mov	r3, r8
     866:	2200      	movs	r2, #0
     868:	2104      	movs	r1, #4
     86a:	f106 0708 	add.w	r7, r6, #8
     86e:	7998      	ldrb	r0, [r3, #6]
     870:	f893 c005 	ldrb.w	r12, [r3, #5]
     874:	791d      	ldrb	r5, [r3, #4]
     876:	0400      	lsls	r0, r0, #16
     878:	79dc      	ldrb	r4, [r3, #7]
     87a:	ea40 200c 	orr.w	r0, r0, r12, lsl #8
     87e:	4328      	orrs	r0, r5
     880:	ea40 6504 	orr.w	r5, r0, r4, lsl #24
     884:	60b5      	str	r5, [r6, #8]
     886:	68f0      	ldr	r0, [r6, #12]
     888:	683d      	ldr	r5, [r7, #0]
     88a:	1c54      	adds	r4, r2, #1
     88c:	f840 5022 	str.w	r5, [r0, r2, lsl #2]
     890:	7930      	ldrb	r0, [r6, #4]
     892:	b2e2      	uxtb	r2, r4
     894:	3104      	adds	r1, #4
     896:	3304      	adds	r3, #4
     898:	4290      	cmp	r0, r2
     89a:	d8e8      	bhi.n	86e <_ZN14rosserial_msgs20RequestParamResponse11deserializeEPh+0x26>
     89c:	1d0c      	adds	r4, r1, #4
     89e:	f818 5001 	ldrb.w	r5, [r8, r1]
     8a2:	7c31      	ldrb	r1, [r6, #16]
     8a4:	4627      	mov	r7, r4
     8a6:	42a9      	cmp	r1, r5
     8a8:	d378      	bcc.n	99c <_ZN14rosserial_msgs20RequestParamResponse11deserializeEPh+0x154>
     8aa:	7435      	strb	r5, [r6, #16]
     8ac:	b1ed      	cbz	r5, 8ea <_ZN14rosserial_msgs20RequestParamResponse11deserializeEPh+0xa2>
     8ae:	eb08 0304 	add.w	r3, r8, r4
     8b2:	2100      	movs	r1, #0
     8b4:	f106 0714 	add.w	r7, r6, #20
     8b8:	7898      	ldrb	r0, [r3, #2]
     8ba:	f893 c001 	ldrb.w	r12, [r3, #1]
     8be:	f818 5004 	ldrb.w	r5, [r8, r4]
     8c2:	0402      	lsls	r2, r0, #16
     8c4:	ea42 220c 	orr.w	r2, r2, r12, lsl #8
     8c8:	78d8      	ldrb	r0, [r3, #3]
     8ca:	432a      	orrs	r2, r5
     8cc:	ea42 6500 	orr.w	r5, r2, r0, lsl #24
     8d0:	6175      	str	r5, [r6, #20]
     8d2:	69b2      	ldr	r2, [r6, #24]
     8d4:	683d      	ldr	r5, [r7, #0]
     8d6:	1c48      	adds	r0, r1, #1
     8d8:	f842 5021 	str.w	r5, [r2, r1, lsl #2]
     8dc:	7c32      	ldrb	r2, [r6, #16]
     8de:	b2c1      	uxtb	r1, r0
     8e0:	3404      	adds	r4, #4
     8e2:	3304      	adds	r3, #4
     8e4:	428a      	cmp	r2, r1
     8e6:	d8e7      	bhi.n	8b8 <_ZN14rosserial_msgs20RequestParamResponse11deserializeEPh+0x70>
     8e8:	4627      	mov	r7, r4
     8ea:	f818 5007 	ldrb.w	r5, [r8, r7]
     8ee:	7f30      	ldrb	r0, [r6, #28]
     8f0:	42a8      	cmp	r0, r5
     8f2:	d359      	bcc.n	9a8 <_ZN14rosserial_msgs20RequestParamResponse11deserializeEPh+0x160>
     8f4:	1d22      	adds	r2, r4, #4
     8f6:	7735      	strb	r5, [r6, #28]
     8f8:	2d00      	cmp	r5, #0
     8fa:	d03a      	beq.n	972 <_ZN14rosserial_msgs20RequestParamResponse11deserializeEPh+0x12a>
     8fc:	2100      	movs	r1, #0
     8fe:	f106 0920 	add.w	r9, r6, #32
     902:	468c      	mov	r12, r1
     904:	eb08 0302 	add.w	r3, r8, r2
     908:	681d      	ldr	r5, [r3, #0]
     90a:	1d17      	adds	r7, r2, #4
     90c:	9501      	str	r5, [sp, #4]
     90e:	9801      	ldr	r0, [sp, #4]
     910:	183d      	adds	r5, r7, r0
     912:	42af      	cmp	r7, r5
     914:	d21b      	bcs.n	94e <_ZN14rosserial_msgs20RequestParamResponse11deserializeEPh+0x106>
     916:	43fc      	mvns	r4, r7
     918:	f893 a004 	ldrb.w	r10, [r3, #4]
     91c:	1960      	adds	r0, r4, r5
     91e:	1d54      	adds	r4, r2, #5
     920:	f883 a003 	strb.w	r10, [r3, #3]
     924:	3301      	adds	r3, #1
     926:	42ac      	cmp	r4, r5
     928:	f000 0001 	and.w	r0, r0, #1
     92c:	d20f      	bcs.n	94e <_ZN14rosserial_msgs20RequestParamResponse11deserializeEPh+0x106>
     92e:	b128      	cbz	r0, 93c <_ZN14rosserial_msgs20RequestParamResponse11deserializeEPh+0xf4>
     930:	7918      	ldrb	r0, [r3, #4]
     932:	1d94      	adds	r4, r2, #6
     934:	70d8      	strb	r0, [r3, #3]
     936:	3301      	adds	r3, #1
     938:	42ac      	cmp	r4, r5
     93a:	d208      	bcs.n	94e <_ZN14rosserial_msgs20RequestParamResponse11deserializeEPh+0x106>
     93c:	7918      	ldrb	r0, [r3, #4]
     93e:	1c5a      	adds	r2, r3, #1
     940:	70d8      	strb	r0, [r3, #3]
     942:	795b      	ldrb	r3, [r3, #5]
     944:	3402      	adds	r4, #2
     946:	70d3      	strb	r3, [r2, #3]
     948:	1c53      	adds	r3, r2, #1
     94a:	42ac      	cmp	r4, r5
     94c:	d3f6      	bcc.n	93c <_ZN14rosserial_msgs20RequestParamResponse11deserializeEPh+0xf4>
     94e:	3f01      	subs	r7, #1
     950:	eb08 0005 	add.w	r0, r8, r5
     954:	4447      	add	r7, r8
     956:	f800 cc01 	strb.w	r12, [r0, #-1]
     95a:	6237      	str	r7, [r6, #32]
     95c:	6a73      	ldr	r3, [r6, #36]	; 0x24
     95e:	f8d9 0000 	ldr.w	r0, [r9]
     962:	1c4a      	adds	r2, r1, #1
     964:	f843 0021 	str.w	r0, [r3, r1, lsl #2]
     968:	7f33      	ldrb	r3, [r6, #28]
     96a:	b2d1      	uxtb	r1, r2
     96c:	428b      	cmp	r3, r1
     96e:	462a      	mov	r2, r5
     970:	d8c8      	bhi.n	904 <_ZN14rosserial_msgs20RequestParamResponse11deserializeEPh+0xbc>
     972:	4610      	mov	r0, r2
     974:	b002      	add	sp, #8
     976:	e8bd 87f0 	ldmia.w	sp!, {r4, r5, r6, r7, r8, r9, r10, pc}
     97a:	68c0      	ldr	r0, [r0, #12]
     97c:	00a1      	lsls	r1, r4, #2
     97e:	f006 fb47 	bl	7010 <realloc>
     982:	7134      	strb	r4, [r6, #4]
     984:	60f0      	str	r0, [r6, #12]
     986:	2c00      	cmp	r4, #0
     988:	f47f af6c 	bne.w	864 <_ZN14rosserial_msgs20RequestParamResponse11deserializeEPh+0x1c>
     98c:	2104      	movs	r1, #4
     98e:	f818 5001 	ldrb.w	r5, [r8, r1]
     992:	7c31      	ldrb	r1, [r6, #16]
     994:	2708      	movs	r7, #8
     996:	42a9      	cmp	r1, r5
     998:	463c      	mov	r4, r7
     99a:	d286      	bcs.n	8aa <_ZN14rosserial_msgs20RequestParamResponse11deserializeEPh+0x62>
     99c:	69b0      	ldr	r0, [r6, #24]
     99e:	00a9      	lsls	r1, r5, #2
     9a0:	f006 fb36 	bl	7010 <realloc>
     9a4:	61b0      	str	r0, [r6, #24]
     9a6:	e780      	b.n	8aa <_ZN14rosserial_msgs20RequestParamResponse11deserializeEPh+0x62>
     9a8:	6a70      	ldr	r0, [r6, #36]	; 0x24
     9aa:	00a9      	lsls	r1, r5, #2
     9ac:	f006 fb30 	bl	7010 <realloc>
     9b0:	6270      	str	r0, [r6, #36]	; 0x24
     9b2:	e79f      	b.n	8f4 <_ZN14rosserial_msgs20RequestParamResponse11deserializeEPh+0xac>

000009b4 <_ZN3ros11NodeHandle_I12MbedHardwareLi25ELi25ELi512ELi512EE7publishEiPKNS_3MsgE>:
     9b4:	e92d 41f0 	stmdb	sp!, {r4, r5, r6, r7, r8, lr}
     9b8:	2963      	cmp	r1, #99	; 0x63
     9ba:	b084      	sub	sp, #16
     9bc:	460e      	mov	r6, r1
     9be:	4604      	mov	r4, r0
     9c0:	dd03      	ble.n	9ca <_ZN3ros11NodeHandle_I12MbedHardwareLi25ELi25ELi512ELi512EE7publishEiPKNS_3MsgE+0x16>
     9c2:	f890 75fc 	ldrb.w	r7, [r0, #1532]	; 0x5fc
     9c6:	2f00      	cmp	r7, #0
     9c8:	d065      	beq.n	a96 <_ZN3ros11NodeHandle_I12MbedHardwareLi25ELi25ELi512ELi512EE7publishEiPKNS_3MsgE+0xe2>
     9ca:	6813      	ldr	r3, [r2, #0]
     9cc:	4610      	mov	r0, r2
     9ce:	f204 3127 	addw	r1, r4, #807	; 0x327
     9d2:	681a      	ldr	r2, [r3, #0]
     9d4:	4790      	blx	r2
     9d6:	b2c3      	uxtb	r3, r0
     9d8:	2500      	movs	r5, #0
     9da:	21ff      	movs	r1, #255	; 0xff
     9dc:	43df      	mvns	r7, r3
     9de:	b2f2      	uxtb	r2, r6
     9e0:	f884 3322 	strb.w	r3, [r4, #802]	; 0x322
     9e4:	26fe      	movs	r6, #254	; 0xfe
     9e6:	1c43      	adds	r3, r0, #1
     9e8:	f884 1320 	strb.w	r1, [r4, #800]	; 0x320
     9ec:	f884 6321 	strb.w	r6, [r4, #801]	; 0x321
     9f0:	f884 5323 	strb.w	r5, [r4, #803]	; 0x323
     9f4:	f884 7324 	strb.w	r7, [r4, #804]	; 0x324
     9f8:	f884 2325 	strb.w	r2, [r4, #805]	; 0x325
     9fc:	f884 5326 	strb.w	r5, [r4, #806]	; 0x326
     a00:	db1b      	blt.n	a3a <_ZN3ros11NodeHandle_I12MbedHardwareLi25ELi25ELi512ELi512EE7publishEiPKNS_3MsgE+0x86>
     a02:	1dc6      	adds	r6, r0, #7
     a04:	2305      	movs	r3, #5
     a06:	07c7      	lsls	r7, r0, #31
     a08:	4629      	mov	r1, r5
     a0a:	d40f      	bmi.n	a2c <_ZN3ros11NodeHandle_I12MbedHardwareLi25ELi25ELi512ELi512EE7publishEiPKNS_3MsgE+0x78>
     a0c:	2306      	movs	r3, #6
     a0e:	4611      	mov	r1, r2
     a10:	1c5f      	adds	r7, r3, #1
     a12:	f894 2326 	ldrb.w	r2, [r4, #806]	; 0x326
     a16:	42b7      	cmp	r7, r6
     a18:	440a      	add	r2, r1
     a1a:	d00b      	beq.n	a34 <_ZN3ros11NodeHandle_I12MbedHardwareLi25ELi25ELi512ELi512EE7publishEiPKNS_3MsgE+0x80>
     a1c:	19e5      	adds	r5, r4, r7
     a1e:	f895 1320 	ldrb.w	r1, [r5, #800]	; 0x320
     a22:	1c7b      	adds	r3, r7, #1
     a24:	18e5      	adds	r5, r4, r3
     a26:	1851      	adds	r1, r2, r1
     a28:	f895 2320 	ldrb.w	r2, [r5, #800]	; 0x320
     a2c:	1c5f      	adds	r7, r3, #1
     a2e:	42b7      	cmp	r7, r6
     a30:	440a      	add	r2, r1
     a32:	d1f3      	bne.n	a1c <_ZN3ros11NodeHandle_I12MbedHardwareLi25ELi25ELi512ELi512EE7publishEiPKNS_3MsgE+0x68>
     a34:	43d1      	mvns	r1, r2
     a36:	f001 01ff 	and.w	r1, r1, #255	; 0xff
     a3a:	f100 0708 	add.w	r7, r0, #8
     a3e:	1823      	adds	r3, r4, r0
     a40:	f5b7 7f00 	cmp.w	r7, #512	; 0x200
     a44:	f883 1327 	strb.w	r1, [r3, #807]	; 0x327
     a48:	dc29      	bgt.n	a9e <_ZN3ros11NodeHandle_I12MbedHardwareLi25ELi25ELi512ELi512EE7publishEiPKNS_3MsgE+0xea>
     a4a:	2f00      	cmp	r7, #0
     a4c:	f104 0804 	add.w	r8, r4, #4
     a50:	f504 7448 	add.w	r4, r4, #800	; 0x320
     a54:	dd1f      	ble.n	a96 <_ZN3ros11NodeHandle_I12MbedHardwareLi25ELi25ELi512ELi512EE7publishEiPKNS_3MsgE+0xe2>
     a56:	f108 0804 	add.w	r8, r8, #4
     a5a:	4640      	mov	r0, r8
     a5c:	7821      	ldrb	r1, [r4, #0]
     a5e:	2501      	movs	r5, #1
     a60:	1e7e      	subs	r6, r7, #1
     a62:	f003 fc37 	bl	42d4 <_ZN4mbed6Stream4putcEi>
     a66:	42af      	cmp	r7, r5
     a68:	f006 0601 	and.w	r6, r6, #1
     a6c:	d013      	beq.n	a96 <_ZN3ros11NodeHandle_I12MbedHardwareLi25ELi25ELi512ELi512EE7publishEiPKNS_3MsgE+0xe2>
     a6e:	b136      	cbz	r6, a7e <_ZN3ros11NodeHandle_I12MbedHardwareLi25ELi25ELi512ELi512EE7publishEiPKNS_3MsgE+0xca>
     a70:	4640      	mov	r0, r8
     a72:	7861      	ldrb	r1, [r4, #1]
     a74:	2502      	movs	r5, #2
     a76:	f003 fc2d 	bl	42d4 <_ZN4mbed6Stream4putcEi>
     a7a:	42af      	cmp	r7, r5
     a7c:	d00b      	beq.n	a96 <_ZN3ros11NodeHandle_I12MbedHardwareLi25ELi25ELi512ELi512EE7publishEiPKNS_3MsgE+0xe2>
     a7e:	5d61      	ldrb	r1, [r4, r5]
     a80:	1c6e      	adds	r6, r5, #1
     a82:	4640      	mov	r0, r8
     a84:	f003 fc26 	bl	42d4 <_ZN4mbed6Stream4putcEi>
     a88:	3502      	adds	r5, #2
     a8a:	4640      	mov	r0, r8
     a8c:	5da1      	ldrb	r1, [r4, r6]
     a8e:	f003 fc21 	bl	42d4 <_ZN4mbed6Stream4putcEi>
     a92:	42af      	cmp	r7, r5
     a94:	d1f3      	bne.n	a7e <_ZN3ros11NodeHandle_I12MbedHardwareLi25ELi25ELi512ELi512EE7publishEiPKNS_3MsgE+0xca>
     a96:	4638      	mov	r0, r7
     a98:	b004      	add	sp, #16
     a9a:	e8bd 81f0 	ldmia.w	sp!, {r4, r5, r6, r7, r8, pc}
     a9e:	4f08      	ldr	r7, [pc, #32]	; (ac0 <_ZN3ros11NodeHandle_I12MbedHardwareLi25ELi25ELi512ELi512EE7publishEiPKNS_3MsgE+0x10c>)
     aa0:	4908      	ldr	r1, [pc, #32]	; (ac4 <_ZN3ros11NodeHandle_I12MbedHardwareLi25ELi25ELi512ELi512EE7publishEiPKNS_3MsgE+0x110>)
     aa2:	6820      	ldr	r0, [r4, #0]
     aa4:	2203      	movs	r2, #3
     aa6:	9701      	str	r7, [sp, #4]
     aa8:	f88d 2008 	strb.w	r2, [sp, #8]
     aac:	9103      	str	r1, [sp, #12]
     aae:	6803      	ldr	r3, [r0, #0]
     ab0:	2107      	movs	r1, #7
     ab2:	4620      	mov	r0, r4
     ab4:	aa01      	add	r2, sp, #4
     ab6:	4798      	blx	r3
     ab8:	f04f 37ff 	mov.w	r7, #4294967295	; 0xffffffff
     abc:	e7eb      	b.n	a96 <_ZN3ros11NodeHandle_I12MbedHardwareLi25ELi25ELi512ELi512EE7publishEiPKNS_3MsgE+0xe2>
     abe:	bf00      	nop
     ac0:	000089d0 	.word	0x000089d0
     ac4:	00008d54 	.word	0x00008d54

00000ac8 <_ZN3ros11NodeHandle_I12MbedHardwareLi25ELi25ELi512ELi512EED1Ev>:
     ac8:	4a04      	ldr	r2, [pc, #16]	; (adc <_ZN3ros11NodeHandle_I12MbedHardwareLi25ELi25ELi512ELi512EED1Ev+0x14>)
     aca:	b510      	push	{r4, lr}
     acc:	4604      	mov	r4, r0
     ace:	f840 2b04 	str.w	r2, [r0], #4
     ad2:	3004      	adds	r0, #4
     ad4:	f001 ff58 	bl	2988 <_ZN3AjK9MODSERIALD1Ev>
     ad8:	4620      	mov	r0, r4
     ada:	bd10      	pop	{r4, pc}
     adc:	00008a30 	.word	0x00008a30

00000ae0 <_ZN3ros10SubscriberIN8std_msgs6StringEE8callbackEPh>:
     ae0:	b5f0      	push	{r4, r5, r6, r7, lr}
     ae2:	4606      	mov	r6, r0
     ae4:	6808      	ldr	r0, [r1, #0]
     ae6:	b083      	sub	sp, #12
     ae8:	9001      	str	r0, [sp, #4]
     aea:	9f01      	ldr	r7, [sp, #4]
     aec:	1cc8      	adds	r0, r1, #3
     aee:	1d3d      	adds	r5, r7, #4
     af0:	2d04      	cmp	r5, #4
     af2:	f106 0e0c 	add.w	lr, r6, #12
     af6:	d91d      	bls.n	b34 <_ZN3ros10SubscriberIN8std_msgs6StringEE8callbackEPh+0x54>
     af8:	460b      	mov	r3, r1
     afa:	f813 0f04 	ldrb.w	r0, [r3, #4]!
     afe:	2205      	movs	r2, #5
     b00:	1e7c      	subs	r4, r7, #1
     b02:	f803 0c01 	strb.w	r0, [r3, #-1]
     b06:	1cc8      	adds	r0, r1, #3
     b08:	42aa      	cmp	r2, r5
     b0a:	f004 0401 	and.w	r4, r4, #1
     b0e:	d011      	beq.n	b34 <_ZN3ros10SubscriberIN8std_msgs6StringEE8callbackEPh+0x54>
     b10:	b13c      	cbz	r4, b22 <_ZN3ros10SubscriberIN8std_msgs6StringEE8callbackEPh+0x42>
     b12:	460b      	mov	r3, r1
     b14:	f813 4f05 	ldrb.w	r4, [r3, #5]!
     b18:	2206      	movs	r2, #6
     b1a:	42aa      	cmp	r2, r5
     b1c:	f803 4c01 	strb.w	r4, [r3, #-1]
     b20:	d008      	beq.n	b34 <_ZN3ros10SubscriberIN8std_msgs6StringEE8callbackEPh+0x54>
     b22:	785c      	ldrb	r4, [r3, #1]
     b24:	3202      	adds	r2, #2
     b26:	f803 4b01 	strb.w	r4, [r3], #1
     b2a:	785c      	ldrb	r4, [r3, #1]
     b2c:	42aa      	cmp	r2, r5
     b2e:	f803 4b01 	strb.w	r4, [r3], #1
     b32:	d1f6      	bne.n	b22 <_ZN3ros10SubscriberIN8std_msgs6StringEE8callbackEPh+0x42>
     b34:	19c9      	adds	r1, r1, r7
     b36:	2300      	movs	r3, #0
     b38:	70cb      	strb	r3, [r1, #3]
     b3a:	6972      	ldr	r2, [r6, #20]
     b3c:	6130      	str	r0, [r6, #16]
     b3e:	4670      	mov	r0, lr
     b40:	4790      	blx	r2
     b42:	b003      	add	sp, #12
     b44:	bdf0      	pop	{r4, r5, r6, r7, pc}
     b46:	bf00      	nop

00000b48 <_ZN3ros11NodeHandle_I12MbedHardwareLi25ELi25ELi512ELi512EE8spinOnceEv>:
     b48:	e92d 4ff0 	stmdb	sp!, {r4, r5, r6, r7, r8, r9, r10, r11, lr}
     b4c:	f500 7b84 	add.w	r11, r0, #264	; 0x108
     b50:	4604      	mov	r4, r0
     b52:	b091      	sub	sp, #68	; 0x44
     b54:	4658      	mov	r0, r11
     b56:	f003 fbe3 	bl	4320 <_ZN4mbed5Timer7read_msEv>
     b5a:	f8d4 3604 	ldr.w	r3, [r4, #1540]	; 0x604
     b5e:	4606      	mov	r6, r0
     b60:	f642 22f8 	movw	r2, #11000	; 0x2af8
     b64:	1ac0      	subs	r0, r0, r3
     b66:	1d25      	adds	r5, r4, #4
     b68:	4290      	cmp	r0, r2
     b6a:	d902      	bls.n	b72 <_ZN3ros11NodeHandle_I12MbedHardwareLi25ELi25ELi512ELi512EE8spinOnceEv+0x2a>
     b6c:	2100      	movs	r1, #0
     b6e:	f884 15fc 	strb.w	r1, [r4, #1532]	; 0x5fc
     b72:	f8d4 75e8 	ldr.w	r7, [r4, #1512]	; 0x5e8
     b76:	b127      	cbz	r7, b82 <_ZN3ros11NodeHandle_I12MbedHardwareLi25ELi25ELi512ELi512EE8spinOnceEv+0x3a>
     b78:	f8d4 3608 	ldr.w	r3, [r4, #1544]	; 0x608
     b7c:	42b3      	cmp	r3, r6
     b7e:	f0c0 80cc 	bcc.w	d1a <Stack_Size+0x11a>
     b82:	f644 51d3 	movw	r1, #19923	; 0x4dd3
     b86:	f244 2940 	movw	r9, #16960	; 0x4240
     b8a:	f504 7290 	add.w	r2, r4, #288	; 0x120
     b8e:	f2c1 0162 	movt	r1, #4194	; 0x1062
     b92:	3504      	adds	r5, #4
     b94:	9203      	str	r2, [sp, #12]
     b96:	9102      	str	r1, [sp, #8]
     b98:	f2c0 090f 	movt	r9, #15
     b9c:	4628      	mov	r0, r5
     b9e:	f001 fec3 	bl	2928 <_ZN3AjK9MODSERIAL13rxBufferEmptyEv>
     ba2:	4607      	mov	r7, r0
     ba4:	b9f0      	cbnz	r0, be4 <_ZN3ros11NodeHandle_I12MbedHardwareLi25ELi25ELi512ELi512EE8spinOnceEv+0x9c>
     ba6:	2101      	movs	r1, #1
     ba8:	4628      	mov	r0, r5
     baa:	f001 fc49 	bl	2440 <_ZN3AjK9MODSERIAL6__getcEb>
     bae:	1e02      	subs	r2, r0, #0
     bb0:	db18      	blt.n	be4 <_ZN3ros11NodeHandle_I12MbedHardwareLi25ELi25ELi512ELi512EE8spinOnceEv+0x9c>
     bb2:	f8d4 05f8 	ldr.w	r0, [r4, #1528]	; 0x5f8
     bb6:	f8d4 35e8 	ldr.w	r3, [r4, #1512]	; 0x5e8
     bba:	1811      	adds	r1, r2, r0
     bbc:	2b07      	cmp	r3, #7
     bbe:	f8c4 15f8 	str.w	r1, [r4, #1528]	; 0x5f8
     bc2:	d052      	beq.n	c6a <Stack_Size+0x6a>
     bc4:	b9eb      	cbnz	r3, c02 <Stack_Size+0x2>
     bc6:	2aff      	cmp	r2, #255	; 0xff
     bc8:	d1e8      	bne.n	b9c <_ZN3ros11NodeHandle_I12MbedHardwareLi25ELi25ELi512ELi512EE8spinOnceEv+0x54>
     bca:	f106 0314 	add.w	r3, r6, #20
     bce:	2001      	movs	r0, #1
     bd0:	f8c4 05e8 	str.w	r0, [r4, #1512]	; 0x5e8
     bd4:	f8c4 3608 	str.w	r3, [r4, #1544]	; 0x608
     bd8:	4628      	mov	r0, r5
     bda:	f001 fea5 	bl	2928 <_ZN3AjK9MODSERIAL13rxBufferEmptyEv>
     bde:	4607      	mov	r7, r0
     be0:	2800      	cmp	r0, #0
     be2:	d0e0      	beq.n	ba6 <_ZN3ros11NodeHandle_I12MbedHardwareLi25ELi25ELi512ELi512EE8spinOnceEv+0x5e>
     be4:	f894 05fc 	ldrb.w	r0, [r4, #1532]	; 0x5fc
     be8:	b140      	cbz	r0, bfc <_ZN3ros11NodeHandle_I12MbedHardwareLi25ELi25ELi512ELi512EE8spinOnceEv+0xb4>
     bea:	f8d4 3600 	ldr.w	r3, [r4, #1536]	; 0x600
     bee:	f640 11c4 	movw	r1, #2500	; 0x9c4
     bf2:	1af0      	subs	r0, r6, r3
     bf4:	4288      	cmp	r0, r1
     bf6:	f200 8094 	bhi.w	d22 <Stack_Size+0x122>
     bfa:	2000      	movs	r0, #0
     bfc:	b011      	add	sp, #68	; 0x44
     bfe:	e8bd 8ff0 	ldmia.w	sp!, {r4, r5, r6, r7, r8, r9, r10, r11, pc}
     c02:	2b01      	cmp	r3, #1
     c04:	d044      	beq.n	c90 <Stack_Size+0x90>
     c06:	2b02      	cmp	r3, #2
     c08:	d05b      	beq.n	cc2 <Stack_Size+0xc2>
     c0a:	2b03      	cmp	r3, #3
     c0c:	d063      	beq.n	cd6 <Stack_Size+0xd6>
     c0e:	2b04      	cmp	r3, #4
     c10:	d06b      	beq.n	cea <Stack_Size+0xea>
     c12:	2b05      	cmp	r3, #5
     c14:	d079      	beq.n	d0a <Stack_Size+0x10a>
     c16:	2b06      	cmp	r3, #6
     c18:	f000 8097 	beq.w	d4a <Stack_Size+0x14a>
     c1c:	2b08      	cmp	r3, #8
     c1e:	d1bd      	bne.n	b9c <_ZN3ros11NodeHandle_I12MbedHardwareLi25ELi25ELi512ELi512EE8spinOnceEv+0x54>
     c20:	23ff      	movs	r3, #255	; 0xff
     c22:	f2c8 0300 	movt	r3, #32768	; 0x8000
     c26:	2700      	movs	r7, #0
     c28:	400b      	ands	r3, r1
     c2a:	42bb      	cmp	r3, r7
     c2c:	f8c4 75e8 	str.w	r7, [r4, #1512]	; 0x5e8
     c30:	f2c0 80a3 	blt.w	d7a <Stack_Size+0x17a>
     c34:	2bff      	cmp	r3, #255	; 0xff
     c36:	d1b1      	bne.n	b9c <_ZN3ros11NodeHandle_I12MbedHardwareLi25ELi25ELi512ELi512EE8spinOnceEv+0x54>
     c38:	f8d4 75f0 	ldr.w	r7, [r4, #1520]	; 0x5f0
     c3c:	2f00      	cmp	r7, #0
     c3e:	f000 81c3 	beq.w	fc8 <Stack_Size+0x3c8>
     c42:	2f0a      	cmp	r7, #10
     c44:	f000 80a2 	beq.w	d8c <Stack_Size+0x18c>
     c48:	2f06      	cmp	r7, #6
     c4a:	f000 80f1 	beq.w	e30 <Stack_Size+0x230>
     c4e:	2f0b      	cmp	r7, #11
     c50:	f000 8098 	beq.w	d84 <Stack_Size+0x184>
     c54:	eb04 0187 	add.w	r1, r4, r7, lsl #2
     c58:	f8d1 03f4 	ldr.w	r0, [r1, #1012]	; 0x3f4
     c5c:	2800      	cmp	r0, #0
     c5e:	d09d      	beq.n	b9c <_ZN3ros11NodeHandle_I12MbedHardwareLi25ELi25ELi512ELi512EE8spinOnceEv+0x54>
     c60:	6802      	ldr	r2, [r0, #0]
     c62:	9903      	ldr	r1, [sp, #12]
     c64:	6813      	ldr	r3, [r2, #0]
     c66:	4798      	blx	r3
     c68:	e798      	b.n	b9c <_ZN3ros11NodeHandle_I12MbedHardwareLi25ELi25ELi512ELi512EE8spinOnceEv+0x54>
     c6a:	f8d4 75f4 	ldr.w	r7, [r4, #1524]	; 0x5f4
     c6e:	f8d4 35ec 	ldr.w	r3, [r4, #1516]	; 0x5ec
     c72:	19e0      	adds	r0, r4, r7
     c74:	1c79      	adds	r1, r7, #1
     c76:	1e5f      	subs	r7, r3, #1
     c78:	f880 2120 	strb.w	r2, [r0, #288]	; 0x120
     c7c:	f8c4 15f4 	str.w	r1, [r4, #1524]	; 0x5f4
     c80:	f8c4 75ec 	str.w	r7, [r4, #1516]	; 0x5ec
     c84:	2f00      	cmp	r7, #0
     c86:	d189      	bne.n	b9c <_ZN3ros11NodeHandle_I12MbedHardwareLi25ELi25ELi512ELi512EE8spinOnceEv+0x54>
     c88:	2208      	movs	r2, #8
     c8a:	f8c4 25e8 	str.w	r2, [r4, #1512]	; 0x5e8
     c8e:	e785      	b.n	b9c <_ZN3ros11NodeHandle_I12MbedHardwareLi25ELi25ELi512ELi512EE8spinOnceEv+0x54>
     c90:	2afe      	cmp	r2, #254	; 0xfe
     c92:	d036      	beq.n	d02 <Stack_Size+0x102>
     c94:	f894 05fc 	ldrb.w	r0, [r4, #1532]	; 0x5fc
     c98:	f8c4 75e8 	str.w	r7, [r4, #1512]	; 0x5e8
     c9c:	2800      	cmp	r0, #0
     c9e:	f47f af7d 	bne.w	b9c <_ZN3ros11NodeHandle_I12MbedHardwareLi25ELi25ELi512ELi512EE8spinOnceEv+0x54>
     ca2:	4ac8      	ldr	r2, [pc, #800]	; (fc4 <Stack_Size+0x3c4>)
     ca4:	6823      	ldr	r3, [r4, #0]
     ca6:	9207      	str	r2, [sp, #28]
     ca8:	210a      	movs	r1, #10
     caa:	aa07      	add	r2, sp, #28
     cac:	9008      	str	r0, [sp, #32]
     cae:	9009      	str	r0, [sp, #36]	; 0x24
     cb0:	681f      	ldr	r7, [r3, #0]
     cb2:	4620      	mov	r0, r4
     cb4:	47b8      	blx	r7
     cb6:	4658      	mov	r0, r11
     cb8:	f003 fb32 	bl	4320 <_ZN4mbed5Timer7read_msEv>
     cbc:	f8c4 0114 	str.w	r0, [r4, #276]	; 0x114
     cc0:	e76c      	b.n	b9c <_ZN3ros11NodeHandle_I12MbedHardwareLi25ELi25ELi512ELi512EE8spinOnceEv+0x54>
     cc2:	2103      	movs	r1, #3
     cc4:	f8c4 25ec 	str.w	r2, [r4, #1516]	; 0x5ec
     cc8:	f8c4 75f4 	str.w	r7, [r4, #1524]	; 0x5f4
     ccc:	f8c4 15e8 	str.w	r1, [r4, #1512]	; 0x5e8
     cd0:	f8c4 25f8 	str.w	r2, [r4, #1528]	; 0x5f8
     cd4:	e762      	b.n	b9c <_ZN3ros11NodeHandle_I12MbedHardwareLi25ELi25ELi512ELi512EE8spinOnceEv+0x54>
     cd6:	f8d4 05ec 	ldr.w	r0, [r4, #1516]	; 0x5ec
     cda:	2704      	movs	r7, #4
     cdc:	eb00 2302 	add.w	r3, r0, r2, lsl #8
     ce0:	f8c4 35ec 	str.w	r3, [r4, #1516]	; 0x5ec
     ce4:	f8c4 75e8 	str.w	r7, [r4, #1512]	; 0x5e8
     ce8:	e758      	b.n	b9c <_ZN3ros11NodeHandle_I12MbedHardwareLi25ELi25ELi512ELi512EE8spinOnceEv+0x54>
     cea:	27ff      	movs	r7, #255	; 0xff
     cec:	f2c8 0700 	movt	r7, #32768	; 0x8000
     cf0:	400f      	ands	r7, r1
     cf2:	2f00      	cmp	r7, #0
     cf4:	db3c      	blt.n	d70 <Stack_Size+0x170>
     cf6:	2fff      	cmp	r7, #255	; 0xff
     cf8:	d036      	beq.n	d68 <Stack_Size+0x168>
     cfa:	2200      	movs	r2, #0
     cfc:	f8c4 25e8 	str.w	r2, [r4, #1512]	; 0x5e8
     d00:	e74c      	b.n	b9c <_ZN3ros11NodeHandle_I12MbedHardwareLi25ELi25ELi512ELi512EE8spinOnceEv+0x54>
     d02:	2102      	movs	r1, #2
     d04:	f8c4 15e8 	str.w	r1, [r4, #1512]	; 0x5e8
     d08:	e748      	b.n	b9c <_ZN3ros11NodeHandle_I12MbedHardwareLi25ELi25ELi512ELi512EE8spinOnceEv+0x54>
     d0a:	2106      	movs	r1, #6
     d0c:	f8c4 25f0 	str.w	r2, [r4, #1520]	; 0x5f0
     d10:	f8c4 15e8 	str.w	r1, [r4, #1512]	; 0x5e8
     d14:	f8c4 25f8 	str.w	r2, [r4, #1528]	; 0x5f8
     d18:	e740      	b.n	b9c <_ZN3ros11NodeHandle_I12MbedHardwareLi25ELi25ELi512ELi512EE8spinOnceEv+0x54>
     d1a:	2000      	movs	r0, #0
     d1c:	f8c4 05e8 	str.w	r0, [r4, #1512]	; 0x5e8
     d20:	e72f      	b.n	b82 <_ZN3ros11NodeHandle_I12MbedHardwareLi25ELi25ELi512ELi512EE8spinOnceEv+0x3a>
     d22:	4aa8      	ldr	r2, [pc, #672]	; (fc4 <Stack_Size+0x3c4>)
     d24:	6823      	ldr	r3, [r4, #0]
     d26:	2500      	movs	r5, #0
     d28:	9207      	str	r2, [sp, #28]
     d2a:	210a      	movs	r1, #10
     d2c:	aa07      	add	r2, sp, #28
     d2e:	681b      	ldr	r3, [r3, #0]
     d30:	9508      	str	r5, [sp, #32]
     d32:	9509      	str	r5, [sp, #36]	; 0x24
     d34:	4620      	mov	r0, r4
     d36:	4798      	blx	r3
     d38:	4658      	mov	r0, r11
     d3a:	f003 faf1 	bl	4320 <_ZN4mbed5Timer7read_msEv>
     d3e:	f8c4 6600 	str.w	r6, [r4, #1536]	; 0x600
     d42:	f8c4 0114 	str.w	r0, [r4, #276]	; 0x114
     d46:	4628      	mov	r0, r5
     d48:	e758      	b.n	bfc <_ZN3ros11NodeHandle_I12MbedHardwareLi25ELi25ELi512ELi512EE8spinOnceEv+0xb4>
     d4a:	f8d4 05f0 	ldr.w	r0, [r4, #1520]	; 0x5f0
     d4e:	f8d4 35ec 	ldr.w	r3, [r4, #1516]	; 0x5ec
     d52:	eb00 2702 	add.w	r7, r0, r2, lsl #8
     d56:	2207      	movs	r2, #7
     d58:	f8c4 75f0 	str.w	r7, [r4, #1520]	; 0x5f0
     d5c:	f8c4 25e8 	str.w	r2, [r4, #1512]	; 0x5e8
     d60:	2b00      	cmp	r3, #0
     d62:	f47f af1b 	bne.w	b9c <_ZN3ros11NodeHandle_I12MbedHardwareLi25ELi25ELi512ELi512EE8spinOnceEv+0x54>
     d66:	e78f      	b.n	c88 <Stack_Size+0x88>
     d68:	2105      	movs	r1, #5
     d6a:	f8c4 15e8 	str.w	r1, [r4, #1512]	; 0x5e8
     d6e:	e715      	b.n	b9c <_ZN3ros11NodeHandle_I12MbedHardwareLi25ELi25ELi512ELi512EE8spinOnceEv+0x54>
     d70:	1e78      	subs	r0, r7, #1
     d72:	f060 03ff 	orn	r3, r0, #255	; 0xff
     d76:	1c5f      	adds	r7, r3, #1
     d78:	e7bd      	b.n	cf6 <Stack_Size+0xf6>
     d7a:	1e5a      	subs	r2, r3, #1
     d7c:	f062 00ff 	orn	r0, r2, #255	; 0xff
     d80:	1c43      	adds	r3, r0, #1
     d82:	e757      	b.n	c34 <Stack_Size+0x34>
     d84:	2000      	movs	r0, #0
     d86:	f884 05fc 	strb.w	r0, [r4, #1532]	; 0x5fc
     d8a:	e707      	b.n	b9c <_ZN3ros11NodeHandle_I12MbedHardwareLi25ELi25ELi512ELi512EE8spinOnceEv+0x54>
     d8c:	4658      	mov	r0, r11
     d8e:	f003 fac7 	bl	4320 <_ZN4mbed5Timer7read_msEv>
     d92:	f894 a122 	ldrb.w	r10, [r4, #290]	; 0x122
     d96:	f894 3126 	ldrb.w	r3, [r4, #294]	; 0x126
     d9a:	f894 8121 	ldrb.w	r8, [r4, #289]	; 0x121
     d9e:	f894 c125 	ldrb.w	r12, [r4, #293]	; 0x125
     da2:	f8d4 7114 	ldr.w	r7, [r4, #276]	; 0x114
     da6:	ea4f 4e0a 	mov.w	lr, r10, lsl #16
     daa:	f894 2120 	ldrb.w	r2, [r4, #288]	; 0x120
     dae:	0419      	lsls	r1, r3, #16
     db0:	f894 3124 	ldrb.w	r3, [r4, #292]	; 0x124
     db4:	ea4e 2e08 	orr.w	lr, lr, r8, lsl #8
     db8:	ea41 210c 	orr.w	r1, r1, r12, lsl #8
     dbc:	f894 8123 	ldrb.w	r8, [r4, #291]	; 0x123
     dc0:	f894 a127 	ldrb.w	r10, [r4, #295]	; 0x127
     dc4:	430b      	orrs	r3, r1
     dc6:	ea4e 0202 	orr.w	r2, lr, r2
     dca:	1bc7      	subs	r7, r0, r7
     dcc:	4658      	mov	r0, r11
     dce:	ea43 6a0a 	orr.w	r10, r3, r10, lsl #24
     dd2:	ea42 6808 	orr.w	r8, r2, r8, lsl #24
     dd6:	f003 faa3 	bl	4320 <_ZN4mbed5Timer7read_msEv>
     dda:	9902      	ldr	r1, [sp, #8]
     ddc:	9a02      	ldr	r2, [sp, #8]
     dde:	fba1 3107 	umull	r3, r1, r1, r7
     de2:	f44f 7c7a 	mov.w	r12, #1000	; 0x3e8
     de6:	fba2 3200 	umull	r3, r2, r2, r0
     dea:	0989      	lsrs	r1, r1, #6
     dec:	fb0c 7711 	mls	r7, r12, r1, r7
     df0:	f44f 434a 	mov.w	r3, #51712	; 0xca00
     df4:	f6c3 339a 	movt	r3, #15258	; 0x3b9a
     df8:	0992      	lsrs	r2, r2, #6
     dfa:	4453      	add	r3, r10
     dfc:	fb0c 0012 	mls	r0, r12, r2, r0
     e00:	fb09 3707 	mla	r7, r9, r7, r3
     e04:	fb09 7310 	mls	r3, r9, r0, r7
     e08:	f108 38ff 	add.w	r8, r8, #4294967295	; 0xffffffff
     e0c:	4441      	add	r1, r8
     e0e:	1a8a      	subs	r2, r1, r2
     e10:	f8c4 2118 	str.w	r2, [r4, #280]	; 0x118
     e14:	f504 718e 	add.w	r1, r4, #284	; 0x11c
     e18:	f8c4 311c 	str.w	r3, [r4, #284]	; 0x11c
     e1c:	f504 708c 	add.w	r0, r4, #280	; 0x118
     e20:	f001 fe8e 	bl	2b40 <_ZN3ros16normalizeSecNSecERmS0_>
     e24:	4658      	mov	r0, r11
     e26:	f003 fa7b 	bl	4320 <_ZN4mbed5Timer7read_msEv>
     e2a:	f8c4 0604 	str.w	r0, [r4, #1540]	; 0x604
     e2e:	e6b5      	b.n	b9c <_ZN3ros11NodeHandle_I12MbedHardwareLi25ELi25ELi512ELi512EE8spinOnceEv+0x54>
     e30:	f894 8120 	ldrb.w	r8, [r4, #288]	; 0x120
     e34:	f894 1614 	ldrb.w	r1, [r4, #1556]	; 0x614
     e38:	f504 67c2 	add.w	r7, r4, #1552	; 0x610
     e3c:	4541      	cmp	r1, r8
     e3e:	f0c0 81c1 	bcc.w	11c4 <Stack_Size+0x5c4>
     e42:	f884 8614 	strb.w	r8, [r4, #1556]	; 0x614
     e46:	f1b8 0f00 	cmp.w	r8, #0
     e4a:	f000 81ce 	beq.w	11ea <Stack_Size+0x5ea>
     e4e:	9b03      	ldr	r3, [sp, #12]
     e50:	2100      	movs	r1, #0
     e52:	2004      	movs	r0, #4
     e54:	f107 0808 	add.w	r8, r7, #8
     e58:	f893 c006 	ldrb.w	r12, [r3, #6]
     e5c:	f893 a005 	ldrb.w	r10, [r3, #5]
     e60:	791a      	ldrb	r2, [r3, #4]
     e62:	ea4f 4c0c 	mov.w	r12, r12, lsl #16
     e66:	f893 e007 	ldrb.w	lr, [r3, #7]
     e6a:	ea4c 2a0a 	orr.w	r10, r12, r10, lsl #8
     e6e:	ea4a 0202 	orr.w	r2, r10, r2
     e72:	ea42 620e 	orr.w	r2, r2, lr, lsl #24
     e76:	60ba      	str	r2, [r7, #8]
     e78:	f8d8 c000 	ldr.w	r12, [r8]
     e7c:	68fa      	ldr	r2, [r7, #12]
     e7e:	f101 0e01 	add.w	lr, r1, #1
     e82:	f842 c021 	str.w	r12, [r2, r1, lsl #2]
     e86:	793a      	ldrb	r2, [r7, #4]
     e88:	fa5f f18e 	uxtb.w	r1, lr
     e8c:	3004      	adds	r0, #4
     e8e:	3304      	adds	r3, #4
     e90:	428a      	cmp	r2, r1
     e92:	d8e1      	bhi.n	e58 <Stack_Size+0x258>
     e94:	f100 0804 	add.w	r8, r0, #4
     e98:	46c2      	mov	r10, r8
     e9a:	1820      	adds	r0, r4, r0
     e9c:	f890 3120 	ldrb.w	r3, [r0, #288]	; 0x120
     ea0:	f894 2620 	ldrb.w	r2, [r4, #1568]	; 0x620
     ea4:	429a      	cmp	r2, r3
     ea6:	f0c0 8196 	bcc.w	11d6 <Stack_Size+0x5d6>
     eaa:	f884 3620 	strb.w	r3, [r4, #1568]	; 0x620
     eae:	b323      	cbz	r3, efa <Stack_Size+0x2fa>
     eb0:	f508 7190 	add.w	r1, r8, #288	; 0x120
     eb4:	1863      	adds	r3, r4, r1
     eb6:	f107 0c14 	add.w	r12, r7, #20
     eba:	2100      	movs	r1, #0
     ebc:	f893 e002 	ldrb.w	lr, [r3, #2]
     ec0:	9803      	ldr	r0, [sp, #12]
     ec2:	f893 a001 	ldrb.w	r10, [r3, #1]
     ec6:	f810 0008 	ldrb.w	r0, [r0, r8]
     eca:	ea4f 4e0e 	mov.w	lr, lr, lsl #16
     ece:	78da      	ldrb	r2, [r3, #3]
     ed0:	ea4e 2a0a 	orr.w	r10, lr, r10, lsl #8
     ed4:	ea4a 0000 	orr.w	r0, r10, r0
     ed8:	ea40 6202 	orr.w	r2, r0, r2, lsl #24
     edc:	617a      	str	r2, [r7, #20]
     ede:	f8dc e000 	ldr.w	lr, [r12]
     ee2:	69ba      	ldr	r2, [r7, #24]
     ee4:	1c48      	adds	r0, r1, #1
     ee6:	f842 e021 	str.w	lr, [r2, r1, lsl #2]
     eea:	7c3a      	ldrb	r2, [r7, #16]
     eec:	b2c1      	uxtb	r1, r0
     eee:	3304      	adds	r3, #4
     ef0:	428a      	cmp	r2, r1
     ef2:	f108 0804 	add.w	r8, r8, #4
     ef6:	d8e1      	bhi.n	ebc <Stack_Size+0x2bc>
     ef8:	46c2      	mov	r10, r8
     efa:	eb04 000a 	add.w	r0, r4, r10
     efe:	f890 a120 	ldrb.w	r10, [r0, #288]	; 0x120
     f02:	f894 262c 	ldrb.w	r2, [r4, #1580]	; 0x62c
     f06:	4552      	cmp	r2, r10
     f08:	f0c0 8153 	bcc.w	11b2 <Stack_Size+0x5b2>
     f0c:	f108 0104 	add.w	r1, r8, #4
     f10:	f884 a62c 	strb.w	r10, [r4, #1580]	; 0x62c
     f14:	f1ba 0f00 	cmp.w	r10, #0
     f18:	d050      	beq.n	fbc <Stack_Size+0x3bc>
     f1a:	f107 0320 	add.w	r3, r7, #32
     f1e:	f8dd a00c 	ldr.w	r10, [sp, #12]
     f22:	f04f 0c00 	mov.w	r12, #0
     f26:	9304      	str	r3, [sp, #16]
     f28:	f8cd b014 	str.w	r11, [sp, #20]
     f2c:	eb0a 0801 	add.w	r8, r10, r1
     f30:	f8d8 0000 	ldr.w	r0, [r8]
     f34:	f101 0e04 	add.w	lr, r1, #4
     f38:	9006      	str	r0, [sp, #24]
     f3a:	9a06      	ldr	r2, [sp, #24]
     f3c:	4472      	add	r2, lr
     f3e:	4596      	cmp	lr, r2
     f40:	d224      	bcs.n	f8c <Stack_Size+0x38c>
     f42:	ea6f 030e 	mvn.w	r3, lr
     f46:	f898 b004 	ldrb.w	r11, [r8, #4]
     f4a:	1898      	adds	r0, r3, r2
     f4c:	1d4b      	adds	r3, r1, #5
     f4e:	4293      	cmp	r3, r2
     f50:	f888 b003 	strb.w	r11, [r8, #3]
     f54:	f000 0001 	and.w	r0, r0, #1
     f58:	f108 0801 	add.w	r8, r8, #1
     f5c:	d216      	bcs.n	f8c <Stack_Size+0x38c>
     f5e:	b140      	cbz	r0, f72 <Stack_Size+0x372>
     f60:	f898 0004 	ldrb.w	r0, [r8, #4]
     f64:	1d8b      	adds	r3, r1, #6
     f66:	4293      	cmp	r3, r2
     f68:	f888 0003 	strb.w	r0, [r8, #3]
     f6c:	f108 0801 	add.w	r8, r8, #1
     f70:	d20c      	bcs.n	f8c <Stack_Size+0x38c>
     f72:	f898 1004 	ldrb.w	r1, [r8, #4]
     f76:	f898 0005 	ldrb.w	r0, [r8, #5]
     f7a:	3302      	adds	r3, #2
     f7c:	4293      	cmp	r3, r2
     f7e:	f888 1003 	strb.w	r1, [r8, #3]
     f82:	f888 0004 	strb.w	r0, [r8, #4]
     f86:	f108 0802 	add.w	r8, r8, #2
     f8a:	d3f2      	bcc.n	f72 <Stack_Size+0x372>
     f8c:	2000      	movs	r0, #0
     f8e:	eb0a 0102 	add.w	r1, r10, r2
     f92:	f10e 33ff 	add.w	r3, lr, #4294967295	; 0xffffffff
     f96:	f801 0c01 	strb.w	r0, [r1, #-1]
     f9a:	4453      	add	r3, r10
     f9c:	9904      	ldr	r1, [sp, #16]
     f9e:	623b      	str	r3, [r7, #32]
     fa0:	6808      	ldr	r0, [r1, #0]
     fa2:	6a7b      	ldr	r3, [r7, #36]	; 0x24
     fa4:	f10c 0101 	add.w	r1, r12, #1
     fa8:	f843 002c 	str.w	r0, [r3, r12, lsl #2]
     fac:	7f3b      	ldrb	r3, [r7, #28]
     fae:	fa5f fc81 	uxtb.w	r12, r1
     fb2:	4563      	cmp	r3, r12
     fb4:	4611      	mov	r1, r2
     fb6:	d8b9      	bhi.n	f2c <Stack_Size+0x32c>
     fb8:	f8dd b014 	ldr.w	r11, [sp, #20]
     fbc:	2201      	movs	r2, #1
     fbe:	f884 260c 	strb.w	r2, [r4, #1548]	; 0x60c
     fc2:	e5eb      	b.n	b9c <_ZN3ros11NodeHandle_I12MbedHardwareLi25ELi25ELi512ELi512EE8spinOnceEv+0x54>
     fc4:	000089a0 	.word	0x000089a0
     fc8:	488a      	ldr	r0, [pc, #552]	; (11f4 <Stack_Size+0x5f4>)
     fca:	6825      	ldr	r5, [r4, #0]
     fcc:	9007      	str	r0, [sp, #28]
     fce:	210a      	movs	r1, #10
     fd0:	aa07      	add	r2, sp, #28
     fd2:	9708      	str	r7, [sp, #32]
     fd4:	9709      	str	r7, [sp, #36]	; 0x24
     fd6:	4620      	mov	r0, r4
     fd8:	682f      	ldr	r7, [r5, #0]
     fda:	47b8      	blx	r7
     fdc:	4658      	mov	r0, r11
     fde:	f003 f99f 	bl	4320 <_ZN4mbed5Timer7read_msEv>
     fe2:	4985      	ldr	r1, [pc, #532]	; (11f8 <Stack_Size+0x5f8>)
     fe4:	f8d4 3520 	ldr.w	r3, [r4, #1312]	; 0x520
     fe8:	f10d 0840 	add.w	r8, sp, #64	; 0x40
     fec:	f8c4 0114 	str.w	r0, [r4, #276]	; 0x114
     ff0:	f848 1d18 	str.w	r1, [r8, #-24]!
     ff4:	f204 5a84 	addw	r10, r4, #1412	; 0x584
     ff8:	f44f 7900 	mov.w	r9, #512	; 0x200
     ffc:	f204 5524 	addw	r5, r4, #1316	; 0x524
    1000:	b1e3      	cbz	r3, 103c <Stack_Size+0x43c>
    1002:	f855 2c04 	ldr.w	r2, [r5, #-4]
    1006:	6858      	ldr	r0, [r3, #4]
    1008:	6817      	ldr	r7, [r2, #0]
    100a:	6899      	ldr	r1, [r3, #8]
    100c:	6803      	ldr	r3, [r0, #0]
    100e:	970c      	str	r7, [sp, #48]	; 0x30
    1010:	689a      	ldr	r2, [r3, #8]
    1012:	f8ad 102c 	strh.w	r1, [sp, #44]	; 0x2c
    1016:	4790      	blx	r2
    1018:	f855 7c04 	ldr.w	r7, [r5, #-4]
    101c:	900d      	str	r0, [sp, #52]	; 0x34
    101e:	6878      	ldr	r0, [r7, #4]
    1020:	6801      	ldr	r1, [r0, #0]
    1022:	68cb      	ldr	r3, [r1, #12]
    1024:	4798      	blx	r3
    1026:	6822      	ldr	r2, [r4, #0]
    1028:	f855 1c04 	ldr.w	r1, [r5, #-4]
    102c:	900e      	str	r0, [sp, #56]	; 0x38
    102e:	6817      	ldr	r7, [r2, #0]
    1030:	f8cd 903c 	str.w	r9, [sp, #60]	; 0x3c
    1034:	4620      	mov	r0, r4
    1036:	6909      	ldr	r1, [r1, #16]
    1038:	4642      	mov	r2, r8
    103a:	47b8      	blx	r7
    103c:	462f      	mov	r7, r5
    103e:	f857 3b04 	ldr.w	r3, [r7], #4
    1042:	463d      	mov	r5, r7
    1044:	b1e3      	cbz	r3, 1080 <Stack_Size+0x480>
    1046:	f857 2c04 	ldr.w	r2, [r7, #-4]
    104a:	6858      	ldr	r0, [r3, #4]
    104c:	6812      	ldr	r2, [r2, #0]
    104e:	6899      	ldr	r1, [r3, #8]
    1050:	6803      	ldr	r3, [r0, #0]
    1052:	920c      	str	r2, [sp, #48]	; 0x30
    1054:	689a      	ldr	r2, [r3, #8]
    1056:	f8ad 102c 	strh.w	r1, [sp, #44]	; 0x2c
    105a:	4790      	blx	r2
    105c:	f857 1c04 	ldr.w	r1, [r7, #-4]
    1060:	900d      	str	r0, [sp, #52]	; 0x34
    1062:	6848      	ldr	r0, [r1, #4]
    1064:	6803      	ldr	r3, [r0, #0]
    1066:	68da      	ldr	r2, [r3, #12]
    1068:	4790      	blx	r2
    106a:	6823      	ldr	r3, [r4, #0]
    106c:	f857 7c04 	ldr.w	r7, [r7, #-4]
    1070:	900e      	str	r0, [sp, #56]	; 0x38
    1072:	6939      	ldr	r1, [r7, #16]
    1074:	4642      	mov	r2, r8
    1076:	f8cd 903c 	str.w	r9, [sp, #60]	; 0x3c
    107a:	681b      	ldr	r3, [r3, #0]
    107c:	4620      	mov	r0, r4
    107e:	4798      	blx	r3
    1080:	f855 1b04 	ldr.w	r1, [r5], #4
    1084:	b1e1      	cbz	r1, 10c0 <Stack_Size+0x4c0>
    1086:	f855 2c04 	ldr.w	r2, [r5, #-4]
    108a:	6848      	ldr	r0, [r1, #4]
    108c:	6817      	ldr	r7, [r2, #0]
    108e:	6803      	ldr	r3, [r0, #0]
    1090:	6889      	ldr	r1, [r1, #8]
    1092:	970c      	str	r7, [sp, #48]	; 0x30
    1094:	689a      	ldr	r2, [r3, #8]
    1096:	f8ad 102c 	strh.w	r1, [sp, #44]	; 0x2c
    109a:	4790      	blx	r2
    109c:	f855 7c04 	ldr.w	r7, [r5, #-4]
    10a0:	900d      	str	r0, [sp, #52]	; 0x34
    10a2:	6878      	ldr	r0, [r7, #4]
    10a4:	6801      	ldr	r1, [r0, #0]
    10a6:	68cb      	ldr	r3, [r1, #12]
    10a8:	4798      	blx	r3
    10aa:	6822      	ldr	r2, [r4, #0]
    10ac:	f855 1c04 	ldr.w	r1, [r5, #-4]
    10b0:	900e      	str	r0, [sp, #56]	; 0x38
    10b2:	6817      	ldr	r7, [r2, #0]
    10b4:	f8cd 903c 	str.w	r9, [sp, #60]	; 0x3c
    10b8:	4620      	mov	r0, r4
    10ba:	6909      	ldr	r1, [r1, #16]
    10bc:	4642      	mov	r2, r8
    10be:	47b8      	blx	r7
    10c0:	4555      	cmp	r5, r10
    10c2:	d1bb      	bne.n	103c <Stack_Size+0x43c>
    10c4:	f855 0b04 	ldr.w	r0, [r5], #4
    10c8:	f504 69bd 	add.w	r9, r4, #1512	; 0x5e8
    10cc:	f44f 7800 	mov.w	r8, #512	; 0x200
    10d0:	b1e8      	cbz	r0, 110e <Stack_Size+0x50e>
    10d2:	6881      	ldr	r1, [r0, #8]
    10d4:	6803      	ldr	r3, [r0, #0]
    10d6:	6842      	ldr	r2, [r0, #4]
    10d8:	910c      	str	r1, [sp, #48]	; 0x30
    10da:	689f      	ldr	r7, [r3, #8]
    10dc:	f8ad 202c 	strh.w	r2, [sp, #44]	; 0x2c
    10e0:	47b8      	blx	r7
    10e2:	f855 1c04 	ldr.w	r1, [r5, #-4]
    10e6:	900d      	str	r0, [sp, #52]	; 0x34
    10e8:	680a      	ldr	r2, [r1, #0]
    10ea:	4608      	mov	r0, r1
    10ec:	68d3      	ldr	r3, [r2, #12]
    10ee:	4798      	blx	r3
    10f0:	f855 7c04 	ldr.w	r7, [r5, #-4]
    10f4:	900e      	str	r0, [sp, #56]	; 0x38
    10f6:	6838      	ldr	r0, [r7, #0]
    10f8:	6822      	ldr	r2, [r4, #0]
    10fa:	6841      	ldr	r1, [r0, #4]
    10fc:	f8cd 803c 	str.w	r8, [sp, #60]	; 0x3c
    1100:	4638      	mov	r0, r7
    1102:	6817      	ldr	r7, [r2, #0]
    1104:	4788      	blx	r1
    1106:	aa0a      	add	r2, sp, #40	; 0x28
    1108:	4601      	mov	r1, r0
    110a:	4620      	mov	r0, r4
    110c:	47b8      	blx	r7
    110e:	462f      	mov	r7, r5
    1110:	f857 3b04 	ldr.w	r3, [r7], #4
    1114:	4618      	mov	r0, r3
    1116:	463d      	mov	r5, r7
    1118:	b1eb      	cbz	r3, 1156 <Stack_Size+0x556>
    111a:	689a      	ldr	r2, [r3, #8]
    111c:	6859      	ldr	r1, [r3, #4]
    111e:	681b      	ldr	r3, [r3, #0]
    1120:	920c      	str	r2, [sp, #48]	; 0x30
    1122:	689a      	ldr	r2, [r3, #8]
    1124:	f8ad 102c 	strh.w	r1, [sp, #44]	; 0x2c
    1128:	4790      	blx	r2
    112a:	f857 1c04 	ldr.w	r1, [r7, #-4]
    112e:	900d      	str	r0, [sp, #52]	; 0x34
    1130:	680b      	ldr	r3, [r1, #0]
    1132:	4608      	mov	r0, r1
    1134:	68da      	ldr	r2, [r3, #12]
    1136:	4790      	blx	r2
    1138:	f857 7c04 	ldr.w	r7, [r7, #-4]
    113c:	900e      	str	r0, [sp, #56]	; 0x38
    113e:	6838      	ldr	r0, [r7, #0]
    1140:	6823      	ldr	r3, [r4, #0]
    1142:	6841      	ldr	r1, [r0, #4]
    1144:	f8cd 803c 	str.w	r8, [sp, #60]	; 0x3c
    1148:	4638      	mov	r0, r7
    114a:	681f      	ldr	r7, [r3, #0]
    114c:	4788      	blx	r1
    114e:	aa0a      	add	r2, sp, #40	; 0x28
    1150:	4601      	mov	r1, r0
    1152:	4620      	mov	r0, r4
    1154:	47b8      	blx	r7
    1156:	f855 3b04 	ldr.w	r3, [r5], #4
    115a:	4618      	mov	r0, r3
    115c:	b1eb      	cbz	r3, 119a <Stack_Size+0x59a>
    115e:	689a      	ldr	r2, [r3, #8]
    1160:	685f      	ldr	r7, [r3, #4]
    1162:	6819      	ldr	r1, [r3, #0]
    1164:	920c      	str	r2, [sp, #48]	; 0x30
    1166:	688b      	ldr	r3, [r1, #8]
    1168:	f8ad 702c 	strh.w	r7, [sp, #44]	; 0x2c
    116c:	4798      	blx	r3
    116e:	f855 7c04 	ldr.w	r7, [r5, #-4]
    1172:	900d      	str	r0, [sp, #52]	; 0x34
    1174:	683a      	ldr	r2, [r7, #0]
    1176:	4638      	mov	r0, r7
    1178:	68d1      	ldr	r1, [r2, #12]
    117a:	4788      	blx	r1
    117c:	f855 3c04 	ldr.w	r3, [r5, #-4]
    1180:	900e      	str	r0, [sp, #56]	; 0x38
    1182:	6818      	ldr	r0, [r3, #0]
    1184:	6827      	ldr	r7, [r4, #0]
    1186:	6842      	ldr	r2, [r0, #4]
    1188:	f8cd 803c 	str.w	r8, [sp, #60]	; 0x3c
    118c:	4618      	mov	r0, r3
    118e:	683f      	ldr	r7, [r7, #0]
    1190:	4790      	blx	r2
    1192:	aa0a      	add	r2, sp, #40	; 0x28
    1194:	4601      	mov	r1, r0
    1196:	4620      	mov	r0, r4
    1198:	47b8      	blx	r7
    119a:	454d      	cmp	r5, r9
    119c:	d1b7      	bne.n	110e <Stack_Size+0x50e>
    119e:	2101      	movs	r1, #1
    11a0:	f884 15fc 	strb.w	r1, [r4, #1532]	; 0x5fc
    11a4:	f8c4 6600 	str.w	r6, [r4, #1536]	; 0x600
    11a8:	f8c4 6604 	str.w	r6, [r4, #1540]	; 0x604
    11ac:	f04f 30ff 	mov.w	r0, #4294967295	; 0xffffffff
    11b0:	e524      	b.n	bfc <_ZN3ros11NodeHandle_I12MbedHardwareLi25ELi25ELi512ELi512EE8spinOnceEv+0xb4>
    11b2:	f8d4 0634 	ldr.w	r0, [r4, #1588]	; 0x634
    11b6:	ea4f 018a 	mov.w	r1, r10, lsl #2
    11ba:	f005 ff29 	bl	7010 <realloc>
    11be:	f8c4 0634 	str.w	r0, [r4, #1588]	; 0x634
    11c2:	e6a3      	b.n	f0c <Stack_Size+0x30c>
    11c4:	f8d4 061c 	ldr.w	r0, [r4, #1564]	; 0x61c
    11c8:	ea4f 0188 	mov.w	r1, r8, lsl #2
    11cc:	f005 ff20 	bl	7010 <realloc>
    11d0:	f8c4 061c 	str.w	r0, [r4, #1564]	; 0x61c
    11d4:	e635      	b.n	e42 <Stack_Size+0x242>
    11d6:	f8d4 0628 	ldr.w	r0, [r4, #1576]	; 0x628
    11da:	0099      	lsls	r1, r3, #2
    11dc:	9301      	str	r3, [sp, #4]
    11de:	f005 ff17 	bl	7010 <realloc>
    11e2:	9b01      	ldr	r3, [sp, #4]
    11e4:	f8c4 0628 	str.w	r0, [r4, #1576]	; 0x628
    11e8:	e65f      	b.n	eaa <Stack_Size+0x2aa>
    11ea:	f04f 0a08 	mov.w	r10, #8
    11ee:	46d0      	mov	r8, r10
    11f0:	2004      	movs	r0, #4
    11f2:	e652      	b.n	e9a <Stack_Size+0x29a>
    11f4:	000089a0 	.word	0x000089a0
    11f8:	000089b8 	.word	0x000089b8

000011fc <main>:
    11fc:	e92d 4ff0 	stmdb	sp!, {r4, r5, r6, r7, r8, r9, r10, r11, lr}
    1200:	4dbb      	ldr	r5, [pc, #748]	; (14f0 <main+0x2f4>)
    1202:	b091      	sub	sp, #68	; 0x44
    1204:	6869      	ldr	r1, [r5, #4]
    1206:	f105 0008 	add.w	r0, r5, #8
    120a:	f002 fe05 	bl	3e18 <_ZN4mbed6Serial4baudEi>
    120e:	2300      	movs	r3, #0
    1210:	f8c5 35e8 	str.w	r3, [r5, #1512]	; 0x5e8
    1214:	f8c5 35ec 	str.w	r3, [r5, #1516]	; 0x5ec
    1218:	f8c5 35f4 	str.w	r3, [r5, #1524]	; 0x5f4
    121c:	f8c5 35f0 	str.w	r3, [r5, #1520]	; 0x5f0
    1220:	f505 66a4 	add.w	r6, r5, #1312	; 0x520
    1224:	6831      	ldr	r1, [r6, #0]
    1226:	b169      	cbz	r1, 1244 <main+0x48>
    1228:	2301      	movs	r3, #1
    122a:	e007      	b.n	123c <main+0x40>
    122c:	6854      	ldr	r4, [r2, #4]
    122e:	3301      	adds	r3, #1
    1230:	1d16      	adds	r6, r2, #4
    1232:	b13c      	cbz	r4, 1244 <main+0x48>
    1234:	3301      	adds	r3, #1
    1236:	2b19      	cmp	r3, #25
    1238:	f000 80a4 	beq.w	1384 <main+0x188>
    123c:	6870      	ldr	r0, [r6, #4]
    123e:	1d32      	adds	r2, r6, #4
    1240:	2800      	cmp	r0, #0
    1242:	d1f3      	bne.n	122c <main+0x30>
    1244:	f8df b2c8 	ldr.w	r11, [pc, #712]	; 1510 <main+0x314>
    1248:	f503 77a4 	add.w	r7, r3, #328	; 0x148
    124c:	337d      	adds	r3, #125	; 0x7d
    124e:	f845 b027 	str.w	r11, [r5, r7, lsl #2]
    1252:	f8cb 3008 	str.w	r3, [r11, #8]
    1256:	f8cb 500c 	str.w	r5, [r11, #12]
    125a:	4ea6      	ldr	r6, [pc, #664]	; (14f4 <main+0x2f8>)
    125c:	2300      	movs	r3, #0
    125e:	6831      	ldr	r1, [r6, #0]
    1260:	b161      	cbz	r1, 127c <main+0x80>
    1262:	2301      	movs	r3, #1
    1264:	e006      	b.n	1274 <main+0x78>
    1266:	6854      	ldr	r4, [r2, #4]
    1268:	3301      	adds	r3, #1
    126a:	1d16      	adds	r6, r2, #4
    126c:	b134      	cbz	r4, 127c <main+0x80>
    126e:	3301      	adds	r3, #1
    1270:	2b19      	cmp	r3, #25
    1272:	d00a      	beq.n	128a <main+0x8e>
    1274:	6870      	ldr	r0, [r6, #4]
    1276:	1d32      	adds	r2, r6, #4
    1278:	2800      	cmp	r0, #0
    127a:	d1f4      	bne.n	1266 <main+0x6a>
    127c:	4f9e      	ldr	r7, [pc, #632]	; (14f8 <main+0x2fc>)
    127e:	eb05 0183 	add.w	r1, r5, r3, lsl #2
    1282:	3364      	adds	r3, #100	; 0x64
    1284:	f8c1 7584 	str.w	r7, [r1, #1412]	; 0x584
    1288:	607b      	str	r3, [r7, #4]
    128a:	2094      	movs	r0, #148	; 0x94
    128c:	f003 fb1a 	bl	48c4 <_Znwj>
    1290:	9003      	str	r0, [sp, #12]
    1292:	f000 fc81 	bl	1b98 <_ZN6KernelC1Ev>
    1296:	4899      	ldr	r0, [pc, #612]	; (14fc <main+0x300>)
    1298:	f8df 9264 	ldr.w	r9, [pc, #612]	; 1500 <main+0x304>
    129c:	f5a0 64c3 	sub.w	r4, r0, #1560	; 0x618
    12a0:	f04f 0a00 	mov.w	r10, #0
    12a4:	f8db 000c 	ldr.w	r0, [r11, #12]
    12a8:	f8db 1008 	ldr.w	r1, [r11, #8]
    12ac:	6806      	ldr	r6, [r0, #0]
    12ae:	4a94      	ldr	r2, [pc, #592]	; (1500 <main+0x304>)
    12b0:	6833      	ldr	r3, [r6, #0]
    12b2:	f8c9 a004 	str.w	r10, [r9, #4]
    12b6:	f8c9 a008 	str.w	r10, [r9, #8]
    12ba:	f8c9 a00c 	str.w	r10, [r9, #12]
    12be:	4798      	blx	r3
    12c0:	4890      	ldr	r0, [pc, #576]	; (1504 <main+0x308>)
    12c2:	f003 f82d 	bl	4320 <_ZN4mbed5Timer7read_msEv>
    12c6:	f8d5 2604 	ldr.w	r2, [r5, #1540]	; 0x604
    12ca:	f642 21f8 	movw	r1, #11000	; 0x2af8
    12ce:	1a87      	subs	r7, r0, r2
    12d0:	428f      	cmp	r7, r1
    12d2:	4606      	mov	r6, r0
    12d4:	d902      	bls.n	12dc <main+0xe0>
    12d6:	2000      	movs	r0, #0
    12d8:	f884 05fc 	strb.w	r0, [r4, #1532]	; 0x5fc
    12dc:	f8d5 35e8 	ldr.w	r3, [r5, #1512]	; 0x5e8
    12e0:	b133      	cbz	r3, 12f0 <main+0xf4>
    12e2:	f8d4 2608 	ldr.w	r2, [r4, #1544]	; 0x608
    12e6:	42b2      	cmp	r2, r6
    12e8:	d202      	bcs.n	12f0 <main+0xf4>
    12ea:	2700      	movs	r7, #0
    12ec:	f8c4 75e8 	str.w	r7, [r4, #1512]	; 0x5e8
    12f0:	f644 58d3 	movw	r8, #19923	; 0x4dd3
    12f4:	f2c1 0862 	movt	r8, #4194	; 0x1062
    12f8:	4883      	ldr	r0, [pc, #524]	; (1508 <main+0x30c>)
    12fa:	f001 fb15 	bl	2928 <_ZN3AjK9MODSERIAL13rxBufferEmptyEv>
    12fe:	4607      	mov	r7, r0
    1300:	b9f8      	cbnz	r0, 1342 <main+0x146>
    1302:	2101      	movs	r1, #1
    1304:	4880      	ldr	r0, [pc, #512]	; (1508 <main+0x30c>)
    1306:	f001 f89b 	bl	2440 <_ZN3AjK9MODSERIAL6__getcEb>
    130a:	1e02      	subs	r2, r0, #0
    130c:	db19      	blt.n	1342 <main+0x146>
    130e:	f8d4 15f8 	ldr.w	r1, [r4, #1528]	; 0x5f8
    1312:	f8d4 05e8 	ldr.w	r0, [r4, #1512]	; 0x5e8
    1316:	1851      	adds	r1, r2, r1
    1318:	2807      	cmp	r0, #7
    131a:	f8c4 15f8 	str.w	r1, [r4, #1528]	; 0x5f8
    131e:	d06d      	beq.n	13fc <main+0x200>
    1320:	2800      	cmp	r0, #0
    1322:	d132      	bne.n	138a <main+0x18e>
    1324:	2aff      	cmp	r2, #255	; 0xff
    1326:	d1e7      	bne.n	12f8 <main+0xfc>
    1328:	f106 0714 	add.w	r7, r6, #20
    132c:	2201      	movs	r2, #1
    132e:	4876      	ldr	r0, [pc, #472]	; (1508 <main+0x30c>)
    1330:	f8c4 7608 	str.w	r7, [r4, #1544]	; 0x608
    1334:	f8c4 25e8 	str.w	r2, [r4, #1512]	; 0x5e8
    1338:	f001 faf6 	bl	2928 <_ZN3AjK9MODSERIAL13rxBufferEmptyEv>
    133c:	4607      	mov	r7, r0
    133e:	2800      	cmp	r0, #0
    1340:	d0df      	beq.n	1302 <main+0x106>
    1342:	f895 35fc 	ldrb.w	r3, [r5, #1532]	; 0x5fc
    1346:	b1c3      	cbz	r3, 137a <main+0x17e>
    1348:	f8d4 0600 	ldr.w	r0, [r4, #1536]	; 0x600
    134c:	f640 11c4 	movw	r1, #2500	; 0x9c4
    1350:	1a37      	subs	r7, r6, r0
    1352:	428f      	cmp	r7, r1
    1354:	d911      	bls.n	137a <main+0x17e>
    1356:	4a6d      	ldr	r2, [pc, #436]	; (150c <main+0x310>)
    1358:	6820      	ldr	r0, [r4, #0]
    135a:	2300      	movs	r3, #0
    135c:	9207      	str	r2, [sp, #28]
    135e:	210a      	movs	r1, #10
    1360:	aa07      	add	r2, sp, #28
    1362:	9308      	str	r3, [sp, #32]
    1364:	9309      	str	r3, [sp, #36]	; 0x24
    1366:	6807      	ldr	r7, [r0, #0]
    1368:	4861      	ldr	r0, [pc, #388]	; (14f0 <main+0x2f4>)
    136a:	47b8      	blx	r7
    136c:	4865      	ldr	r0, [pc, #404]	; (1504 <main+0x308>)
    136e:	f002 ffd7 	bl	4320 <_ZN4mbed5Timer7read_msEv>
    1372:	f8c4 6600 	str.w	r6, [r4, #1536]	; 0x600
    1376:	f8c4 0114 	str.w	r0, [r4, #276]	; 0x114
    137a:	9803      	ldr	r0, [sp, #12]
    137c:	2100      	movs	r1, #0
    137e:	f000 fc4b 	bl	1c18 <_ZN6Kernel10call_eventEj>
    1382:	e78f      	b.n	12a4 <main+0xa8>
    1384:	f8df b188 	ldr.w	r11, [pc, #392]	; 1510 <main+0x314>
    1388:	e767      	b.n	125a <main+0x5e>
    138a:	2801      	cmp	r0, #1
    138c:	d04a      	beq.n	1424 <main+0x228>
    138e:	2802      	cmp	r0, #2
    1390:	d061      	beq.n	1456 <main+0x25a>
    1392:	2803      	cmp	r0, #3
    1394:	d069      	beq.n	146a <main+0x26e>
    1396:	2804      	cmp	r0, #4
    1398:	d071      	beq.n	147e <main+0x282>
    139a:	2805      	cmp	r0, #5
    139c:	d07f      	beq.n	149e <main+0x2a2>
    139e:	2806      	cmp	r0, #6
    13a0:	f000 8085 	beq.w	14ae <main+0x2b2>
    13a4:	2808      	cmp	r0, #8
    13a6:	d1a7      	bne.n	12f8 <main+0xfc>
    13a8:	20ff      	movs	r0, #255	; 0xff
    13aa:	f2c8 0000 	movt	r0, #32768	; 0x8000
    13ae:	2700      	movs	r7, #0
    13b0:	4008      	ands	r0, r1
    13b2:	42b8      	cmp	r0, r7
    13b4:	f8c5 75e8 	str.w	r7, [r5, #1512]	; 0x5e8
    13b8:	f2c0 8091 	blt.w	14de <main+0x2e2>
    13bc:	28ff      	cmp	r0, #255	; 0xff
    13be:	d19b      	bne.n	12f8 <main+0xfc>
    13c0:	f8d5 75f0 	ldr.w	r7, [r5, #1520]	; 0x5f0
    13c4:	2f00      	cmp	r7, #0
    13c6:	f000 81eb 	beq.w	17a0 <main+0x5a4>
    13ca:	2f0a      	cmp	r7, #10
    13cc:	f000 80a2 	beq.w	1514 <main+0x318>
    13d0:	2f06      	cmp	r7, #6
    13d2:	f000 8112 	beq.w	15fa <main+0x3fe>
    13d6:	2f0b      	cmp	r7, #11
    13d8:	f000 8086 	beq.w	14e8 <main+0x2ec>
    13dc:	eb04 0187 	add.w	r1, r4, r7, lsl #2
    13e0:	f8d1 03f4 	ldr.w	r0, [r1, #1012]	; 0x3f4
    13e4:	2800      	cmp	r0, #0
    13e6:	d087      	beq.n	12f8 <main+0xfc>
    13e8:	6803      	ldr	r3, [r0, #0]
    13ea:	f240 1264 	movw	r2, #356	; 0x164
    13ee:	f2c1 0200 	movt	r2, #4096	; 0x1000
    13f2:	681f      	ldr	r7, [r3, #0]
    13f4:	f502 7190 	add.w	r1, r2, #288	; 0x120
    13f8:	47b8      	blx	r7
    13fa:	e77d      	b.n	12f8 <main+0xfc>
    13fc:	f8d4 15f4 	ldr.w	r1, [r4, #1524]	; 0x5f4
    1400:	f8d4 35ec 	ldr.w	r3, [r4, #1516]	; 0x5ec
    1404:	1860      	adds	r0, r4, r1
    1406:	1c4f      	adds	r7, r1, #1
    1408:	1e59      	subs	r1, r3, #1
    140a:	f880 2120 	strb.w	r2, [r0, #288]	; 0x120
    140e:	f8c4 75f4 	str.w	r7, [r4, #1524]	; 0x5f4
    1412:	f8c4 15ec 	str.w	r1, [r4, #1516]	; 0x5ec
    1416:	2900      	cmp	r1, #0
    1418:	f47f af6e 	bne.w	12f8 <main+0xfc>
    141c:	2208      	movs	r2, #8
    141e:	f8c4 25e8 	str.w	r2, [r4, #1512]	; 0x5e8
    1422:	e769      	b.n	12f8 <main+0xfc>
    1424:	2afe      	cmp	r2, #254	; 0xfe
    1426:	d036      	beq.n	1496 <main+0x29a>
    1428:	f894 35fc 	ldrb.w	r3, [r4, #1532]	; 0x5fc
    142c:	f8c4 75e8 	str.w	r7, [r4, #1512]	; 0x5e8
    1430:	2b00      	cmp	r3, #0
    1432:	f47f af61 	bne.w	12f8 <main+0xfc>
    1436:	4835      	ldr	r0, [pc, #212]	; (150c <main+0x310>)
    1438:	6827      	ldr	r7, [r4, #0]
    143a:	9007      	str	r0, [sp, #28]
    143c:	210a      	movs	r1, #10
    143e:	aa07      	add	r2, sp, #28
    1440:	9308      	str	r3, [sp, #32]
    1442:	9309      	str	r3, [sp, #36]	; 0x24
    1444:	482a      	ldr	r0, [pc, #168]	; (14f0 <main+0x2f4>)
    1446:	683b      	ldr	r3, [r7, #0]
    1448:	4798      	blx	r3
    144a:	482e      	ldr	r0, [pc, #184]	; (1504 <main+0x308>)
    144c:	f002 ff68 	bl	4320 <_ZN4mbed5Timer7read_msEv>
    1450:	f8c4 0114 	str.w	r0, [r4, #276]	; 0x114
    1454:	e750      	b.n	12f8 <main+0xfc>
    1456:	2303      	movs	r3, #3
    1458:	f8c4 25ec 	str.w	r2, [r4, #1516]	; 0x5ec
    145c:	f8c4 75f4 	str.w	r7, [r4, #1524]	; 0x5f4
    1460:	f8c4 35e8 	str.w	r3, [r4, #1512]	; 0x5e8
    1464:	f8c4 25f8 	str.w	r2, [r4, #1528]	; 0x5f8
    1468:	e746      	b.n	12f8 <main+0xfc>
    146a:	f8d4 05ec 	ldr.w	r0, [r4, #1516]	; 0x5ec
    146e:	eb00 2102 	add.w	r1, r0, r2, lsl #8
    1472:	2204      	movs	r2, #4
    1474:	f8c4 15ec 	str.w	r1, [r4, #1516]	; 0x5ec
    1478:	f8c4 25e8 	str.w	r2, [r4, #1512]	; 0x5e8
    147c:	e73c      	b.n	12f8 <main+0xfc>
    147e:	22ff      	movs	r2, #255	; 0xff
    1480:	f2c8 0200 	movt	r2, #32768	; 0x8000
    1484:	400a      	ands	r2, r1
    1486:	2a00      	cmp	r2, #0
    1488:	db24      	blt.n	14d4 <main+0x2d8>
    148a:	2aff      	cmp	r2, #255	; 0xff
    148c:	d01e      	beq.n	14cc <main+0x2d0>
    148e:	2300      	movs	r3, #0
    1490:	f8c5 35e8 	str.w	r3, [r5, #1512]	; 0x5e8
    1494:	e730      	b.n	12f8 <main+0xfc>
    1496:	2102      	movs	r1, #2
    1498:	f8c4 15e8 	str.w	r1, [r4, #1512]	; 0x5e8
    149c:	e72c      	b.n	12f8 <main+0xfc>
    149e:	2706      	movs	r7, #6
    14a0:	f8c4 25f0 	str.w	r2, [r4, #1520]	; 0x5f0
    14a4:	f8c4 75e8 	str.w	r7, [r4, #1512]	; 0x5e8
    14a8:	f8c4 25f8 	str.w	r2, [r4, #1528]	; 0x5f8
    14ac:	e724      	b.n	12f8 <main+0xfc>
    14ae:	f8d5 05f0 	ldr.w	r0, [r5, #1520]	; 0x5f0
    14b2:	f8d5 15ec 	ldr.w	r1, [r5, #1516]	; 0x5ec
    14b6:	eb00 2202 	add.w	r2, r0, r2, lsl #8
    14ba:	2307      	movs	r3, #7
    14bc:	f8c5 25f0 	str.w	r2, [r5, #1520]	; 0x5f0
    14c0:	f8c5 35e8 	str.w	r3, [r5, #1512]	; 0x5e8
    14c4:	2900      	cmp	r1, #0
    14c6:	f47f af17 	bne.w	12f8 <main+0xfc>
    14ca:	e7a7      	b.n	141c <main+0x220>
    14cc:	2705      	movs	r7, #5
    14ce:	f8c5 75e8 	str.w	r7, [r5, #1512]	; 0x5e8
    14d2:	e711      	b.n	12f8 <main+0xfc>
    14d4:	1e50      	subs	r0, r2, #1
    14d6:	f060 01ff 	orn	r1, r0, #255	; 0xff
    14da:	1c4a      	adds	r2, r1, #1
    14dc:	e7d5      	b.n	148a <main+0x28e>
    14de:	1e43      	subs	r3, r0, #1
    14e0:	f063 02ff 	orn	r2, r3, #255	; 0xff
    14e4:	1c50      	adds	r0, r2, #1
    14e6:	e769      	b.n	13bc <main+0x1c0>
    14e8:	2000      	movs	r0, #0
    14ea:	f884 05fc 	strb.w	r0, [r4, #1532]	; 0x5fc
    14ee:	e703      	b.n	12f8 <main+0xfc>
    14f0:	10000164 	.word	0x10000164
    14f4:	100006e8 	.word	0x100006e8
    14f8:	10000824 	.word	0x10000824
    14fc:	1000077c 	.word	0x1000077c
    1500:	100007b0 	.word	0x100007b0
    1504:	1000026c 	.word	0x1000026c
    1508:	1000016c 	.word	0x1000016c
    150c:	000089a0 	.word	0x000089a0
    1510:	1000079c 	.word	0x1000079c
    1514:	f240 1064 	movw	r0, #356	; 0x164
    1518:	f2c1 0000 	movt	r0, #4096	; 0x1000
    151c:	f500 7084 	add.w	r0, r0, #264	; 0x108
    1520:	f002 fefe 	bl	4320 <_ZN4mbed5Timer7read_msEv>
    1524:	f894 1126 	ldrb.w	r1, [r4, #294]	; 0x126
    1528:	f894 7125 	ldrb.w	r7, [r4, #293]	; 0x125
    152c:	040a      	lsls	r2, r1, #16
    152e:	f894 1124 	ldrb.w	r1, [r4, #292]	; 0x124
    1532:	f894 3120 	ldrb.w	r3, [r4, #288]	; 0x120
    1536:	9105      	str	r1, [sp, #20]
    1538:	f894 e122 	ldrb.w	lr, [r4, #290]	; 0x122
    153c:	ea42 2107 	orr.w	r1, r2, r7, lsl #8
    1540:	f8d4 7114 	ldr.w	r7, [r4, #276]	; 0x114
    1544:	9304      	str	r3, [sp, #16]
    1546:	f894 c121 	ldrb.w	r12, [r4, #289]	; 0x121
    154a:	1bc7      	subs	r7, r0, r7
    154c:	ea4f 4e0e 	mov.w	lr, lr, lsl #16
    1550:	9804      	ldr	r0, [sp, #16]
    1552:	ea4e 2e0c 	orr.w	lr, lr, r12, lsl #8
    1556:	ea4e 0200 	orr.w	r2, lr, r0
    155a:	9805      	ldr	r0, [sp, #20]
    155c:	f894 3127 	ldrb.w	r3, [r4, #295]	; 0x127
    1560:	f894 c123 	ldrb.w	r12, [r4, #291]	; 0x123
    1564:	f240 1e64 	movw	lr, #356	; 0x164
    1568:	f2c1 0e00 	movt	lr, #4096	; 0x1000
    156c:	4301      	orrs	r1, r0
    156e:	ea42 6c0c 	orr.w	r12, r2, r12, lsl #24
    1572:	ea41 6103 	orr.w	r1, r1, r3, lsl #24
    1576:	f50e 7084 	add.w	r0, lr, #264	; 0x108
    157a:	f8cd c010 	str.w	r12, [sp, #16]
    157e:	9105      	str	r1, [sp, #20]
    1580:	f002 fece 	bl	4320 <_ZN4mbed5Timer7read_msEv>
    1584:	fba8 2107 	umull	r2, r1, r8, r7
    1588:	f44f 7e7a 	mov.w	lr, #1000	; 0x3e8
    158c:	0989      	lsrs	r1, r1, #6
    158e:	fba8 3c00 	umull	r3, r12, r8, r0
    1592:	fb0e 7311 	mls	r3, lr, r1, r7
    1596:	9f05      	ldr	r7, [sp, #20]
    1598:	9300      	str	r3, [sp, #0]
    159a:	f44f 434a 	mov.w	r3, #51712	; 0xca00
    159e:	f6c3 339a 	movt	r3, #15258	; 0x3b9a
    15a2:	18fb      	adds	r3, r7, r3
    15a4:	f244 2240 	movw	r2, #16960	; 0x4240
    15a8:	9f00      	ldr	r7, [sp, #0]
    15aa:	ea4f 1c9c 	mov.w	r12, r12, lsr #6
    15ae:	f2c0 020f 	movt	r2, #15
    15b2:	fb0e 001c 	mls	r0, lr, r12, r0
    15b6:	fb02 3307 	mla	r3, r2, r7, r3
    15ba:	9f04      	ldr	r7, [sp, #16]
    15bc:	fb02 3210 	mls	r2, r2, r0, r3
    15c0:	f240 1e64 	movw	lr, #356	; 0x164
    15c4:	1e7b      	subs	r3, r7, #1
    15c6:	1859      	adds	r1, r3, r1
    15c8:	f2c1 0e00 	movt	lr, #4096	; 0x1000
    15cc:	ebcc 0701 	rsb	r7, r12, r1
    15d0:	f50e 708c 	add.w	r0, lr, #280	; 0x118
    15d4:	f50e 718e 	add.w	r1, lr, #284	; 0x11c
    15d8:	f8c4 211c 	str.w	r2, [r4, #284]	; 0x11c
    15dc:	f8c4 7118 	str.w	r7, [r4, #280]	; 0x118
    15e0:	f001 faae 	bl	2b40 <_ZN3ros16normalizeSecNSecERmS0_>
    15e4:	f240 1064 	movw	r0, #356	; 0x164
    15e8:	f2c1 0000 	movt	r0, #4096	; 0x1000
    15ec:	f500 7084 	add.w	r0, r0, #264	; 0x108
    15f0:	f002 fe96 	bl	4320 <_ZN4mbed5Timer7read_msEv>
    15f4:	f8c4 0604 	str.w	r0, [r4, #1540]	; 0x604
    15f8:	e67e      	b.n	12f8 <main+0xfc>
    15fa:	f894 7120 	ldrb.w	r7, [r4, #288]	; 0x120
    15fe:	f894 1614 	ldrb.w	r1, [r4, #1556]	; 0x614
    1602:	42b9      	cmp	r1, r7
    1604:	f0c0 8224 	bcc.w	1a50 <main+0x854>
    1608:	f885 7614 	strb.w	r7, [r5, #1556]	; 0x614
    160c:	2f00      	cmp	r7, #0
    160e:	f000 822b 	beq.w	1a68 <main+0x86c>
    1612:	4d5f      	ldr	r5, [pc, #380]	; (1790 <main+0x594>)
    1614:	2200      	movs	r2, #0
    1616:	462b      	mov	r3, r5
    1618:	2704      	movs	r7, #4
    161a:	f893 e126 	ldrb.w	lr, [r3, #294]	; 0x126
    161e:	f893 c125 	ldrb.w	r12, [r3, #293]	; 0x125
    1622:	f893 1124 	ldrb.w	r1, [r3, #292]	; 0x124
    1626:	ea4f 4e0e 	mov.w	lr, lr, lsl #16
    162a:	f893 0127 	ldrb.w	r0, [r3, #295]	; 0x127
    162e:	ea4e 2c0c 	orr.w	r12, lr, r12, lsl #8
    1632:	ea4c 0101 	orr.w	r1, r12, r1
    1636:	ea41 6000 	orr.w	r0, r1, r0, lsl #24
    163a:	f8df e15c 	ldr.w	lr, [pc, #348]	; 1798 <main+0x59c>
    163e:	f8c5 0618 	str.w	r0, [r5, #1560]	; 0x618
    1642:	f8d5 161c 	ldr.w	r1, [r5, #1564]	; 0x61c
    1646:	f8de 0000 	ldr.w	r0, [lr]
    164a:	ebc4 0c03 	rsb	r12, r4, r3
    164e:	f841 000c 	str.w	r0, [r1, r12]
    1652:	3201      	adds	r2, #1
    1654:	f895 1614 	ldrb.w	r1, [r5, #1556]	; 0x614
    1658:	b2d2      	uxtb	r2, r2
    165a:	3704      	adds	r7, #4
    165c:	3304      	adds	r3, #4
    165e:	4291      	cmp	r1, r2
    1660:	d8db      	bhi.n	161a <main+0x41e>
    1662:	463a      	mov	r2, r7
    1664:	3704      	adds	r7, #4
    1666:	463b      	mov	r3, r7
    1668:	18a8      	adds	r0, r5, r2
    166a:	f890 2120 	ldrb.w	r2, [r0, #288]	; 0x120
    166e:	f895 1620 	ldrb.w	r1, [r5, #1568]	; 0x620
    1672:	4291      	cmp	r1, r2
    1674:	f0c0 81e0 	bcc.w	1a38 <main+0x83c>
    1678:	f885 2620 	strb.w	r2, [r5, #1568]	; 0x620
    167c:	b372      	cbz	r2, 16dc <main+0x4e0>
    167e:	f64f 60e0 	movw	r0, #65248	; 0xfee0
    1682:	f6cf 70ff 	movt	r0, #65535	; 0xffff
    1686:	1b42      	subs	r2, r0, r5
    1688:	f507 7390 	add.w	r3, r7, #288	; 0x120
    168c:	1bd0      	subs	r0, r2, r7
    168e:	18e3      	adds	r3, r4, r3
    1690:	2100      	movs	r1, #0
    1692:	9004      	str	r0, [sp, #16]
    1694:	19ea      	adds	r2, r5, r7
    1696:	f892 e120 	ldrb.w	lr, [r2, #288]	; 0x120
    169a:	f893 c001 	ldrb.w	r12, [r3, #1]
    169e:	7898      	ldrb	r0, [r3, #2]
    16a0:	78da      	ldrb	r2, [r3, #3]
    16a2:	ea4e 2c0c 	orr.w	r12, lr, r12, lsl #8
    16a6:	ea4c 4000 	orr.w	r0, r12, r0, lsl #16
    16aa:	ea40 6202 	orr.w	r2, r0, r2, lsl #24
    16ae:	f8df e0ec 	ldr.w	lr, [pc, #236]	; 179c <main+0x5a0>
    16b2:	f8c5 2624 	str.w	r2, [r5, #1572]	; 0x624
    16b6:	f8dd c010 	ldr.w	r12, [sp, #16]
    16ba:	f8d5 2628 	ldr.w	r2, [r5, #1576]	; 0x628
    16be:	f8de 0000 	ldr.w	r0, [lr]
    16c2:	eb0c 0e03 	add.w	lr, r12, r3
    16c6:	f842 000e 	str.w	r0, [r2, lr]
    16ca:	3101      	adds	r1, #1
    16cc:	f895 2620 	ldrb.w	r2, [r5, #1568]	; 0x620
    16d0:	b2c9      	uxtb	r1, r1
    16d2:	3704      	adds	r7, #4
    16d4:	3304      	adds	r3, #4
    16d6:	428a      	cmp	r2, r1
    16d8:	d8dc      	bhi.n	1694 <main+0x498>
    16da:	463b      	mov	r3, r7
    16dc:	18e8      	adds	r0, r5, r3
    16de:	f890 3120 	ldrb.w	r3, [r0, #288]	; 0x120
    16e2:	f895 262c 	ldrb.w	r2, [r5, #1580]	; 0x62c
    16e6:	429a      	cmp	r2, r3
    16e8:	f0c0 819c 	bcc.w	1a24 <main+0x828>
    16ec:	3704      	adds	r7, #4
    16ee:	f885 362c 	strb.w	r3, [r5, #1580]	; 0x62c
    16f2:	2b00      	cmp	r3, #0
    16f4:	d048      	beq.n	1788 <main+0x58c>
    16f6:	f04f 0c00 	mov.w	r12, #0
    16fa:	9604      	str	r6, [sp, #16]
    16fc:	f507 7690 	add.w	r6, r7, #288	; 0x120
    1700:	59a8      	ldr	r0, [r5, r6]
    1702:	1d39      	adds	r1, r7, #4
    1704:	9006      	str	r0, [sp, #24]
    1706:	9a06      	ldr	r2, [sp, #24]
    1708:	188a      	adds	r2, r1, r2
    170a:	428a      	cmp	r2, r1
    170c:	d922      	bls.n	1754 <main+0x558>
    170e:	1868      	adds	r0, r5, r1
    1710:	43cb      	mvns	r3, r1
    1712:	f890 e120 	ldrb.w	lr, [r0, #288]	; 0x120
    1716:	189e      	adds	r6, r3, r2
    1718:	1d7b      	adds	r3, r7, #5
    171a:	429a      	cmp	r2, r3
    171c:	f880 e11f 	strb.w	lr, [r0, #287]	; 0x11f
    1720:	f006 0001 	and.w	r0, r6, #1
    1724:	d916      	bls.n	1754 <main+0x558>
    1726:	b138      	cbz	r0, 1738 <main+0x53c>
    1728:	18e8      	adds	r0, r5, r3
    172a:	f890 6120 	ldrb.w	r6, [r0, #288]	; 0x120
    172e:	1dbb      	adds	r3, r7, #6
    1730:	429a      	cmp	r2, r3
    1732:	f880 611f 	strb.w	r6, [r0, #287]	; 0x11f
    1736:	d90d      	bls.n	1754 <main+0x558>
    1738:	18ef      	adds	r7, r5, r3
    173a:	f897 0120 	ldrb.w	r0, [r7, #288]	; 0x120
    173e:	3301      	adds	r3, #1
    1740:	f887 011f 	strb.w	r0, [r7, #287]	; 0x11f
    1744:	18ef      	adds	r7, r5, r3
    1746:	f897 6120 	ldrb.w	r6, [r7, #288]	; 0x120
    174a:	3301      	adds	r3, #1
    174c:	429a      	cmp	r2, r3
    174e:	f887 611f 	strb.w	r6, [r7, #287]	; 0x11f
    1752:	d8f1      	bhi.n	1738 <main+0x53c>
    1754:	f201 111f 	addw	r1, r1, #287	; 0x11f
    1758:	186b      	adds	r3, r5, r1
    175a:	18a8      	adds	r0, r5, r2
    175c:	f04f 0e00 	mov.w	lr, #0
    1760:	4e0c      	ldr	r6, [pc, #48]	; (1794 <main+0x598>)
    1762:	f880 e11f 	strb.w	lr, [r0, #287]	; 0x11f
    1766:	f8c5 3630 	str.w	r3, [r5, #1584]	; 0x630
    176a:	f8d5 7634 	ldr.w	r7, [r5, #1588]	; 0x634
    176e:	6830      	ldr	r0, [r6, #0]
    1770:	f10c 0101 	add.w	r1, r12, #1
    1774:	f847 002c 	str.w	r0, [r7, r12, lsl #2]
    1778:	f895 362c 	ldrb.w	r3, [r5, #1580]	; 0x62c
    177c:	fa5f fc81 	uxtb.w	r12, r1
    1780:	4563      	cmp	r3, r12
    1782:	4617      	mov	r7, r2
    1784:	d8ba      	bhi.n	16fc <main+0x500>
    1786:	9e04      	ldr	r6, [sp, #16]
    1788:	2201      	movs	r2, #1
    178a:	f885 260c 	strb.w	r2, [r5, #1548]	; 0x60c
    178e:	e5b3      	b.n	12f8 <main+0xfc>
    1790:	10000164 	.word	0x10000164
    1794:	10000794 	.word	0x10000794
    1798:	1000077c 	.word	0x1000077c
    179c:	10000788 	.word	0x10000788
    17a0:	f240 1264 	movw	r2, #356	; 0x164
    17a4:	f2c1 0200 	movt	r2, #4096	; 0x1000
    17a8:	4998      	ldr	r1, [pc, #608]	; (1a0c <main+0x810>)
    17aa:	6813      	ldr	r3, [r2, #0]
    17ac:	9107      	str	r1, [sp, #28]
    17ae:	aa07      	add	r2, sp, #28
    17b0:	210a      	movs	r1, #10
    17b2:	681b      	ldr	r3, [r3, #0]
    17b4:	9708      	str	r7, [sp, #32]
    17b6:	9709      	str	r7, [sp, #36]	; 0x24
    17b8:	4895      	ldr	r0, [pc, #596]	; (1a10 <main+0x814>)
    17ba:	4798      	blx	r3
    17bc:	f240 1064 	movw	r0, #356	; 0x164
    17c0:	f2c1 0000 	movt	r0, #4096	; 0x1000
    17c4:	f500 7084 	add.w	r0, r0, #264	; 0x108
    17c8:	f002 fdaa 	bl	4320 <_ZN4mbed5Timer7read_msEv>
    17cc:	4a91      	ldr	r2, [pc, #580]	; (1a14 <main+0x818>)
    17ce:	f240 1c64 	movw	r12, #356	; 0x164
    17d2:	6811      	ldr	r1, [r2, #0]
    17d4:	4b90      	ldr	r3, [pc, #576]	; (1a18 <main+0x81c>)
    17d6:	f2c1 0c00 	movt	r12, #4096	; 0x1000
    17da:	46b8      	mov	r8, r7
    17dc:	f8cc 0114 	str.w	r0, [r12, #276]	; 0x114
    17e0:	930a      	str	r3, [sp, #40]	; 0x28
    17e2:	f20c 5724 	addw	r7, r12, #1316	; 0x524
    17e6:	b1e9      	cbz	r1, 1824 <main+0x628>
    17e8:	f857 2c04 	ldr.w	r2, [r7, #-4]
    17ec:	6848      	ldr	r0, [r1, #4]
    17ee:	6812      	ldr	r2, [r2, #0]
    17f0:	6803      	ldr	r3, [r0, #0]
    17f2:	6889      	ldr	r1, [r1, #8]
    17f4:	920c      	str	r2, [sp, #48]	; 0x30
    17f6:	689a      	ldr	r2, [r3, #8]
    17f8:	f8ad 102c 	strh.w	r1, [sp, #44]	; 0x2c
    17fc:	4790      	blx	r2
    17fe:	f857 1c04 	ldr.w	r1, [r7, #-4]
    1802:	900d      	str	r0, [sp, #52]	; 0x34
    1804:	6848      	ldr	r0, [r1, #4]
    1806:	6803      	ldr	r3, [r0, #0]
    1808:	68da      	ldr	r2, [r3, #12]
    180a:	4790      	blx	r2
    180c:	6829      	ldr	r1, [r5, #0]
    180e:	f857 2c04 	ldr.w	r2, [r7, #-4]
    1812:	900e      	str	r0, [sp, #56]	; 0x38
    1814:	f44f 7000 	mov.w	r0, #512	; 0x200
    1818:	900f      	str	r0, [sp, #60]	; 0x3c
    181a:	680b      	ldr	r3, [r1, #0]
    181c:	487c      	ldr	r0, [pc, #496]	; (1a10 <main+0x814>)
    181e:	6911      	ldr	r1, [r2, #16]
    1820:	aa0a      	add	r2, sp, #40	; 0x28
    1822:	4798      	blx	r3
    1824:	497d      	ldr	r1, [pc, #500]	; (1a1c <main+0x820>)
    1826:	428f      	cmp	r7, r1
    1828:	d073      	beq.n	1912 <main+0x716>
    182a:	f1b8 0f00 	cmp.w	r8, #0
    182e:	d028      	beq.n	1882 <main+0x686>
    1830:	f240 1264 	movw	r2, #356	; 0x164
    1834:	f2c1 0200 	movt	r2, #4096	; 0x1000
    1838:	f8d2 3524 	ldr.w	r3, [r2, #1316]	; 0x524
    183c:	3704      	adds	r7, #4
    183e:	b1eb      	cbz	r3, 187c <main+0x680>
    1840:	f857 1c04 	ldr.w	r1, [r7, #-4]
    1844:	6858      	ldr	r0, [r3, #4]
    1846:	680a      	ldr	r2, [r1, #0]
    1848:	6899      	ldr	r1, [r3, #8]
    184a:	6803      	ldr	r3, [r0, #0]
    184c:	920c      	str	r2, [sp, #48]	; 0x30
    184e:	689a      	ldr	r2, [r3, #8]
    1850:	f8ad 102c 	strh.w	r1, [sp, #44]	; 0x2c
    1854:	4790      	blx	r2
    1856:	f857 1c04 	ldr.w	r1, [r7, #-4]
    185a:	900d      	str	r0, [sp, #52]	; 0x34
    185c:	6848      	ldr	r0, [r1, #4]
    185e:	6803      	ldr	r3, [r0, #0]
    1860:	68da      	ldr	r2, [r3, #12]
    1862:	4790      	blx	r2
    1864:	6829      	ldr	r1, [r5, #0]
    1866:	f857 2c04 	ldr.w	r2, [r7, #-4]
    186a:	900e      	str	r0, [sp, #56]	; 0x38
    186c:	f44f 7000 	mov.w	r0, #512	; 0x200
    1870:	900f      	str	r0, [sp, #60]	; 0x3c
    1872:	680b      	ldr	r3, [r1, #0]
    1874:	4866      	ldr	r0, [pc, #408]	; (1a10 <main+0x814>)
    1876:	6911      	ldr	r1, [r2, #16]
    1878:	aa0a      	add	r2, sp, #40	; 0x28
    187a:	4798      	blx	r3
    187c:	4967      	ldr	r1, [pc, #412]	; (1a1c <main+0x820>)
    187e:	428f      	cmp	r7, r1
    1880:	d047      	beq.n	1912 <main+0x716>
    1882:	46b8      	mov	r8, r7
    1884:	f858 3b04 	ldr.w	r3, [r8], #4
    1888:	4647      	mov	r7, r8
    188a:	b1eb      	cbz	r3, 18c8 <main+0x6cc>
    188c:	f858 2c04 	ldr.w	r2, [r8, #-4]
    1890:	6858      	ldr	r0, [r3, #4]
    1892:	6812      	ldr	r2, [r2, #0]
    1894:	6899      	ldr	r1, [r3, #8]
    1896:	6803      	ldr	r3, [r0, #0]
    1898:	920c      	str	r2, [sp, #48]	; 0x30
    189a:	689a      	ldr	r2, [r3, #8]
    189c:	f8ad 102c 	strh.w	r1, [sp, #44]	; 0x2c
    18a0:	4790      	blx	r2
    18a2:	f858 1c04 	ldr.w	r1, [r8, #-4]
    18a6:	900d      	str	r0, [sp, #52]	; 0x34
    18a8:	6848      	ldr	r0, [r1, #4]
    18aa:	6803      	ldr	r3, [r0, #0]
    18ac:	68da      	ldr	r2, [r3, #12]
    18ae:	4790      	blx	r2
    18b0:	682b      	ldr	r3, [r5, #0]
    18b2:	f858 1c04 	ldr.w	r1, [r8, #-4]
    18b6:	900e      	str	r0, [sp, #56]	; 0x38
    18b8:	f44f 7000 	mov.w	r0, #512	; 0x200
    18bc:	6909      	ldr	r1, [r1, #16]
    18be:	aa0a      	add	r2, sp, #40	; 0x28
    18c0:	900f      	str	r0, [sp, #60]	; 0x3c
    18c2:	681b      	ldr	r3, [r3, #0]
    18c4:	4852      	ldr	r0, [pc, #328]	; (1a10 <main+0x814>)
    18c6:	4798      	blx	r3
    18c8:	f857 1b04 	ldr.w	r1, [r7], #4
    18cc:	b1e9      	cbz	r1, 190a <main+0x70e>
    18ce:	f857 2c04 	ldr.w	r2, [r7, #-4]
    18d2:	6848      	ldr	r0, [r1, #4]
    18d4:	6812      	ldr	r2, [r2, #0]
    18d6:	6803      	ldr	r3, [r0, #0]
    18d8:	6889      	ldr	r1, [r1, #8]
    18da:	920c      	str	r2, [sp, #48]	; 0x30
    18dc:	689a      	ldr	r2, [r3, #8]
    18de:	f8ad 102c 	strh.w	r1, [sp, #44]	; 0x2c
    18e2:	4790      	blx	r2
    18e4:	f857 1c04 	ldr.w	r1, [r7, #-4]
    18e8:	900d      	str	r0, [sp, #52]	; 0x34
    18ea:	6848      	ldr	r0, [r1, #4]
    18ec:	6803      	ldr	r3, [r0, #0]
    18ee:	68da      	ldr	r2, [r3, #12]
    18f0:	4790      	blx	r2
    18f2:	682a      	ldr	r2, [r5, #0]
    18f4:	f857 1c04 	ldr.w	r1, [r7, #-4]
    18f8:	900e      	str	r0, [sp, #56]	; 0x38
    18fa:	f44f 7000 	mov.w	r0, #512	; 0x200
    18fe:	900f      	str	r0, [sp, #60]	; 0x3c
    1900:	6813      	ldr	r3, [r2, #0]
    1902:	4843      	ldr	r0, [pc, #268]	; (1a10 <main+0x814>)
    1904:	6909      	ldr	r1, [r1, #16]
    1906:	aa0a      	add	r2, sp, #40	; 0x28
    1908:	4798      	blx	r3
    190a:	f8df e110 	ldr.w	lr, [pc, #272]	; 1a1c <main+0x820>
    190e:	4577      	cmp	r7, lr
    1910:	d1b7      	bne.n	1882 <main+0x686>
    1912:	f8df 8108 	ldr.w	r8, [pc, #264]	; 1a1c <main+0x820>
    1916:	4647      	mov	r7, r8
    1918:	f857 0b04 	ldr.w	r0, [r7], #4
    191c:	b308      	cbz	r0, 1962 <main+0x766>
    191e:	6882      	ldr	r2, [r0, #8]
    1920:	6803      	ldr	r3, [r0, #0]
    1922:	6841      	ldr	r1, [r0, #4]
    1924:	920c      	str	r2, [sp, #48]	; 0x30
    1926:	689a      	ldr	r2, [r3, #8]
    1928:	f8ad 102c 	strh.w	r1, [sp, #44]	; 0x2c
    192c:	4790      	blx	r2
    192e:	f857 1c04 	ldr.w	r1, [r7, #-4]
    1932:	900d      	str	r0, [sp, #52]	; 0x34
    1934:	680b      	ldr	r3, [r1, #0]
    1936:	4608      	mov	r0, r1
    1938:	68da      	ldr	r2, [r3, #12]
    193a:	4790      	blx	r2
    193c:	f857 1c04 	ldr.w	r1, [r7, #-4]
    1940:	682b      	ldr	r3, [r5, #0]
    1942:	900e      	str	r0, [sp, #56]	; 0x38
    1944:	f44f 7000 	mov.w	r0, #512	; 0x200
    1948:	680a      	ldr	r2, [r1, #0]
    194a:	900f      	str	r0, [sp, #60]	; 0x3c
    194c:	4608      	mov	r0, r1
    194e:	6819      	ldr	r1, [r3, #0]
    1950:	6852      	ldr	r2, [r2, #4]
    1952:	9101      	str	r1, [sp, #4]
    1954:	4790      	blx	r2
    1956:	aa0a      	add	r2, sp, #40	; 0x28
    1958:	4601      	mov	r1, r0
    195a:	9b01      	ldr	r3, [sp, #4]
    195c:	f2a8 5084 	subw	r0, r8, #1412	; 0x584
    1960:	4798      	blx	r3
    1962:	46b8      	mov	r8, r7
    1964:	f858 2b04 	ldr.w	r2, [r8], #4
    1968:	4610      	mov	r0, r2
    196a:	4647      	mov	r7, r8
    196c:	b1fa      	cbz	r2, 19ae <main+0x7b2>
    196e:	6893      	ldr	r3, [r2, #8]
    1970:	6851      	ldr	r1, [r2, #4]
    1972:	6812      	ldr	r2, [r2, #0]
    1974:	930c      	str	r3, [sp, #48]	; 0x30
    1976:	6893      	ldr	r3, [r2, #8]
    1978:	f8ad 102c 	strh.w	r1, [sp, #44]	; 0x2c
    197c:	4798      	blx	r3
    197e:	f858 1c04 	ldr.w	r1, [r8, #-4]
    1982:	900d      	str	r0, [sp, #52]	; 0x34
    1984:	680a      	ldr	r2, [r1, #0]
    1986:	4608      	mov	r0, r1
    1988:	68d3      	ldr	r3, [r2, #12]
    198a:	4798      	blx	r3
    198c:	f858 3c04 	ldr.w	r3, [r8, #-4]
    1990:	900e      	str	r0, [sp, #56]	; 0x38
    1992:	6819      	ldr	r1, [r3, #0]
    1994:	682a      	ldr	r2, [r5, #0]
    1996:	f44f 7000 	mov.w	r0, #512	; 0x200
    199a:	900f      	str	r0, [sp, #60]	; 0x3c
    199c:	6849      	ldr	r1, [r1, #4]
    199e:	4618      	mov	r0, r3
    19a0:	f8d2 8000 	ldr.w	r8, [r2]
    19a4:	4788      	blx	r1
    19a6:	aa0a      	add	r2, sp, #40	; 0x28
    19a8:	4601      	mov	r1, r0
    19aa:	4819      	ldr	r0, [pc, #100]	; (1a10 <main+0x814>)
    19ac:	47c0      	blx	r8
    19ae:	f857 3b04 	ldr.w	r3, [r7], #4
    19b2:	4618      	mov	r0, r3
    19b4:	b1fb      	cbz	r3, 19f6 <main+0x7fa>
    19b6:	689a      	ldr	r2, [r3, #8]
    19b8:	6859      	ldr	r1, [r3, #4]
    19ba:	681b      	ldr	r3, [r3, #0]
    19bc:	920c      	str	r2, [sp, #48]	; 0x30
    19be:	689a      	ldr	r2, [r3, #8]
    19c0:	f8ad 102c 	strh.w	r1, [sp, #44]	; 0x2c
    19c4:	4790      	blx	r2
    19c6:	f857 1c04 	ldr.w	r1, [r7, #-4]
    19ca:	900d      	str	r0, [sp, #52]	; 0x34
    19cc:	680b      	ldr	r3, [r1, #0]
    19ce:	4608      	mov	r0, r1
    19d0:	68da      	ldr	r2, [r3, #12]
    19d2:	4790      	blx	r2
    19d4:	f857 3c04 	ldr.w	r3, [r7, #-4]
    19d8:	900e      	str	r0, [sp, #56]	; 0x38
    19da:	6819      	ldr	r1, [r3, #0]
    19dc:	682a      	ldr	r2, [r5, #0]
    19de:	f44f 7000 	mov.w	r0, #512	; 0x200
    19e2:	900f      	str	r0, [sp, #60]	; 0x3c
    19e4:	6849      	ldr	r1, [r1, #4]
    19e6:	4618      	mov	r0, r3
    19e8:	f8d2 8000 	ldr.w	r8, [r2]
    19ec:	4788      	blx	r1
    19ee:	aa0a      	add	r2, sp, #40	; 0x28
    19f0:	4601      	mov	r1, r0
    19f2:	4807      	ldr	r0, [pc, #28]	; (1a10 <main+0x814>)
    19f4:	47c0      	blx	r8
    19f6:	4b0a      	ldr	r3, [pc, #40]	; (1a20 <main+0x824>)
    19f8:	429f      	cmp	r7, r3
    19fa:	d1b2      	bne.n	1962 <main+0x766>
    19fc:	2701      	movs	r7, #1
    19fe:	f885 75fc 	strb.w	r7, [r5, #1532]	; 0x5fc
    1a02:	f8c5 6600 	str.w	r6, [r5, #1536]	; 0x600
    1a06:	f8c5 6604 	str.w	r6, [r5, #1540]	; 0x604
    1a0a:	e4b6      	b.n	137a <main+0x17e>
    1a0c:	000089a0 	.word	0x000089a0
    1a10:	10000164 	.word	0x10000164
    1a14:	10000684 	.word	0x10000684
    1a18:	000089b8 	.word	0x000089b8
    1a1c:	100006e8 	.word	0x100006e8
    1a20:	1000074c 	.word	0x1000074c
    1a24:	f8d4 0634 	ldr.w	r0, [r4, #1588]	; 0x634
    1a28:	0099      	lsls	r1, r3, #2
    1a2a:	9301      	str	r3, [sp, #4]
    1a2c:	f005 faf0 	bl	7010 <realloc>
    1a30:	9b01      	ldr	r3, [sp, #4]
    1a32:	f8c4 0634 	str.w	r0, [r4, #1588]	; 0x634
    1a36:	e659      	b.n	16ec <main+0x4f0>
    1a38:	f8d4 0628 	ldr.w	r0, [r4, #1576]	; 0x628
    1a3c:	0091      	lsls	r1, r2, #2
    1a3e:	9202      	str	r2, [sp, #8]
    1a40:	9301      	str	r3, [sp, #4]
    1a42:	f005 fae5 	bl	7010 <realloc>
    1a46:	9b01      	ldr	r3, [sp, #4]
    1a48:	f8c4 0628 	str.w	r0, [r4, #1576]	; 0x628
    1a4c:	9a02      	ldr	r2, [sp, #8]
    1a4e:	e613      	b.n	1678 <main+0x47c>
    1a50:	f8d4 061c 	ldr.w	r0, [r4, #1564]	; 0x61c
    1a54:	00b9      	lsls	r1, r7, #2
    1a56:	f005 fadb 	bl	7010 <realloc>
    1a5a:	f885 7614 	strb.w	r7, [r5, #1556]	; 0x614
    1a5e:	f8c4 061c 	str.w	r0, [r4, #1564]	; 0x61c
    1a62:	2f00      	cmp	r7, #0
    1a64:	f47f add5 	bne.w	1612 <main+0x416>
    1a68:	2308      	movs	r3, #8
    1a6a:	461f      	mov	r7, r3
    1a6c:	2204      	movs	r2, #4
    1a6e:	e5fb      	b.n	1668 <main+0x46c>

00001a70 <_GLOBAL__sub_I_nh>:
    1a70:	b538      	push	{r3, r4, r5, lr}
    1a72:	4c38      	ldr	r4, [pc, #224]	; (1b54 <_GLOBAL__sub_I_nh+0xe4>)
    1a74:	4d38      	ldr	r5, [pc, #224]	; (1b58 <_GLOBAL__sub_I_nh+0xe8>)
    1a76:	4620      	mov	r0, r4
    1a78:	f44f 4140 	mov.w	r1, #49152	; 0xc000
    1a7c:	f24c 0201 	movw	r2, #49153	; 0xc001
    1a80:	f2c2 0109 	movt	r1, #8201	; 0x2009
    1a84:	f2c2 0209 	movt	r2, #8201	; 0x2009
    1a88:	2300      	movs	r3, #0
    1a8a:	f840 5b08 	str.w	r5, [r0], #8
    1a8e:	f000 ff01 	bl	2894 <_ZN3AjK9MODSERIALC1E7PinNameS1_PKc>
    1a92:	f504 7084 	add.w	r0, r4, #264	; 0x108
    1a96:	f002 fc59 	bl	434c <_ZN4mbed5TimerC1Ev>
    1a9a:	f44f 4361 	mov.w	r3, #57600	; 0xe100
    1a9e:	f504 7084 	add.w	r0, r4, #264	; 0x108
    1aa2:	6063      	str	r3, [r4, #4]
    1aa4:	f002 fc22 	bl	42ec <_ZN4mbed5Timer5startEv>
    1aa8:	482c      	ldr	r0, [pc, #176]	; (1b5c <_GLOBAL__sub_I_nh+0xec>)
    1aaa:	2200      	movs	r2, #0
    1aac:	4625      	mov	r5, r4
    1aae:	f884 25fc 	strb.w	r2, [r4, #1532]	; 0x5fc
    1ab2:	f8c4 0610 	str.w	r0, [r4, #1552]	; 0x610
    1ab6:	f504 63a4 	add.w	r3, r4, #1312	; 0x520
    1aba:	4611      	mov	r1, r2
    1abc:	f504 64b0 	add.w	r4, r4, #1408	; 0x580
    1ac0:	f8c5 2520 	str.w	r2, [r5, #1312]	; 0x520
    1ac4:	1d1a      	adds	r2, r3, #4
    1ac6:	6059      	str	r1, [r3, #4]
    1ac8:	3308      	adds	r3, #8
    1aca:	42a3      	cmp	r3, r4
    1acc:	6051      	str	r1, [r2, #4]
    1ace:	d1f9      	bne.n	1ac4 <_GLOBAL__sub_I_nh+0x54>
    1ad0:	4823      	ldr	r0, [pc, #140]	; (1b60 <_GLOBAL__sub_I_nh+0xf0>)
    1ad2:	2100      	movs	r1, #0
    1ad4:	4603      	mov	r3, r0
    1ad6:	f843 1d60 	str.w	r1, [r3, #-96]!
    1ada:	1d1c      	adds	r4, r3, #4
    1adc:	6059      	str	r1, [r3, #4]
    1ade:	3308      	adds	r3, #8
    1ae0:	4283      	cmp	r3, r0
    1ae2:	6061      	str	r1, [r4, #4]
    1ae4:	d1f9      	bne.n	1ada <_GLOBAL__sub_I_nh+0x6a>
    1ae6:	4b1f      	ldr	r3, [pc, #124]	; (1b64 <_GLOBAL__sub_I_nh+0xf4>)
    1ae8:	2100      	movs	r1, #0
    1aea:	f503 7000 	add.w	r0, r3, #512	; 0x200
    1aee:	1c5a      	adds	r2, r3, #1
    1af0:	7059      	strb	r1, [r3, #1]
    1af2:	3302      	adds	r3, #2
    1af4:	4283      	cmp	r3, r0
    1af6:	7051      	strb	r1, [r2, #1]
    1af8:	d1f9      	bne.n	1aee <_GLOBAL__sub_I_nh+0x7e>
    1afa:	4a1b      	ldr	r2, [pc, #108]	; (1b68 <_GLOBAL__sub_I_nh+0xf8>)
    1afc:	2100      	movs	r1, #0
    1afe:	f502 7000 	add.w	r0, r2, #512	; 0x200
    1b02:	1c54      	adds	r4, r2, #1
    1b04:	7051      	strb	r1, [r2, #1]
    1b06:	3202      	adds	r2, #2
    1b08:	7061      	strb	r1, [r4, #1]
    1b0a:	2400      	movs	r4, #0
    1b0c:	4282      	cmp	r2, r0
    1b0e:	d1f8      	bne.n	1b02 <_GLOBAL__sub_I_nh+0x92>
    1b10:	4916      	ldr	r1, [pc, #88]	; (1b6c <_GLOBAL__sub_I_nh+0xfc>)
    1b12:	4a17      	ldr	r2, [pc, #92]	; (1b70 <_GLOBAL__sub_I_nh+0x100>)
    1b14:	480f      	ldr	r0, [pc, #60]	; (1b54 <_GLOBAL__sub_I_nh+0xe4>)
    1b16:	f885 4614 	strb.w	r4, [r5, #1556]	; 0x614
    1b1a:	f8c5 461c 	str.w	r4, [r5, #1564]	; 0x61c
    1b1e:	f885 4620 	strb.w	r4, [r5, #1568]	; 0x620
    1b22:	f8c5 4628 	str.w	r4, [r5, #1576]	; 0x628
    1b26:	f002 fe53 	bl	47d0 <__aeabi_atexit>
    1b2a:	4b12      	ldr	r3, [pc, #72]	; (1b74 <_GLOBAL__sub_I_nh+0x104>)
    1b2c:	4812      	ldr	r0, [pc, #72]	; (1b78 <_GLOBAL__sub_I_nh+0x108>)
    1b2e:	4a13      	ldr	r2, [pc, #76]	; (1b7c <_GLOBAL__sub_I_nh+0x10c>)
    1b30:	6018      	str	r0, [r3, #0]
    1b32:	4813      	ldr	r0, [pc, #76]	; (1b80 <_GLOBAL__sub_I_nh+0x110>)
    1b34:	4913      	ldr	r1, [pc, #76]	; (1b84 <_GLOBAL__sub_I_nh+0x114>)
    1b36:	60d8      	str	r0, [r3, #12]
    1b38:	4813      	ldr	r0, [pc, #76]	; (1b88 <_GLOBAL__sub_I_nh+0x118>)
    1b3a:	6051      	str	r1, [r2, #4]
    1b3c:	6158      	str	r0, [r3, #20]
    1b3e:	2001      	movs	r0, #1
    1b40:	6198      	str	r0, [r3, #24]
    1b42:	4812      	ldr	r0, [pc, #72]	; (1b8c <_GLOBAL__sub_I_nh+0x11c>)
    1b44:	6114      	str	r4, [r2, #16]
    1b46:	6098      	str	r0, [r3, #8]
    1b48:	4b11      	ldr	r3, [pc, #68]	; (1b90 <_GLOBAL__sub_I_nh+0x120>)
    1b4a:	4812      	ldr	r0, [pc, #72]	; (1b94 <_GLOBAL__sub_I_nh+0x124>)
    1b4c:	600b      	str	r3, [r1, #0]
    1b4e:	6010      	str	r0, [r2, #0]
    1b50:	bd38      	pop	{r3, r4, r5, pc}
    1b52:	bf00      	nop
    1b54:	10000164 	.word	0x10000164
    1b58:	00008a30 	.word	0x00008a30
    1b5c:	00008a48 	.word	0x00008a48
    1b60:	10000748 	.word	0x10000748
    1b64:	10000283 	.word	0x10000283
    1b68:	10000483 	.word	0x10000483
    1b6c:	00000ac9 	.word	0x00000ac9
    1b70:	100000c8 	.word	0x100000c8
    1b74:	10000824 	.word	0x10000824
    1b78:	000089e8 	.word	0x000089e8
    1b7c:	1000079c 	.word	0x1000079c
    1b80:	00008a00 	.word	0x00008a00
    1b84:	100007b0 	.word	0x100007b0
    1b88:	00000435 	.word	0x00000435
    1b8c:	00008d90 	.word	0x00008d90
    1b90:	00008a18 	.word	0x00008a18
    1b94:	00008d98 	.word	0x00008d98

00001b98 <_ZN6KernelC1Ev>:
    1b98:	b538      	push	{r3, r4, r5, lr}
    1b9a:	2300      	movs	r3, #0
    1b9c:	4604      	mov	r4, r0
    1b9e:	6043      	str	r3, [r0, #4]
    1ba0:	6083      	str	r3, [r0, #8]
    1ba2:	60c3      	str	r3, [r0, #12]
    1ba4:	6103      	str	r3, [r0, #16]
    1ba6:	6143      	str	r3, [r0, #20]
    1ba8:	6183      	str	r3, [r0, #24]
    1baa:	61c3      	str	r3, [r0, #28]
    1bac:	6203      	str	r3, [r0, #32]
    1bae:	6243      	str	r3, [r0, #36]	; 0x24
    1bb0:	6283      	str	r3, [r0, #40]	; 0x28
    1bb2:	62c3      	str	r3, [r0, #44]	; 0x2c
    1bb4:	6303      	str	r3, [r0, #48]	; 0x30
    1bb6:	6343      	str	r3, [r0, #52]	; 0x34
    1bb8:	6383      	str	r3, [r0, #56]	; 0x38
    1bba:	63c3      	str	r3, [r0, #60]	; 0x3c
    1bbc:	6403      	str	r3, [r0, #64]	; 0x40
    1bbe:	6443      	str	r3, [r0, #68]	; 0x44
    1bc0:	6483      	str	r3, [r0, #72]	; 0x48
    1bc2:	64c3      	str	r3, [r0, #76]	; 0x4c
    1bc4:	6503      	str	r3, [r0, #80]	; 0x50
    1bc6:	6543      	str	r3, [r0, #84]	; 0x54
    1bc8:	6583      	str	r3, [r0, #88]	; 0x58
    1bca:	65c3      	str	r3, [r0, #92]	; 0x5c
    1bcc:	6603      	str	r3, [r0, #96]	; 0x60
    1bce:	6643      	str	r3, [r0, #100]	; 0x64
    1bd0:	6683      	str	r3, [r0, #104]	; 0x68
    1bd2:	66c3      	str	r3, [r0, #108]	; 0x6c
    1bd4:	6703      	str	r3, [r0, #112]	; 0x70
    1bd6:	6743      	str	r3, [r0, #116]	; 0x74
    1bd8:	6783      	str	r3, [r0, #120]	; 0x78
    1bda:	67c3      	str	r3, [r0, #124]	; 0x7c
    1bdc:	f8c0 3080 	str.w	r3, [r0, #128]	; 0x80
    1be0:	f8c0 3084 	str.w	r3, [r0, #132]	; 0x84
    1be4:	2024      	movs	r0, #36	; 0x24
    1be6:	f8c4 3088 	str.w	r3, [r4, #136]	; 0x88
    1bea:	f8c4 308c 	str.w	r3, [r4, #140]	; 0x8c
    1bee:	f8c4 3090 	str.w	r3, [r4, #144]	; 0x90
    1bf2:	f002 fe67 	bl	48c4 <_Znwj>
    1bf6:	4605      	mov	r5, r0
    1bf8:	f000 fbd6 	bl	23a8 <_ZN6ConfigC1Ev>
    1bfc:	6829      	ldr	r1, [r5, #0]
    1bfe:	6025      	str	r5, [r4, #0]
    1c00:	606c      	str	r4, [r5, #4]
    1c02:	4628      	mov	r0, r5
    1c04:	680a      	ldr	r2, [r1, #0]
    1c06:	4790      	blx	r2
    1c08:	682b      	ldr	r3, [r5, #0]
    1c0a:	4628      	mov	r0, r5
    1c0c:	685a      	ldr	r2, [r3, #4]
    1c0e:	2108      	movs	r1, #8
    1c10:	4790      	blx	r2
    1c12:	4620      	mov	r0, r4
    1c14:	bd38      	pop	{r3, r4, r5, pc}
    1c16:	bf00      	nop

00001c18 <_ZN6Kernel10call_eventEj>:
    1c18:	eb01 0341 	add.w	r3, r1, r1, lsl #1
    1c1c:	e92d 47f0 	stmdb	sp!, {r4, r5, r6, r7, r8, r9, r10, lr}
    1c20:	4607      	mov	r7, r0
    1c22:	eb00 0083 	add.w	r0, r0, r3, lsl #2
    1c26:	f100 0a04 	add.w	r10, r0, #4
    1c2a:	f8da 2004 	ldr.w	r2, [r10, #4]
    1c2e:	6843      	ldr	r3, [r0, #4]
    1c30:	460e      	mov	r6, r1
    1c32:	1ad1      	subs	r1, r2, r3
    1c34:	088a      	lsrs	r2, r1, #2
    1c36:	d022      	beq.n	1c7e <_ZN6Kernel10call_eventEj+0x66>
    1c38:	f8df 8048 	ldr.w	r8, [pc, #72]	; 1c84 <_ZN6Kernel10call_eventEj+0x6c>
    1c3c:	2400      	movs	r4, #0
    1c3e:	eb08 05c6 	add.w	r5, r8, r6, lsl #3
    1c42:	6868      	ldr	r0, [r5, #4]
    1c44:	f000 0901 	and.w	r9, r0, #1
    1c48:	1045      	asrs	r5, r0, #1
    1c4a:	e00d      	b.n	1c68 <_ZN6Kernel10call_eventEj+0x50>
    1c4c:	1958      	adds	r0, r3, r5
    1c4e:	f858 3036 	ldr.w	r3, [r8, r6, lsl #3]
    1c52:	4639      	mov	r1, r7
    1c54:	4798      	blx	r3
    1c56:	f8da 3000 	ldr.w	r3, [r10]
    1c5a:	f8da 0004 	ldr.w	r0, [r10, #4]
    1c5e:	3401      	adds	r4, #1
    1c60:	1ac1      	subs	r1, r0, r3
    1c62:	ebb4 0fa1 	cmp.w	r4, r1, asr #2
    1c66:	d20a      	bcs.n	1c7e <_ZN6Kernel10call_eventEj+0x66>
    1c68:	f853 3024 	ldr.w	r3, [r3, r4, lsl #2]
    1c6c:	f1b9 0f00 	cmp.w	r9, #0
    1c70:	d0ec      	beq.n	1c4c <_ZN6Kernel10call_eventEj+0x34>
    1c72:	5959      	ldr	r1, [r3, r5]
    1c74:	f858 2036 	ldr.w	r2, [r8, r6, lsl #3]
    1c78:	1958      	adds	r0, r3, r5
    1c7a:	588b      	ldr	r3, [r1, r2]
    1c7c:	e7e9      	b.n	1c52 <_ZN6Kernel10call_eventEj+0x3a>
    1c7e:	e8bd 87f0 	ldmia.w	sp!, {r4, r5, r6, r7, r8, r9, r10, pc}
    1c82:	bf00      	nop
    1c84:	00008dc0 	.word	0x00008dc0

00001c88 <_ZNSt6vectorIP6ModuleSaIS1_EE13_M_insert_auxEN9__gnu_cxx17__normal_iteratorIPS1_S3_EERKS1_>:
    1c88:	e92d 43f0 	stmdb	sp!, {r4, r5, r6, r7, r8, r9, lr}
    1c8c:	6843      	ldr	r3, [r0, #4]
    1c8e:	4604      	mov	r4, r0
    1c90:	6880      	ldr	r0, [r0, #8]
    1c92:	b083      	sub	sp, #12
    1c94:	4283      	cmp	r3, r0
    1c96:	460d      	mov	r5, r1
    1c98:	d014      	beq.n	1cc4 <_ZNSt6vectorIP6ModuleSaIS1_EE13_M_insert_auxEN9__gnu_cxx17__normal_iteratorIPS1_S3_EERKS1_+0x3c>
    1c9a:	b11b      	cbz	r3, 1ca4 <_ZNSt6vectorIP6ModuleSaIS1_EE13_M_insert_auxEN9__gnu_cxx17__normal_iteratorIPS1_S3_EERKS1_+0x1c>
    1c9c:	f853 0c04 	ldr.w	r0, [r3, #-4]
    1ca0:	6018      	str	r0, [r3, #0]
    1ca2:	6863      	ldr	r3, [r4, #4]
    1ca4:	1d18      	adds	r0, r3, #4
    1ca6:	1f19      	subs	r1, r3, #4
    1ca8:	6060      	str	r0, [r4, #4]
    1caa:	1b48      	subs	r0, r1, r5
    1cac:	6814      	ldr	r4, [r2, #0]
    1cae:	1082      	asrs	r2, r0, #2
    1cb0:	d004      	beq.n	1cbc <_ZNSt6vectorIP6ModuleSaIS1_EE13_M_insert_auxEN9__gnu_cxx17__normal_iteratorIPS1_S3_EERKS1_+0x34>
    1cb2:	0092      	lsls	r2, r2, #2
    1cb4:	1a98      	subs	r0, r3, r2
    1cb6:	4629      	mov	r1, r5
    1cb8:	f005 f91a 	bl	6ef0 <memmove>
    1cbc:	602c      	str	r4, [r5, #0]
    1cbe:	b003      	add	sp, #12
    1cc0:	e8bd 83f0 	ldmia.w	sp!, {r4, r5, r6, r7, r8, r9, pc}
    1cc4:	6821      	ldr	r1, [r4, #0]
    1cc6:	1a5b      	subs	r3, r3, r1
    1cc8:	109f      	asrs	r7, r3, #2
    1cca:	d037      	beq.n	1d3c <_ZNSt6vectorIP6ModuleSaIS1_EE13_M_insert_auxEN9__gnu_cxx17__normal_iteratorIPS1_S3_EERKS1_+0xb4>
    1ccc:	007e      	lsls	r6, r7, #1
    1cce:	42b7      	cmp	r7, r6
    1cd0:	ebc1 0005 	rsb	r0, r1, r5
    1cd4:	d937      	bls.n	1d46 <_ZNSt6vectorIP6ModuleSaIS1_EE13_M_insert_auxEN9__gnu_cxx17__normal_iteratorIPS1_S3_EERKS1_+0xbe>
    1cd6:	1087      	asrs	r7, r0, #2
    1cd8:	f06f 0803 	mvn.w	r8, #3
    1cdc:	4640      	mov	r0, r8
    1cde:	9201      	str	r2, [sp, #4]
    1ce0:	f002 fdf0 	bl	48c4 <_Znwj>
    1ce4:	9a01      	ldr	r2, [sp, #4]
    1ce6:	4606      	mov	r6, r0
    1ce8:	eb06 0187 	add.w	r1, r6, r7, lsl #2
    1cec:	b111      	cbz	r1, 1cf4 <_ZNSt6vectorIP6ModuleSaIS1_EE13_M_insert_auxEN9__gnu_cxx17__normal_iteratorIPS1_S3_EERKS1_+0x6c>
    1cee:	6812      	ldr	r2, [r2, #0]
    1cf0:	f846 2027 	str.w	r2, [r6, r7, lsl #2]
    1cf4:	6821      	ldr	r1, [r4, #0]
    1cf6:	1a6b      	subs	r3, r5, r1
    1cf8:	ea5f 09a3 	movs.w	r9, r3, asr #2
    1cfc:	d005      	beq.n	1d0a <_ZNSt6vectorIP6ModuleSaIS1_EE13_M_insert_auxEN9__gnu_cxx17__normal_iteratorIPS1_S3_EERKS1_+0x82>
    1cfe:	ea4f 0989 	mov.w	r9, r9, lsl #2
    1d02:	4630      	mov	r0, r6
    1d04:	464a      	mov	r2, r9
    1d06:	f005 f8f3 	bl	6ef0 <memmove>
    1d0a:	6860      	ldr	r0, [r4, #4]
    1d0c:	eb06 0709 	add.w	r7, r6, r9
    1d10:	1b41      	subs	r1, r0, r5
    1d12:	f107 0904 	add.w	r9, r7, #4
    1d16:	108f      	asrs	r7, r1, #2
    1d18:	d005      	beq.n	1d26 <_ZNSt6vectorIP6ModuleSaIS1_EE13_M_insert_auxEN9__gnu_cxx17__normal_iteratorIPS1_S3_EERKS1_+0x9e>
    1d1a:	00bf      	lsls	r7, r7, #2
    1d1c:	4648      	mov	r0, r9
    1d1e:	4629      	mov	r1, r5
    1d20:	463a      	mov	r2, r7
    1d22:	f005 f8e5 	bl	6ef0 <memmove>
    1d26:	6820      	ldr	r0, [r4, #0]
    1d28:	444f      	add	r7, r9
    1d2a:	b108      	cbz	r0, 1d30 <_ZNSt6vectorIP6ModuleSaIS1_EE13_M_insert_auxEN9__gnu_cxx17__normal_iteratorIPS1_S3_EERKS1_+0xa8>
    1d2c:	f002 fdc6 	bl	48bc <_ZdlPv>
    1d30:	eb06 0208 	add.w	r2, r6, r8
    1d34:	e884 00c0 	stmia.w	r4, {r6, r7}
    1d38:	60a2      	str	r2, [r4, #8]
    1d3a:	e7c0      	b.n	1cbe <_ZNSt6vectorIP6ModuleSaIS1_EE13_M_insert_auxEN9__gnu_cxx17__normal_iteratorIPS1_S3_EERKS1_+0x36>
    1d3c:	1a6e      	subs	r6, r5, r1
    1d3e:	10b7      	asrs	r7, r6, #2
    1d40:	f04f 0804 	mov.w	r8, #4
    1d44:	e7ca      	b.n	1cdc <_ZNSt6vectorIP6ModuleSaIS1_EE13_M_insert_auxEN9__gnu_cxx17__normal_iteratorIPS1_S3_EERKS1_+0x54>
    1d46:	f1b6 4f80 	cmp.w	r6, #1073741824	; 0x40000000
    1d4a:	d2c4      	bcs.n	1cd6 <_ZNSt6vectorIP6ModuleSaIS1_EE13_M_insert_auxEN9__gnu_cxx17__normal_iteratorIPS1_S3_EERKS1_+0x4e>
    1d4c:	ea4f 08c7 	mov.w	r8, r7, lsl #3
    1d50:	1087      	asrs	r7, r0, #2
    1d52:	2e00      	cmp	r6, #0
    1d54:	d0c8      	beq.n	1ce8 <_ZNSt6vectorIP6ModuleSaIS1_EE13_M_insert_auxEN9__gnu_cxx17__normal_iteratorIPS1_S3_EERKS1_+0x60>
    1d56:	e7c1      	b.n	1cdc <_ZNSt6vectorIP6ModuleSaIS1_EE13_M_insert_auxEN9__gnu_cxx17__normal_iteratorIPS1_S3_EERKS1_+0x54>

00001d58 <_ZN6Kernel18register_for_eventEjP6Module>:
    1d58:	b500      	push	{lr}
    1d5a:	eb01 0141 	add.w	r1, r1, r1, lsl #1
    1d5e:	eb00 0081 	add.w	r0, r0, r1, lsl #2
    1d62:	3004      	adds	r0, #4
    1d64:	6841      	ldr	r1, [r0, #4]
    1d66:	6883      	ldr	r3, [r0, #8]
    1d68:	b083      	sub	sp, #12
    1d6a:	4299      	cmp	r1, r3
    1d6c:	9201      	str	r2, [sp, #4]
    1d6e:	d006      	beq.n	1d7e <_ZN6Kernel18register_for_eventEjP6Module+0x26>
    1d70:	b109      	cbz	r1, 1d76 <_ZN6Kernel18register_for_eventEjP6Module+0x1e>
    1d72:	600a      	str	r2, [r1, #0]
    1d74:	6841      	ldr	r1, [r0, #4]
    1d76:	1d0a      	adds	r2, r1, #4
    1d78:	6042      	str	r2, [r0, #4]
    1d7a:	b003      	add	sp, #12
    1d7c:	bd00      	pop	{pc}
    1d7e:	aa01      	add	r2, sp, #4
    1d80:	f7ff ff82 	bl	1c88 <_ZNSt6vectorIP6ModuleSaIS1_EE13_M_insert_auxEN9__gnu_cxx17__normal_iteratorIPS1_S3_EERKS1_>
    1d84:	e7f9      	b.n	1d7a <_ZN6Kernel18register_for_eventEjP6Module+0x22>
    1d86:	bf00      	nop

00001d88 <_ZN6Module16on_module_loadedEv>:
    1d88:	4770      	bx	lr
    1d8a:	bf00      	nop

00001d8c <_ZN6Module12on_main_loopEPv>:
    1d8c:	4770      	bx	lr
    1d8e:	bf00      	nop

00001d90 <_ZN6Module24on_console_line_receivedEPv>:
    1d90:	4770      	bx	lr
    1d92:	bf00      	nop

00001d94 <_ZN6Module17on_gcode_receivedEPv>:
    1d94:	4770      	bx	lr
    1d96:	bf00      	nop

00001d98 <_ZN6Module18on_stepper_wake_upEPv>:
    1d98:	4770      	bx	lr
    1d9a:	bf00      	nop

00001d9c <_ZN6Module16on_gcode_executeEPv>:
    1d9c:	4770      	bx	lr
    1d9e:	bf00      	nop

00001da0 <_ZN6Module15on_speed_changeEPv>:
    1da0:	4770      	bx	lr
    1da2:	bf00      	nop

00001da4 <_ZN6Module14on_block_beginEPv>:
    1da4:	4770      	bx	lr
    1da6:	bf00      	nop

00001da8 <_ZN6Module12on_block_endEPv>:
    1da8:	4770      	bx	lr
    1daa:	bf00      	nop

00001dac <_ZN6Module16on_config_reloadEPv>:
    1dac:	4770      	bx	lr
    1dae:	bf00      	nop

00001db0 <_ZN6Module7on_playEPv>:
    1db0:	4770      	bx	lr
    1db2:	bf00      	nop

00001db4 <_ZN6Module8on_pauseEPv>:
    1db4:	4770      	bx	lr
    1db6:	bf00      	nop

00001db8 <_ZN6Module7on_idleEPv>:
    1db8:	4770      	bx	lr
    1dba:	bf00      	nop

00001dbc <_ZN6Module18register_for_eventEi>:
    1dbc:	4602      	mov	r2, r0
    1dbe:	6840      	ldr	r0, [r0, #4]
    1dc0:	f7ff bfca 	b.w	1d58 <_ZN6Kernel18register_for_eventEjP6Module>

00001dc4 <_ZN6ModuleC1Ev>:
    1dc4:	4b01      	ldr	r3, [pc, #4]	; (1dcc <_ZN6ModuleC1Ev+0x8>)
    1dc6:	6003      	str	r3, [r0, #0]
    1dc8:	4770      	bx	lr
    1dca:	bf00      	nop
    1dcc:	00008e30 	.word	0x00008e30

00001dd0 <_Z12get_checksumSs>:
    1dd0:	6801      	ldr	r1, [r0, #0]
    1dd2:	e92d 47f0 	stmdb	sp!, {r4, r5, r6, r7, r8, r9, r10, lr}
    1dd6:	4682      	mov	r10, r0
    1dd8:	f851 0c0c 	ldr.w	r0, [r1, #-12]
    1ddc:	b390      	cbz	r0, 1e44 <_Z12get_checksumSs+0x74>
    1dde:	2600      	movs	r6, #0
    1de0:	f248 0981 	movw	r9, #32897	; 0x8081
    1de4:	4634      	mov	r4, r6
    1de6:	4635      	mov	r5, r6
    1de8:	46b0      	mov	r8, r6
    1dea:	f2c8 0980 	movt	r9, #32896	; 0x8080
    1dee:	f851 3c04 	ldr.w	r3, [r1, #-4]
    1df2:	3401      	adds	r4, #1
    1df4:	2b00      	cmp	r3, #0
    1df6:	db04      	blt.n	1e02 <_Z12get_checksumSs+0x32>
    1df8:	4650      	mov	r0, r10
    1dfa:	f003 f969 	bl	50d0 <_ZNSs12_M_leak_hardEv>
    1dfe:	f8da 1000 	ldr.w	r1, [r10]
    1e02:	5d8a      	ldrb	r2, [r1, r6]
    1e04:	f851 7c0c 	ldr.w	r7, [r1, #-12]
    1e08:	4442      	add	r2, r8
    1e0a:	fb89 0602 	smull	r0, r6, r9, r2
    1e0e:	17d0      	asrs	r0, r2, #31
    1e10:	18b3      	adds	r3, r6, r2
    1e12:	ebc0 16e3 	rsb	r6, r0, r3, asr #7
    1e16:	ebc6 2006 	rsb	r0, r6, r6, lsl #8
    1e1a:	1a12      	subs	r2, r2, r0
    1e1c:	1953      	adds	r3, r2, r5
    1e1e:	fb89 0503 	smull	r0, r5, r9, r3
    1e22:	17de      	asrs	r6, r3, #31
    1e24:	18e8      	adds	r0, r5, r3
    1e26:	ebc6 15e0 	rsb	r5, r6, r0, asr #7
    1e2a:	ebc5 2605 	rsb	r6, r5, r5, lsl #8
    1e2e:	1b9b      	subs	r3, r3, r6
    1e30:	42bc      	cmp	r4, r7
    1e32:	fa1f f882 	uxth.w	r8, r2
    1e36:	b29d      	uxth	r5, r3
    1e38:	4626      	mov	r6, r4
    1e3a:	d3d8      	bcc.n	1dee <_Z12get_checksumSs+0x1e>
    1e3c:	0229      	lsls	r1, r5, #8
    1e3e:	b28a      	uxth	r2, r1
    1e40:	ea42 0008 	orr.w	r0, r2, r8
    1e44:	e8bd 87f0 	ldmia.w	sp!, {r4, r5, r6, r7, r8, r9, r10, pc}

00001e48 <_Z11file_existsSs>:
    1e48:	f648 619c 	movw	r1, #36508	; 0x8e9c
    1e4c:	b510      	push	{r4, lr}
    1e4e:	f2c0 0100 	movt	r1, #0
    1e52:	6800      	ldr	r0, [r0, #0]
    1e54:	f004 fc46 	bl	66e4 <fopen>
    1e58:	4604      	mov	r4, r0
    1e5a:	f004 fa53 	bl	6304 <fclose>
    1e5e:	1c20      	adds	r0, r4, #0
    1e60:	bf18      	it	ne
    1e62:	2001      	movne	r0, #1
    1e64:	bd10      	pop	{r4, pc}
    1e66:	bf00      	nop

00001e68 <_ZNSt6vectorItSaItEE13_M_insert_auxEN9__gnu_cxx17__normal_iteratorIPtS1_EERKt>:
    1e68:	e92d 43f0 	stmdb	sp!, {r4, r5, r6, r7, r8, r9, lr}
    1e6c:	6843      	ldr	r3, [r0, #4]
    1e6e:	4604      	mov	r4, r0
    1e70:	6880      	ldr	r0, [r0, #8]
    1e72:	b083      	sub	sp, #12
    1e74:	4283      	cmp	r3, r0
    1e76:	460d      	mov	r5, r1
    1e78:	d013      	beq.n	1ea2 <_ZNSt6vectorItSaItEE13_M_insert_auxEN9__gnu_cxx17__normal_iteratorIPtS1_EERKt+0x3a>
    1e7a:	b113      	cbz	r3, 1e82 <_ZNSt6vectorItSaItEE13_M_insert_auxEN9__gnu_cxx17__normal_iteratorIPtS1_EERKt+0x1a>
    1e7c:	f833 1c02 	ldrh.w	r1, [r3, #-2]
    1e80:	8019      	strh	r1, [r3, #0]
    1e82:	1e99      	subs	r1, r3, #2
    1e84:	1c98      	adds	r0, r3, #2
    1e86:	1b49      	subs	r1, r1, r5
    1e88:	6060      	str	r0, [r4, #4]
    1e8a:	8814      	ldrh	r4, [r2, #0]
    1e8c:	104a      	asrs	r2, r1, #1
    1e8e:	d004      	beq.n	1e9a <_ZNSt6vectorItSaItEE13_M_insert_auxEN9__gnu_cxx17__normal_iteratorIPtS1_EERKt+0x32>
    1e90:	0052      	lsls	r2, r2, #1
    1e92:	1a98      	subs	r0, r3, r2
    1e94:	4629      	mov	r1, r5
    1e96:	f005 f82b 	bl	6ef0 <memmove>
    1e9a:	802c      	strh	r4, [r5, #0]
    1e9c:	b003      	add	sp, #12
    1e9e:	e8bd 83f0 	ldmia.w	sp!, {r4, r5, r6, r7, r8, r9, pc}
    1ea2:	6821      	ldr	r1, [r4, #0]
    1ea4:	1a5e      	subs	r6, r3, r1
    1ea6:	1077      	asrs	r7, r6, #1
    1ea8:	d036      	beq.n	1f18 <_ZNSt6vectorItSaItEE13_M_insert_auxEN9__gnu_cxx17__normal_iteratorIPtS1_EERKt+0xb0>
    1eaa:	007e      	lsls	r6, r7, #1
    1eac:	42b7      	cmp	r7, r6
    1eae:	d938      	bls.n	1f22 <_ZNSt6vectorItSaItEE13_M_insert_auxEN9__gnu_cxx17__normal_iteratorIPtS1_EERKt+0xba>
    1eb0:	1a69      	subs	r1, r5, r1
    1eb2:	104f      	asrs	r7, r1, #1
    1eb4:	f06f 0801 	mvn.w	r8, #1
    1eb8:	4640      	mov	r0, r8
    1eba:	9201      	str	r2, [sp, #4]
    1ebc:	f002 fd02 	bl	48c4 <_Znwj>
    1ec0:	6821      	ldr	r1, [r4, #0]
    1ec2:	9a01      	ldr	r2, [sp, #4]
    1ec4:	4606      	mov	r6, r0
    1ec6:	1a68      	subs	r0, r5, r1
    1ec8:	eb06 0347 	add.w	r3, r6, r7, lsl #1
    1ecc:	b113      	cbz	r3, 1ed4 <_ZNSt6vectorItSaItEE13_M_insert_auxEN9__gnu_cxx17__normal_iteratorIPtS1_EERKt+0x6c>
    1ece:	8812      	ldrh	r2, [r2, #0]
    1ed0:	f826 2017 	strh.w	r2, [r6, r7, lsl #1]
    1ed4:	ea5f 0960 	movs.w	r9, r0, asr #1
    1ed8:	d005      	beq.n	1ee6 <_ZNSt6vectorItSaItEE13_M_insert_auxEN9__gnu_cxx17__normal_iteratorIPtS1_EERKt+0x7e>
    1eda:	ea4f 0949 	mov.w	r9, r9, lsl #1
    1ede:	4630      	mov	r0, r6
    1ee0:	464a      	mov	r2, r9
    1ee2:	f005 f805 	bl	6ef0 <memmove>
    1ee6:	6861      	ldr	r1, [r4, #4]
    1ee8:	eb06 0709 	add.w	r7, r6, r9
    1eec:	1b48      	subs	r0, r1, r5
    1eee:	f107 0902 	add.w	r9, r7, #2
    1ef2:	1047      	asrs	r7, r0, #1
    1ef4:	d005      	beq.n	1f02 <_ZNSt6vectorItSaItEE13_M_insert_auxEN9__gnu_cxx17__normal_iteratorIPtS1_EERKt+0x9a>
    1ef6:	007f      	lsls	r7, r7, #1
    1ef8:	4648      	mov	r0, r9
    1efa:	4629      	mov	r1, r5
    1efc:	463a      	mov	r2, r7
    1efe:	f004 fff7 	bl	6ef0 <memmove>
    1f02:	6820      	ldr	r0, [r4, #0]
    1f04:	444f      	add	r7, r9
    1f06:	b108      	cbz	r0, 1f0c <_ZNSt6vectorItSaItEE13_M_insert_auxEN9__gnu_cxx17__normal_iteratorIPtS1_EERKt+0xa4>
    1f08:	f002 fcd8 	bl	48bc <_ZdlPv>
    1f0c:	eb06 0308 	add.w	r3, r6, r8
    1f10:	e884 00c0 	stmia.w	r4, {r6, r7}
    1f14:	60a3      	str	r3, [r4, #8]
    1f16:	e7c1      	b.n	1e9c <_ZNSt6vectorItSaItEE13_M_insert_auxEN9__gnu_cxx17__normal_iteratorIPtS1_EERKt+0x34>
    1f18:	1a6b      	subs	r3, r5, r1
    1f1a:	105f      	asrs	r7, r3, #1
    1f1c:	f04f 0802 	mov.w	r8, #2
    1f20:	e7ca      	b.n	1eb8 <_ZNSt6vectorItSaItEE13_M_insert_auxEN9__gnu_cxx17__normal_iteratorIPtS1_EERKt+0x50>
    1f22:	2e00      	cmp	r6, #0
    1f24:	dbc4      	blt.n	1eb0 <_ZNSt6vectorItSaItEE13_M_insert_auxEN9__gnu_cxx17__normal_iteratorIPtS1_EERKt+0x48>
    1f26:	1a68      	subs	r0, r5, r1
    1f28:	ea4f 0887 	mov.w	r8, r7, lsl #2
    1f2c:	1047      	asrs	r7, r0, #1
    1f2e:	2e00      	cmp	r6, #0
    1f30:	d0ca      	beq.n	1ec8 <_ZNSt6vectorItSaItEE13_M_insert_auxEN9__gnu_cxx17__normal_iteratorIPtS1_EERKt+0x60>
    1f32:	e7c1      	b.n	1eb8 <_ZNSt6vectorItSaItEE13_M_insert_auxEN9__gnu_cxx17__normal_iteratorIPtS1_EERKt+0x50>

00001f34 <_Z13get_checksumsSs>:
    1f34:	e92d 41f0 	stmdb	sp!, {r4, r5, r6, r7, r8, lr}
    1f38:	2201      	movs	r2, #1
    1f3a:	4606      	mov	r6, r0
    1f3c:	460d      	mov	r5, r1
    1f3e:	b084      	sub	sp, #16
    1f40:	4608      	mov	r0, r1
    1f42:	4939      	ldr	r1, [pc, #228]	; (2028 <_Z13get_checksumsSs+0xf4>)
    1f44:	f003 f94a 	bl	51dc <_ZNSs6appendEPKcj>
    1f48:	4601      	mov	r1, r0
    1f4a:	4628      	mov	r0, r5
    1f4c:	f003 f906 	bl	515c <_ZNSs6assignERKSs>
    1f50:	682b      	ldr	r3, [r5, #0]
    1f52:	2400      	movs	r4, #0
    1f54:	f853 0c0c 	ldr.w	r0, [r3, #-12]
    1f58:	6034      	str	r4, [r6, #0]
    1f5a:	2801      	cmp	r0, #1
    1f5c:	6074      	str	r4, [r6, #4]
    1f5e:	60b4      	str	r4, [r6, #8]
    1f60:	d03e      	beq.n	1fe0 <_Z13get_checksumsSs+0xac>
    1f62:	2302      	movs	r3, #2
    1f64:	4628      	mov	r0, r5
    1f66:	4931      	ldr	r1, [pc, #196]	; (202c <_Z13get_checksumsSs+0xf8>)
    1f68:	4622      	mov	r2, r4
    1f6a:	f002 ffea 	bl	4f42 <_ZNKSs13find_first_ofEPKcjj>
    1f6e:	f8df 80c4 	ldr.w	r8, [pc, #196]	; 2034 <_Z13get_checksumsSs+0x100>
    1f72:	4603      	mov	r3, r0
    1f74:	4607      	mov	r7, r0
    1f76:	e00c      	b.n	1f92 <_Z13get_checksumsSs+0x5e>
    1f78:	2302      	movs	r3, #2
    1f7a:	492c      	ldr	r1, [pc, #176]	; (202c <_Z13get_checksumsSs+0xf8>)
    1f7c:	4628      	mov	r0, r5
    1f7e:	4622      	mov	r2, r4
    1f80:	f002 ffdf 	bl	4f42 <_ZNKSs13find_first_ofEPKcjj>
    1f84:	6829      	ldr	r1, [r5, #0]
    1f86:	4607      	mov	r7, r0
    1f88:	1b03      	subs	r3, r0, r4
    1f8a:	f851 0c0c 	ldr.w	r0, [r1, #-12]
    1f8e:	4284      	cmp	r4, r0
    1f90:	d83b      	bhi.n	200a <_Z13get_checksumsSs+0xd6>
    1f92:	4622      	mov	r2, r4
    1f94:	4629      	mov	r1, r5
    1f96:	a802      	add	r0, sp, #8
    1f98:	f003 f980 	bl	529c <_ZNSsC1ERKSsjj>
    1f9c:	a902      	add	r1, sp, #8
    1f9e:	a803      	add	r0, sp, #12
    1fa0:	f003 f8f1 	bl	5186 <_ZNSsC1ERKSs>
    1fa4:	a803      	add	r0, sp, #12
    1fa6:	f7ff ff13 	bl	1dd0 <_Z12get_checksumSs>
    1faa:	6871      	ldr	r1, [r6, #4]
    1fac:	68b2      	ldr	r2, [r6, #8]
    1fae:	f8ad 0006 	strh.w	r0, [sp, #6]
    1fb2:	4291      	cmp	r1, r2
    1fb4:	d018      	beq.n	1fe8 <_Z13get_checksumsSs+0xb4>
    1fb6:	b101      	cbz	r1, 1fba <_Z13get_checksumsSs+0x86>
    1fb8:	8008      	strh	r0, [r1, #0]
    1fba:	3102      	adds	r1, #2
    1fbc:	6071      	str	r1, [r6, #4]
    1fbe:	9c03      	ldr	r4, [sp, #12]
    1fc0:	f1a4 000c 	sub.w	r0, r4, #12
    1fc4:	4540      	cmp	r0, r8
    1fc6:	d115      	bne.n	1ff4 <_Z13get_checksumsSs+0xc0>
    1fc8:	9b02      	ldr	r3, [sp, #8]
    1fca:	1c7c      	adds	r4, r7, #1
    1fcc:	f1a3 000c 	sub.w	r0, r3, #12
    1fd0:	4540      	cmp	r0, r8
    1fd2:	d11d      	bne.n	2010 <_Z13get_checksumsSs+0xdc>
    1fd4:	6828      	ldr	r0, [r5, #0]
    1fd6:	f850 3c0c 	ldr.w	r3, [r0, #-12]
    1fda:	1e5a      	subs	r2, r3, #1
    1fdc:	42a2      	cmp	r2, r4
    1fde:	d8cb      	bhi.n	1f78 <_Z13get_checksumsSs+0x44>
    1fe0:	4630      	mov	r0, r6
    1fe2:	b004      	add	sp, #16
    1fe4:	e8bd 81f0 	ldmia.w	sp!, {r4, r5, r6, r7, r8, pc}
    1fe8:	4630      	mov	r0, r6
    1fea:	f10d 0206 	add.w	r2, sp, #6
    1fee:	f7ff ff3b 	bl	1e68 <_ZNSt6vectorItSaItEE13_M_insert_auxEN9__gnu_cxx17__normal_iteratorIPtS1_EERKt>
    1ff2:	e7e4      	b.n	1fbe <_Z13get_checksumsSs+0x8a>
    1ff4:	f854 3c04 	ldr.w	r3, [r4, #-4]
    1ff8:	1e5a      	subs	r2, r3, #1
    1ffa:	2b00      	cmp	r3, #0
    1ffc:	f844 2c04 	str.w	r2, [r4, #-4]
    2000:	dce2      	bgt.n	1fc8 <_Z13get_checksumsSs+0x94>
    2002:	a901      	add	r1, sp, #4
    2004:	f003 f806 	bl	5014 <_ZNSs4_Rep10_M_destroyERKSaIcE>
    2008:	e7de      	b.n	1fc8 <_Z13get_checksumsSs+0x94>
    200a:	4809      	ldr	r0, [pc, #36]	; (2030 <_Z13get_checksumsSs+0xfc>)
    200c:	f002 ff4d 	bl	4eaa <_ZSt20__throw_out_of_rangePKc>
    2010:	f853 2c04 	ldr.w	r2, [r3, #-4]
    2014:	1e51      	subs	r1, r2, #1
    2016:	2a00      	cmp	r2, #0
    2018:	f843 1c04 	str.w	r1, [r3, #-4]
    201c:	dcda      	bgt.n	1fd4 <_Z13get_checksumsSs+0xa0>
    201e:	a901      	add	r1, sp, #4
    2020:	f002 fff8 	bl	5014 <_ZNSs4_Rep10_M_destroyERKSaIcE>
    2024:	e7d6      	b.n	1fd4 <_Z13get_checksumsSs+0xa0>
    2026:	bf00      	nop
    2028:	00008e80 	.word	0x00008e80
    202c:	00008ea0 	.word	0x00008ea0
    2030:	00008e84 	.word	0x00008e84
    2034:	10000964 	.word	0x10000964

00002038 <_ZN6Config16on_module_loadedEv>:
    2038:	4770      	bx	lr
    203a:	bf00      	nop

0000203c <_ZN6Config24on_console_line_receivedEPv>:
    203c:	4770      	bx	lr
    203e:	bf00      	nop

00002040 <_ZN6Config18config_cache_clearEv>:
    2040:	b570      	push	{r4, r5, r6, lr}
    2042:	68c2      	ldr	r2, [r0, #12]
    2044:	4605      	mov	r5, r0
    2046:	6880      	ldr	r0, [r0, #8]
    2048:	b082      	sub	sp, #8
    204a:	4290      	cmp	r0, r2
    204c:	d01a      	beq.n	2084 <_ZN6Config18config_cache_clearEv+0x44>
    204e:	4e1b      	ldr	r6, [pc, #108]	; (20bc <_ZN6Config18config_cache_clearEv+0x7c>)
    2050:	f852 4c04 	ldr.w	r4, [r2, #-4]
    2054:	b18c      	cbz	r4, 207a <_ZN6Config18config_cache_clearEv+0x3a>
    2056:	6a23      	ldr	r3, [r4, #32]
    2058:	f1a3 000c 	sub.w	r0, r3, #12
    205c:	42b0      	cmp	r0, r6
    205e:	d116      	bne.n	208e <_ZN6Config18config_cache_clearEv+0x4e>
    2060:	6860      	ldr	r0, [r4, #4]
    2062:	b108      	cbz	r0, 2068 <_ZN6Config18config_cache_clearEv+0x28>
    2064:	f002 fc2a 	bl	48bc <_ZdlPv>
    2068:	6823      	ldr	r3, [r4, #0]
    206a:	f1a3 000c 	sub.w	r0, r3, #12
    206e:	42b0      	cmp	r0, r6
    2070:	d118      	bne.n	20a4 <_ZN6Config18config_cache_clearEv+0x64>
    2072:	4620      	mov	r0, r4
    2074:	f002 fc22 	bl	48bc <_ZdlPv>
    2078:	68a8      	ldr	r0, [r5, #8]
    207a:	68eb      	ldr	r3, [r5, #12]
    207c:	1f1a      	subs	r2, r3, #4
    207e:	4282      	cmp	r2, r0
    2080:	60ea      	str	r2, [r5, #12]
    2082:	d1e5      	bne.n	2050 <_ZN6Config18config_cache_clearEv+0x10>
    2084:	2100      	movs	r1, #0
    2086:	f885 1020 	strb.w	r1, [r5, #32]
    208a:	b002      	add	sp, #8
    208c:	bd70      	pop	{r4, r5, r6, pc}
    208e:	f853 2c04 	ldr.w	r2, [r3, #-4]
    2092:	1e51      	subs	r1, r2, #1
    2094:	2a00      	cmp	r2, #0
    2096:	f843 1c04 	str.w	r1, [r3, #-4]
    209a:	dce1      	bgt.n	2060 <_ZN6Config18config_cache_clearEv+0x20>
    209c:	a901      	add	r1, sp, #4
    209e:	f002 ffb9 	bl	5014 <_ZNSs4_Rep10_M_destroyERKSaIcE>
    20a2:	e7dd      	b.n	2060 <_ZN6Config18config_cache_clearEv+0x20>
    20a4:	f853 2c04 	ldr.w	r2, [r3, #-4]
    20a8:	1e51      	subs	r1, r2, #1
    20aa:	2a00      	cmp	r2, #0
    20ac:	f843 1c04 	str.w	r1, [r3, #-4]
    20b0:	dcdf      	bgt.n	2072 <_ZN6Config18config_cache_clearEv+0x32>
    20b2:	a901      	add	r1, sp, #4
    20b4:	f002 ffae 	bl	5014 <_ZNSs4_Rep10_M_destroyERKSaIcE>
    20b8:	e7db      	b.n	2072 <_ZN6Config18config_cache_clearEv+0x32>
    20ba:	bf00      	nop
    20bc:	10000964 	.word	0x10000964

000020c0 <_ZNSt6vectorItSaItEEaSERKS1_>:
    20c0:	4281      	cmp	r1, r0
    20c2:	e92d 41f0 	stmdb	sp!, {r4, r5, r6, r7, r8, lr}
    20c6:	4604      	mov	r4, r0
    20c8:	460e      	mov	r6, r1
    20ca:	d011      	beq.n	20f0 <_ZNSt6vectorItSaItEEaSERKS1_+0x30>
    20cc:	684b      	ldr	r3, [r1, #4]
    20ce:	680f      	ldr	r7, [r1, #0]
    20d0:	6800      	ldr	r0, [r0, #0]
    20d2:	68a2      	ldr	r2, [r4, #8]
    20d4:	1bdd      	subs	r5, r3, r7
    20d6:	106d      	asrs	r5, r5, #1
    20d8:	1a11      	subs	r1, r2, r0
    20da:	ebb5 0f61 	cmp.w	r5, r1, asr #1
    20de:	d816      	bhi.n	210e <_ZNSt6vectorItSaItEEaSERKS1_+0x4e>
    20e0:	6862      	ldr	r2, [r4, #4]
    20e2:	1a11      	subs	r1, r2, r0
    20e4:	1049      	asrs	r1, r1, #1
    20e6:	428d      	cmp	r5, r1
    20e8:	d805      	bhi.n	20f6 <_ZNSt6vectorItSaItEEaSERKS1_+0x36>
    20ea:	bb65      	cbnz	r5, 2146 <_ZNSt6vectorItSaItEEaSERKS1_+0x86>
    20ec:	1945      	adds	r5, r0, r5
    20ee:	6065      	str	r5, [r4, #4]
    20f0:	4620      	mov	r0, r4
    20f2:	e8bd 81f0 	ldmia.w	sp!, {r4, r5, r6, r7, r8, pc}
    20f6:	468c      	mov	r12, r1
    20f8:	eb07 0141 	add.w	r1, r7, r1, lsl #1
    20fc:	f1bc 0f00 	cmp.w	r12, #0
    2100:	d128      	bne.n	2154 <_ZNSt6vectorItSaItEEaSERKS1_+0x94>
    2102:	1a5b      	subs	r3, r3, r1
    2104:	105b      	asrs	r3, r3, #1
    2106:	d116      	bne.n	2136 <_ZNSt6vectorItSaItEEaSERKS1_+0x76>
    2108:	eb00 0545 	add.w	r5, r0, r5, lsl #1
    210c:	e7ef      	b.n	20ee <_ZNSt6vectorItSaItEEaSERKS1_+0x2e>
    210e:	2d00      	cmp	r5, #0
    2110:	d036      	beq.n	2180 <_ZNSt6vectorItSaItEEaSERKS1_+0xc0>
    2112:	2d00      	cmp	r5, #0
    2114:	db37      	blt.n	2186 <_ZNSt6vectorItSaItEEaSERKS1_+0xc6>
    2116:	006e      	lsls	r6, r5, #1
    2118:	4630      	mov	r0, r6
    211a:	f002 fbd3 	bl	48c4 <_Znwj>
    211e:	4680      	mov	r8, r0
    2120:	bb4d      	cbnz	r5, 2176 <_ZNSt6vectorItSaItEEaSERKS1_+0xb6>
    2122:	6820      	ldr	r0, [r4, #0]
    2124:	b108      	cbz	r0, 212a <_ZNSt6vectorItSaItEEaSERKS1_+0x6a>
    2126:	f002 fbc9 	bl	48bc <_ZdlPv>
    212a:	eb08 0506 	add.w	r5, r8, r6
    212e:	f8c4 8000 	str.w	r8, [r4]
    2132:	60a5      	str	r5, [r4, #8]
    2134:	e7db      	b.n	20ee <_ZNSt6vectorItSaItEEaSERKS1_+0x2e>
    2136:	4610      	mov	r0, r2
    2138:	005a      	lsls	r2, r3, #1
    213a:	f004 fed9 	bl	6ef0 <memmove>
    213e:	6820      	ldr	r0, [r4, #0]
    2140:	eb00 0545 	add.w	r5, r0, r5, lsl #1
    2144:	e7d3      	b.n	20ee <_ZNSt6vectorItSaItEEaSERKS1_+0x2e>
    2146:	006d      	lsls	r5, r5, #1
    2148:	4639      	mov	r1, r7
    214a:	462a      	mov	r2, r5
    214c:	f004 fed0 	bl	6ef0 <memmove>
    2150:	6820      	ldr	r0, [r4, #0]
    2152:	e7cb      	b.n	20ec <_ZNSt6vectorItSaItEEaSERKS1_+0x2c>
    2154:	4639      	mov	r1, r7
    2156:	ea4f 024c 	mov.w	r2, r12, lsl #1
    215a:	f004 fec9 	bl	6ef0 <memmove>
    215e:	e894 0005 	ldmia.w	r4, {r0, r2}
    2162:	6837      	ldr	r7, [r6, #0]
    2164:	1a13      	subs	r3, r2, r0
    2166:	f023 0101 	bic.w	r1, r3, #1
    216a:	6873      	ldr	r3, [r6, #4]
    216c:	1879      	adds	r1, r7, r1
    216e:	1a5b      	subs	r3, r3, r1
    2170:	105b      	asrs	r3, r3, #1
    2172:	d0c9      	beq.n	2108 <_ZNSt6vectorItSaItEEaSERKS1_+0x48>
    2174:	e7df      	b.n	2136 <_ZNSt6vectorItSaItEEaSERKS1_+0x76>
    2176:	4639      	mov	r1, r7
    2178:	4632      	mov	r2, r6
    217a:	f004 feb9 	bl	6ef0 <memmove>
    217e:	e7d0      	b.n	2122 <_ZNSt6vectorItSaItEEaSERKS1_+0x62>
    2180:	462e      	mov	r6, r5
    2182:	46a8      	mov	r8, r5
    2184:	e7cd      	b.n	2122 <_ZNSt6vectorItSaItEEaSERKS1_+0x62>
    2186:	f002 fe87 	bl	4e98 <_ZSt17__throw_bad_allocv>
    218a:	bf00      	nop

0000218c <_ZNSt6vectorIP11ConfigValueSaIS1_EE13_M_insert_auxEN9__gnu_cxx17__normal_iteratorIPS1_S3_EERKS1_>:
    218c:	e92d 43f0 	stmdb	sp!, {r4, r5, r6, r7, r8, r9, lr}
    2190:	6843      	ldr	r3, [r0, #4]
    2192:	4604      	mov	r4, r0
    2194:	6880      	ldr	r0, [r0, #8]
    2196:	b083      	sub	sp, #12
    2198:	4283      	cmp	r3, r0
    219a:	460d      	mov	r5, r1
    219c:	d014      	beq.n	21c8 <_ZNSt6vectorIP11ConfigValueSaIS1_EE13_M_insert_auxEN9__gnu_cxx17__normal_iteratorIPS1_S3_EERKS1_+0x3c>
    219e:	b11b      	cbz	r3, 21a8 <_ZNSt6vectorIP11ConfigValueSaIS1_EE13_M_insert_auxEN9__gnu_cxx17__normal_iteratorIPS1_S3_EERKS1_+0x1c>
    21a0:	f853 0c04 	ldr.w	r0, [r3, #-4]
    21a4:	6018      	str	r0, [r3, #0]
    21a6:	6863      	ldr	r3, [r4, #4]
    21a8:	1d18      	adds	r0, r3, #4
    21aa:	1f19      	subs	r1, r3, #4
    21ac:	6060      	str	r0, [r4, #4]
    21ae:	1b48      	subs	r0, r1, r5
    21b0:	6814      	ldr	r4, [r2, #0]
    21b2:	1082      	asrs	r2, r0, #2
    21b4:	d004      	beq.n	21c0 <_ZNSt6vectorIP11ConfigValueSaIS1_EE13_M_insert_auxEN9__gnu_cxx17__normal_iteratorIPS1_S3_EERKS1_+0x34>
    21b6:	0092      	lsls	r2, r2, #2
    21b8:	1a98      	subs	r0, r3, r2
    21ba:	4629      	mov	r1, r5
    21bc:	f004 fe98 	bl	6ef0 <memmove>
    21c0:	602c      	str	r4, [r5, #0]
    21c2:	b003      	add	sp, #12
    21c4:	e8bd 83f0 	ldmia.w	sp!, {r4, r5, r6, r7, r8, r9, pc}
    21c8:	6821      	ldr	r1, [r4, #0]
    21ca:	1a5b      	subs	r3, r3, r1
    21cc:	109f      	asrs	r7, r3, #2
    21ce:	d037      	beq.n	2240 <_ZNSt6vectorIP11ConfigValueSaIS1_EE13_M_insert_auxEN9__gnu_cxx17__normal_iteratorIPS1_S3_EERKS1_+0xb4>
    21d0:	007e      	lsls	r6, r7, #1
    21d2:	42b7      	cmp	r7, r6
    21d4:	ebc1 0005 	rsb	r0, r1, r5
    21d8:	d937      	bls.n	224a <_ZNSt6vectorIP11ConfigValueSaIS1_EE13_M_insert_auxEN9__gnu_cxx17__normal_iteratorIPS1_S3_EERKS1_+0xbe>
    21da:	1087      	asrs	r7, r0, #2
    21dc:	f06f 0803 	mvn.w	r8, #3
    21e0:	4640      	mov	r0, r8
    21e2:	9201      	str	r2, [sp, #4]
    21e4:	f002 fb6e 	bl	48c4 <_Znwj>
    21e8:	9a01      	ldr	r2, [sp, #4]
    21ea:	4606      	mov	r6, r0
    21ec:	eb06 0187 	add.w	r1, r6, r7, lsl #2
    21f0:	b111      	cbz	r1, 21f8 <_ZNSt6vectorIP11ConfigValueSaIS1_EE13_M_insert_auxEN9__gnu_cxx17__normal_iteratorIPS1_S3_EERKS1_+0x6c>
    21f2:	6812      	ldr	r2, [r2, #0]
    21f4:	f846 2027 	str.w	r2, [r6, r7, lsl #2]
    21f8:	6821      	ldr	r1, [r4, #0]
    21fa:	1a6b      	subs	r3, r5, r1
    21fc:	ea5f 09a3 	movs.w	r9, r3, asr #2
    2200:	d005      	beq.n	220e <_ZNSt6vectorIP11ConfigValueSaIS1_EE13_M_insert_auxEN9__gnu_cxx17__normal_iteratorIPS1_S3_EERKS1_+0x82>
    2202:	ea4f 0989 	mov.w	r9, r9, lsl #2
    2206:	4630      	mov	r0, r6
    2208:	464a      	mov	r2, r9
    220a:	f004 fe71 	bl	6ef0 <memmove>
    220e:	6860      	ldr	r0, [r4, #4]
    2210:	eb06 0709 	add.w	r7, r6, r9
    2214:	1b41      	subs	r1, r0, r5
    2216:	f107 0904 	add.w	r9, r7, #4
    221a:	108f      	asrs	r7, r1, #2
    221c:	d005      	beq.n	222a <_ZNSt6vectorIP11ConfigValueSaIS1_EE13_M_insert_auxEN9__gnu_cxx17__normal_iteratorIPS1_S3_EERKS1_+0x9e>
    221e:	00bf      	lsls	r7, r7, #2
    2220:	4648      	mov	r0, r9
    2222:	4629      	mov	r1, r5
    2224:	463a      	mov	r2, r7
    2226:	f004 fe63 	bl	6ef0 <memmove>
    222a:	6820      	ldr	r0, [r4, #0]
    222c:	444f      	add	r7, r9
    222e:	b108      	cbz	r0, 2234 <_ZNSt6vectorIP11ConfigValueSaIS1_EE13_M_insert_auxEN9__gnu_cxx17__normal_iteratorIPS1_S3_EERKS1_+0xa8>
    2230:	f002 fb44 	bl	48bc <_ZdlPv>
    2234:	eb06 0208 	add.w	r2, r6, r8
    2238:	e884 00c0 	stmia.w	r4, {r6, r7}
    223c:	60a2      	str	r2, [r4, #8]
    223e:	e7c0      	b.n	21c2 <_ZNSt6vectorIP11ConfigValueSaIS1_EE13_M_insert_auxEN9__gnu_cxx17__normal_iteratorIPS1_S3_EERKS1_+0x36>
    2240:	1a6e      	subs	r6, r5, r1
    2242:	10b7      	asrs	r7, r6, #2
    2244:	f04f 0804 	mov.w	r8, #4
    2248:	e7ca      	b.n	21e0 <_ZNSt6vectorIP11ConfigValueSaIS1_EE13_M_insert_auxEN9__gnu_cxx17__normal_iteratorIPS1_S3_EERKS1_+0x54>
    224a:	f1b6 4f80 	cmp.w	r6, #1073741824	; 0x40000000
    224e:	d2c4      	bcs.n	21da <_ZNSt6vectorIP11ConfigValueSaIS1_EE13_M_insert_auxEN9__gnu_cxx17__normal_iteratorIPS1_S3_EERKS1_+0x4e>
    2250:	ea4f 08c7 	mov.w	r8, r7, lsl #3
    2254:	1087      	asrs	r7, r0, #2
    2256:	2e00      	cmp	r6, #0
    2258:	d0c8      	beq.n	21ec <_ZNSt6vectorIP11ConfigValueSaIS1_EE13_M_insert_auxEN9__gnu_cxx17__normal_iteratorIPS1_S3_EERKS1_+0x60>
    225a:	e7c1      	b.n	21e0 <_ZNSt6vectorIP11ConfigValueSaIS1_EE13_M_insert_auxEN9__gnu_cxx17__normal_iteratorIPS1_S3_EERKS1_+0x54>

0000225c <_ZN6Config17config_cache_loadEv>:
    225c:	b570      	push	{r4, r5, r6, lr}
    225e:	b082      	sub	sp, #8
    2260:	4605      	mov	r5, r0
    2262:	f7ff feed 	bl	2040 <_ZN6Config18config_cache_clearEv>
    2266:	2028      	movs	r0, #40	; 0x28
    2268:	f002 fb2c 	bl	48c4 <_Znwj>
    226c:	68e9      	ldr	r1, [r5, #12]
    226e:	692c      	ldr	r4, [r5, #16]
    2270:	4a18      	ldr	r2, [pc, #96]	; (22d4 <_ZN6Config17config_cache_loadEv+0x78>)
    2272:	2300      	movs	r3, #0
    2274:	42a1      	cmp	r1, r4
    2276:	e880 000c 	stmia.w	r0, {r2, r3}
    227a:	6083      	str	r3, [r0, #8]
    227c:	60c3      	str	r3, [r0, #12]
    227e:	6202      	str	r2, [r0, #32]
    2280:	7483      	strb	r3, [r0, #18]
    2282:	74c3      	strb	r3, [r0, #19]
    2284:	9001      	str	r0, [sp, #4]
    2286:	d01e      	beq.n	22c6 <_ZN6Config17config_cache_loadEv+0x6a>
    2288:	b109      	cbz	r1, 228e <_ZN6Config17config_cache_loadEv+0x32>
    228a:	6008      	str	r0, [r1, #0]
    228c:	68e9      	ldr	r1, [r5, #12]
    228e:	3104      	adds	r1, #4
    2290:	60e9      	str	r1, [r5, #12]
    2292:	69aa      	ldr	r2, [r5, #24]
    2294:	6969      	ldr	r1, [r5, #20]
    2296:	1a50      	subs	r0, r2, r1
    2298:	0882      	lsrs	r2, r0, #2
    229a:	d00f      	beq.n	22bc <_ZN6Config17config_cache_loadEv+0x60>
    229c:	2400      	movs	r4, #0
    229e:	f105 0608 	add.w	r6, r5, #8
    22a2:	f851 0024 	ldr.w	r0, [r1, r4, lsl #2]
    22a6:	4631      	mov	r1, r6
    22a8:	6803      	ldr	r3, [r0, #0]
    22aa:	3401      	adds	r4, #1
    22ac:	681a      	ldr	r2, [r3, #0]
    22ae:	4790      	blx	r2
    22b0:	6969      	ldr	r1, [r5, #20]
    22b2:	69a8      	ldr	r0, [r5, #24]
    22b4:	1a43      	subs	r3, r0, r1
    22b6:	ebb4 0fa3 	cmp.w	r4, r3, asr #2
    22ba:	d3f2      	bcc.n	22a2 <_ZN6Config17config_cache_loadEv+0x46>
    22bc:	2201      	movs	r2, #1
    22be:	f885 2020 	strb.w	r2, [r5, #32]
    22c2:	b002      	add	sp, #8
    22c4:	bd70      	pop	{r4, r5, r6, pc}
    22c6:	f105 0008 	add.w	r0, r5, #8
    22ca:	aa01      	add	r2, sp, #4
    22cc:	f7ff ff5e 	bl	218c <_ZNSt6vectorIP11ConfigValueSaIS1_EE13_M_insert_auxEN9__gnu_cxx17__normal_iteratorIPS1_S3_EERKS1_>
    22d0:	e7df      	b.n	2292 <_ZN6Config17config_cache_loadEv+0x36>
    22d2:	bf00      	nop
    22d4:	10000970 	.word	0x10000970

000022d8 <_ZNSt6vectorIP12ConfigSourceSaIS1_EE13_M_insert_auxEN9__gnu_cxx17__normal_iteratorIPS1_S3_EERKS1_>:
    22d8:	e92d 43f0 	stmdb	sp!, {r4, r5, r6, r7, r8, r9, lr}
    22dc:	6843      	ldr	r3, [r0, #4]
    22de:	4604      	mov	r4, r0
    22e0:	6880      	ldr	r0, [r0, #8]
    22e2:	b083      	sub	sp, #12
    22e4:	4283      	cmp	r3, r0
    22e6:	460d      	mov	r5, r1
    22e8:	d014      	beq.n	2314 <_ZNSt6vectorIP12ConfigSourceSaIS1_EE13_M_insert_auxEN9__gnu_cxx17__normal_iteratorIPS1_S3_EERKS1_+0x3c>
    22ea:	b11b      	cbz	r3, 22f4 <_ZNSt6vectorIP12ConfigSourceSaIS1_EE13_M_insert_auxEN9__gnu_cxx17__normal_iteratorIPS1_S3_EERKS1_+0x1c>
    22ec:	f853 0c04 	ldr.w	r0, [r3, #-4]
    22f0:	6018      	str	r0, [r3, #0]
    22f2:	6863      	ldr	r3, [r4, #4]
    22f4:	1d18      	adds	r0, r3, #4
    22f6:	1f19      	subs	r1, r3, #4
    22f8:	6060      	str	r0, [r4, #4]
    22fa:	1b48      	subs	r0, r1, r5
    22fc:	6814      	ldr	r4, [r2, #0]
    22fe:	1082      	asrs	r2, r0, #2
    2300:	d004      	beq.n	230c <_ZNSt6vectorIP12ConfigSourceSaIS1_EE13_M_insert_auxEN9__gnu_cxx17__normal_iteratorIPS1_S3_EERKS1_+0x34>
    2302:	0092      	lsls	r2, r2, #2
    2304:	1a98      	subs	r0, r3, r2
    2306:	4629      	mov	r1, r5
    2308:	f004 fdf2 	bl	6ef0 <memmove>
    230c:	602c      	str	r4, [r5, #0]
    230e:	b003      	add	sp, #12
    2310:	e8bd 83f0 	ldmia.w	sp!, {r4, r5, r6, r7, r8, r9, pc}
    2314:	6821      	ldr	r1, [r4, #0]
    2316:	1a5b      	subs	r3, r3, r1
    2318:	109f      	asrs	r7, r3, #2
    231a:	d037      	beq.n	238c <_ZNSt6vectorIP12ConfigSourceSaIS1_EE13_M_insert_auxEN9__gnu_cxx17__normal_iteratorIPS1_S3_EERKS1_+0xb4>
    231c:	007e      	lsls	r6, r7, #1
    231e:	42b7      	cmp	r7, r6
    2320:	ebc1 0005 	rsb	r0, r1, r5
    2324:	d937      	bls.n	2396 <_ZNSt6vectorIP12ConfigSourceSaIS1_EE13_M_insert_auxEN9__gnu_cxx17__normal_iteratorIPS1_S3_EERKS1_+0xbe>
    2326:	1087      	asrs	r7, r0, #2
    2328:	f06f 0803 	mvn.w	r8, #3
    232c:	4640      	mov	r0, r8
    232e:	9201      	str	r2, [sp, #4]
    2330:	f002 fac8 	bl	48c4 <_Znwj>
    2334:	9a01      	ldr	r2, [sp, #4]
    2336:	4606      	mov	r6, r0
    2338:	eb06 0187 	add.w	r1, r6, r7, lsl #2
    233c:	b111      	cbz	r1, 2344 <_ZNSt6vectorIP12ConfigSourceSaIS1_EE13_M_insert_auxEN9__gnu_cxx17__normal_iteratorIPS1_S3_EERKS1_+0x6c>
    233e:	6812      	ldr	r2, [r2, #0]
    2340:	f846 2027 	str.w	r2, [r6, r7, lsl #2]
    2344:	6821      	ldr	r1, [r4, #0]
    2346:	1a6b      	subs	r3, r5, r1
    2348:	ea5f 09a3 	movs.w	r9, r3, asr #2
    234c:	d005      	beq.n	235a <_ZNSt6vectorIP12ConfigSourceSaIS1_EE13_M_insert_auxEN9__gnu_cxx17__normal_iteratorIPS1_S3_EERKS1_+0x82>
    234e:	ea4f 0989 	mov.w	r9, r9, lsl #2
    2352:	4630      	mov	r0, r6
    2354:	464a      	mov	r2, r9
    2356:	f004 fdcb 	bl	6ef0 <memmove>
    235a:	6860      	ldr	r0, [r4, #4]
    235c:	eb06 0709 	add.w	r7, r6, r9
    2360:	1b41      	subs	r1, r0, r5
    2362:	f107 0904 	add.w	r9, r7, #4
    2366:	108f      	asrs	r7, r1, #2
    2368:	d005      	beq.n	2376 <_ZNSt6vectorIP12ConfigSourceSaIS1_EE13_M_insert_auxEN9__gnu_cxx17__normal_iteratorIPS1_S3_EERKS1_+0x9e>
    236a:	00bf      	lsls	r7, r7, #2
    236c:	4648      	mov	r0, r9
    236e:	4629      	mov	r1, r5
    2370:	463a      	mov	r2, r7
    2372:	f004 fdbd 	bl	6ef0 <memmove>
    2376:	6820      	ldr	r0, [r4, #0]
    2378:	444f      	add	r7, r9
    237a:	b108      	cbz	r0, 2380 <_ZNSt6vectorIP12ConfigSourceSaIS1_EE13_M_insert_auxEN9__gnu_cxx17__normal_iteratorIPS1_S3_EERKS1_+0xa8>
    237c:	f002 fa9e 	bl	48bc <_ZdlPv>
    2380:	eb06 0208 	add.w	r2, r6, r8
    2384:	e884 00c0 	stmia.w	r4, {r6, r7}
    2388:	60a2      	str	r2, [r4, #8]
    238a:	e7c0      	b.n	230e <_ZNSt6vectorIP12ConfigSourceSaIS1_EE13_M_insert_auxEN9__gnu_cxx17__normal_iteratorIPS1_S3_EERKS1_+0x36>
    238c:	1a6e      	subs	r6, r5, r1
    238e:	10b7      	asrs	r7, r6, #2
    2390:	f04f 0804 	mov.w	r8, #4
    2394:	e7ca      	b.n	232c <_ZNSt6vectorIP12ConfigSourceSaIS1_EE13_M_insert_auxEN9__gnu_cxx17__normal_iteratorIPS1_S3_EERKS1_+0x54>
    2396:	f1b6 4f80 	cmp.w	r6, #1073741824	; 0x40000000
    239a:	d2c4      	bcs.n	2326 <_ZNSt6vectorIP12ConfigSourceSaIS1_EE13_M_insert_auxEN9__gnu_cxx17__normal_iteratorIPS1_S3_EERKS1_+0x4e>
    239c:	ea4f 08c7 	mov.w	r8, r7, lsl #3
    23a0:	1087      	asrs	r7, r0, #2
    23a2:	2e00      	cmp	r6, #0
    23a4:	d0c8      	beq.n	2338 <_ZNSt6vectorIP12ConfigSourceSaIS1_EE13_M_insert_auxEN9__gnu_cxx17__normal_iteratorIPS1_S3_EERKS1_+0x60>
    23a6:	e7c1      	b.n	232c <_ZNSt6vectorIP12ConfigSourceSaIS1_EE13_M_insert_auxEN9__gnu_cxx17__normal_iteratorIPS1_S3_EERKS1_+0x54>

000023a8 <_ZN6ConfigC1Ev>:
    23a8:	b530      	push	{r4, r5, lr}
    23aa:	b085      	sub	sp, #20
    23ac:	4604      	mov	r4, r0
    23ae:	f7ff fd09 	bl	1dc4 <_ZN6ModuleC1Ev>
    23b2:	4820      	ldr	r0, [pc, #128]	; (2434 <_ZN6ConfigC1Ev+0x8c>)
    23b4:	2300      	movs	r3, #0
    23b6:	466a      	mov	r2, sp
    23b8:	491f      	ldr	r1, [pc, #124]	; (2438 <_ZN6ConfigC1Ev+0x90>)
    23ba:	60a3      	str	r3, [r4, #8]
    23bc:	60e3      	str	r3, [r4, #12]
    23be:	6123      	str	r3, [r4, #16]
    23c0:	6163      	str	r3, [r4, #20]
    23c2:	61a3      	str	r3, [r4, #24]
    23c4:	61e3      	str	r3, [r4, #28]
    23c6:	f884 3020 	strb.w	r3, [r4, #32]
    23ca:	6020      	str	r0, [r4, #0]
    23cc:	a803      	add	r0, sp, #12
    23ce:	f002 ffa7 	bl	5320 <_ZNSsC1EPKcRKSaIcE>
    23d2:	2010      	movs	r0, #16
    23d4:	f002 fa76 	bl	48c4 <_Znwj>
    23d8:	a903      	add	r1, sp, #12
    23da:	f243 520d 	movw	r2, #13581	; 0x350d
    23de:	4605      	mov	r5, r0
    23e0:	f000 fbcc 	bl	2b7c <_ZN16FileConfigSourceC1ESst>
    23e4:	69a1      	ldr	r1, [r4, #24]
    23e6:	69e2      	ldr	r2, [r4, #28]
    23e8:	9502      	str	r5, [sp, #8]
    23ea:	4291      	cmp	r1, r2
    23ec:	d010      	beq.n	2410 <_ZN6ConfigC1Ev+0x68>
    23ee:	b109      	cbz	r1, 23f4 <_ZN6ConfigC1Ev+0x4c>
    23f0:	600d      	str	r5, [r1, #0]
    23f2:	69a1      	ldr	r1, [r4, #24]
    23f4:	3104      	adds	r1, #4
    23f6:	61a1      	str	r1, [r4, #24]
    23f8:	9b03      	ldr	r3, [sp, #12]
    23fa:	4a10      	ldr	r2, [pc, #64]	; (243c <_ZN6ConfigC1Ev+0x94>)
    23fc:	f1a3 000c 	sub.w	r0, r3, #12
    2400:	4290      	cmp	r0, r2
    2402:	d10b      	bne.n	241c <_ZN6ConfigC1Ev+0x74>
    2404:	4620      	mov	r0, r4
    2406:	f7ff ff29 	bl	225c <_ZN6Config17config_cache_loadEv>
    240a:	4620      	mov	r0, r4
    240c:	b005      	add	sp, #20
    240e:	bd30      	pop	{r4, r5, pc}
    2410:	f104 0014 	add.w	r0, r4, #20
    2414:	aa02      	add	r2, sp, #8
    2416:	f7ff ff5f 	bl	22d8 <_ZNSt6vectorIP12ConfigSourceSaIS1_EE13_M_insert_auxEN9__gnu_cxx17__normal_iteratorIPS1_S3_EERKS1_>
    241a:	e7ed      	b.n	23f8 <_ZN6ConfigC1Ev+0x50>
    241c:	f853 2c04 	ldr.w	r2, [r3, #-4]
    2420:	1e51      	subs	r1, r2, #1
    2422:	2a00      	cmp	r2, #0
    2424:	f843 1c04 	str.w	r1, [r3, #-4]
    2428:	dcec      	bgt.n	2404 <_ZN6ConfigC1Ev+0x5c>
    242a:	a901      	add	r1, sp, #4
    242c:	f002 fdf2 	bl	5014 <_ZNSs4_Rep10_M_destroyERKSaIcE>
    2430:	e7e8      	b.n	2404 <_ZN6ConfigC1Ev+0x5c>
    2432:	bf00      	nop
    2434:	00008ec0 	.word	0x00008ec0
    2438:	00008f10 	.word	0x00008f10
    243c:	10000964 	.word	0x10000964

00002440 <_ZN3AjK9MODSERIAL6__getcEb>:
    2440:	6fc3      	ldr	r3, [r0, #124]	; 0x7c
    2442:	b570      	push	{r4, r5, r6, lr}
    2444:	4604      	mov	r4, r0
    2446:	2b00      	cmp	r3, #0
    2448:	d02b      	beq.n	24a2 <_ZN3AjK9MODSERIAL6__getcEb+0x62>
    244a:	6e42      	ldr	r2, [r0, #100]	; 0x64
    244c:	2a00      	cmp	r2, #0
    244e:	d028      	beq.n	24a2 <_ZN3AjK9MODSERIAL6__getcEb+0x62>
    2450:	2900      	cmp	r1, #0
    2452:	d12e      	bne.n	24b2 <_ZN3AjK9MODSERIAL6__getcEb+0x72>
    2454:	f8d4 0084 	ldr.w	r0, [r4, #132]	; 0x84
    2458:	2800      	cmp	r0, #0
    245a:	d033      	beq.n	24c4 <_ZN3AjK9MODSERIAL6__getcEb+0x84>
    245c:	6f65      	ldr	r5, [r4, #116]	; 0x74
    245e:	5d55      	ldrb	r5, [r2, r5]
    2460:	6f63      	ldr	r3, [r4, #116]	; 0x74
    2462:	1c5a      	adds	r2, r3, #1
    2464:	6762      	str	r2, [r4, #116]	; 0x74
    2466:	6f60      	ldr	r0, [r4, #116]	; 0x74
    2468:	6fe1      	ldr	r1, [r4, #124]	; 0x7c
    246a:	4288      	cmp	r0, r1
    246c:	db01      	blt.n	2472 <_ZN3AjK9MODSERIAL6__getcEb+0x32>
    246e:	2300      	movs	r3, #0
    2470:	6763      	str	r3, [r4, #116]	; 0x74
    2472:	f8d4 2084 	ldr.w	r2, [r4, #132]	; 0x84
    2476:	6fe0      	ldr	r0, [r4, #124]	; 0x7c
    2478:	4282      	cmp	r2, r0
    247a:	d009      	beq.n	2490 <_ZN3AjK9MODSERIAL6__getcEb+0x50>
    247c:	6de1      	ldr	r1, [r4, #92]	; 0x5c
    247e:	4620      	mov	r0, r4
    2480:	790e      	ldrb	r6, [r1, #4]
    2482:	f026 0301 	bic.w	r3, r6, #1
    2486:	710b      	strb	r3, [r1, #4]
    2488:	f000 f8cc 	bl	2624 <_ZN3AjK9MODSERIAL6isr_rxEv>
    248c:	6de2      	ldr	r2, [r4, #92]	; 0x5c
    248e:	7116      	strb	r6, [r2, #4]
    2490:	b672      	cpsid	i
    2492:	f8d4 0084 	ldr.w	r0, [r4, #132]	; 0x84
    2496:	1e41      	subs	r1, r0, #1
    2498:	f8c4 1084 	str.w	r1, [r4, #132]	; 0x84
    249c:	b662      	cpsie	i
    249e:	4628      	mov	r0, r5
    24a0:	bd70      	pop	{r4, r5, r6, pc}
    24a2:	6de5      	ldr	r5, [r4, #92]	; 0x5c
    24a4:	7d2b      	ldrb	r3, [r5, #20]
    24a6:	07da      	lsls	r2, r3, #31
    24a8:	d502      	bpl.n	24b0 <_ZN3AjK9MODSERIAL6__getcEb+0x70>
    24aa:	782d      	ldrb	r5, [r5, #0]
    24ac:	4628      	mov	r0, r5
    24ae:	bd70      	pop	{r4, r5, r6, pc}
    24b0:	e7fe      	b.n	24b0 <_ZN3AjK9MODSERIAL6__getcEb+0x70>
    24b2:	f8d4 1084 	ldr.w	r1, [r4, #132]	; 0x84
    24b6:	2900      	cmp	r1, #0
    24b8:	d1d0      	bne.n	245c <_ZN3AjK9MODSERIAL6__getcEb+0x1c>
    24ba:	f8d4 1084 	ldr.w	r1, [r4, #132]	; 0x84
    24be:	2900      	cmp	r1, #0
    24c0:	d0f7      	beq.n	24b2 <_ZN3AjK9MODSERIAL6__getcEb+0x72>
    24c2:	e7cb      	b.n	245c <_ZN3AjK9MODSERIAL6__getcEb+0x1c>
    24c4:	f04f 35ff 	mov.w	r5, #4294967295	; 0xffffffff
    24c8:	e7f0      	b.n	24ac <_ZN3AjK9MODSERIAL6__getcEb+0x6c>
    24ca:	bf00      	nop

000024cc <_ZN4mbed15FunctionPointer12membercallerIN3AjK9MODSERIALEEEvPvPc>:
    24cc:	b500      	push	{lr}
    24ce:	460b      	mov	r3, r1
    24d0:	b083      	sub	sp, #12
    24d2:	6849      	ldr	r1, [r1, #4]
    24d4:	4602      	mov	r2, r0
    24d6:	6818      	ldr	r0, [r3, #0]
    24d8:	466b      	mov	r3, sp
    24da:	c303      	stmia	r3!, {r0, r1}
    24dc:	460b      	mov	r3, r1
    24de:	07d9      	lsls	r1, r3, #31
    24e0:	d507      	bpl.n	24f2 <_ZN4mbed15FunctionPointer12membercallerIN3AjK9MODSERIALEEEvPvPc+0x26>
    24e2:	1058      	asrs	r0, r3, #1
    24e4:	5811      	ldr	r1, [r2, r0]
    24e6:	1810      	adds	r0, r2, r0
    24e8:	9a00      	ldr	r2, [sp, #0]
    24ea:	5889      	ldr	r1, [r1, r2]
    24ec:	4788      	blx	r1
    24ee:	b003      	add	sp, #12
    24f0:	bd00      	pop	{pc}
    24f2:	4601      	mov	r1, r0
    24f4:	eb02 0063 	add.w	r0, r2, r3, asr #1
    24f8:	e7f8      	b.n	24ec <_ZN4mbed15FunctionPointer12membercallerIN3AjK9MODSERIALEEEvPvPc+0x20>
    24fa:	bf00      	nop

000024fc <_ZN3AjK9MODSERIAL6isr_txEv>:
    24fc:	2101      	movs	r1, #1
    24fe:	f000 b937 	b.w	2770 <_ZN3AjK9MODSERIAL6isr_txEb>
    2502:	bf00      	nop

00002504 <_ZN3AjK9MODSERIAL4initEii7PinName>:
    2504:	b570      	push	{r4, r5, r6, lr}
    2506:	4604      	mov	r4, r0
    2508:	460d      	mov	r5, r1
    250a:	4616      	mov	r6, r2
    250c:	f000 fa14 	bl	2938 <_ZN3AjK9MODSERIAL10disableIrqEv>
    2510:	69e3      	ldr	r3, [r4, #28]
    2512:	65a4      	str	r4, [r4, #88]	; 0x58
    2514:	2b03      	cmp	r3, #3
    2516:	d865      	bhi.n	25e4 <_ZN3AjK9MODSERIAL4initEii7PinName+0xe0>
    2518:	e8df f003 	tbb	[pc, r3]
    251c:	0253595e 	.word	0x0253595e
    2520:	f44f 4040 	mov.w	r0, #49152	; 0xc000
    2524:	f2c4 0009 	movt	r0, #16393	; 0x4009
    2528:	65e0      	str	r0, [r4, #92]	; 0x5c
    252a:	2000      	movs	r0, #0
    252c:	f04f 31ff 	mov.w	r1, #4294967295	; 0xffffffff
    2530:	4286      	cmp	r6, r0
    2532:	f8c4 10f8 	str.w	r1, [r4, #248]	; 0xf8
    2536:	f8c4 00fc 	str.w	r0, [r4, #252]	; 0xfc
    253a:	67e6      	str	r6, [r4, #124]	; 0x7c
    253c:	dd02      	ble.n	2544 <_ZN3AjK9MODSERIAL4initEii7PinName+0x40>
    253e:	6fe0      	ldr	r0, [r4, #124]	; 0x7c
    2540:	f004 fc56 	bl	6df0 <malloc>
    2544:	2100      	movs	r1, #0
    2546:	66e1      	str	r1, [r4, #108]	; 0x6c
    2548:	6660      	str	r0, [r4, #100]	; 0x64
    254a:	6761      	str	r1, [r4, #116]	; 0x74
    254c:	f8c4 1084 	str.w	r1, [r4, #132]	; 0x84
    2550:	f8c4 108c 	str.w	r1, [r4, #140]	; 0x8c
    2554:	b15c      	cbz	r4, 256e <_ZN3AjK9MODSERIAL4initEii7PinName+0x6a>
    2556:	482e      	ldr	r0, [pc, #184]	; (2610 <_ZN3AjK9MODSERIAL4initEii7PinName+0x10c>)
    2558:	4a2e      	ldr	r2, [pc, #184]	; (2614 <_ZN3AjK9MODSERIAL4initEii7PinName+0x110>)
    255a:	62a0      	str	r0, [r4, #40]	; 0x28
    255c:	63a2      	str	r2, [r4, #56]	; 0x38
    255e:	6264      	str	r4, [r4, #36]	; 0x24
    2560:	62e1      	str	r1, [r4, #44]	; 0x2c
    2562:	6221      	str	r1, [r4, #32]
    2564:	f104 0018 	add.w	r0, r4, #24
    2568:	2201      	movs	r2, #1
    256a:	f001 fb01 	bl	3b70 <serial_irq_set>
    256e:	2d00      	cmp	r5, #0
    2570:	f8c4 5080 	str.w	r5, [r4, #128]	; 0x80
    2574:	dd49      	ble.n	260a <_ZN3AjK9MODSERIAL4initEii7PinName+0x106>
    2576:	f8d4 0080 	ldr.w	r0, [r4, #128]	; 0x80
    257a:	f004 fc39 	bl	6df0 <malloc>
    257e:	4a26      	ldr	r2, [pc, #152]	; (2618 <_ZN3AjK9MODSERIAL4initEii7PinName+0x114>)
    2580:	2300      	movs	r3, #0
    2582:	6723      	str	r3, [r4, #112]	; 0x70
    2584:	66a0      	str	r0, [r4, #104]	; 0x68
    2586:	67a3      	str	r3, [r4, #120]	; 0x78
    2588:	f8c4 3088 	str.w	r3, [r4, #136]	; 0x88
    258c:	f8c4 3090 	str.w	r3, [r4, #144]	; 0x90
    2590:	b162      	cbz	r2, 25ac <_ZN3AjK9MODSERIAL4initEii7PinName+0xa8>
    2592:	b15c      	cbz	r4, 25ac <_ZN3AjK9MODSERIAL4initEii7PinName+0xa8>
    2594:	481f      	ldr	r0, [pc, #124]	; (2614 <_ZN3AjK9MODSERIAL4initEii7PinName+0x110>)
    2596:	2101      	movs	r1, #1
    2598:	6462      	str	r2, [r4, #68]	; 0x44
    259a:	6560      	str	r0, [r4, #84]	; 0x54
    259c:	6424      	str	r4, [r4, #64]	; 0x40
    259e:	64a3      	str	r3, [r4, #72]	; 0x48
    25a0:	63e3      	str	r3, [r4, #60]	; 0x3c
    25a2:	f104 0018 	add.w	r0, r4, #24
    25a6:	460a      	mov	r2, r1
    25a8:	f001 fae2 	bl	3b70 <serial_irq_set>
    25ac:	6de1      	ldr	r1, [r4, #92]	; 0x5c
    25ae:	2207      	movs	r2, #7
    25b0:	2300      	movs	r3, #0
    25b2:	4620      	mov	r0, r4
    25b4:	720a      	strb	r2, [r1, #8]
    25b6:	f884 3094 	strb.w	r3, [r4, #148]	; 0x94
    25ba:	e8bd 4070 	ldmia.w	sp!, {r4, r5, r6, lr}
    25be:	f000 ba15 	b.w	29ec <_ZN3AjK9MODSERIAL9enableIrqEv>
    25c2:	f44f 4100 	mov.w	r1, #32768	; 0x8000
    25c6:	f2c4 0109 	movt	r1, #16393	; 0x4009
    25ca:	65e1      	str	r1, [r4, #92]	; 0x5c
    25cc:	e7ad      	b.n	252a <_ZN3AjK9MODSERIAL4initEii7PinName+0x26>
    25ce:	2200      	movs	r2, #0
    25d0:	f2c4 0201 	movt	r2, #16385	; 0x4001
    25d4:	65e2      	str	r2, [r4, #92]	; 0x5c
    25d6:	e7a8      	b.n	252a <_ZN3AjK9MODSERIAL4initEii7PinName+0x26>
    25d8:	f44f 4340 	mov.w	r3, #49152	; 0xc000
    25dc:	f2c4 0300 	movt	r3, #16384	; 0x4000
    25e0:	65e3      	str	r3, [r4, #92]	; 0x5c
    25e2:	e7a2      	b.n	252a <_ZN3AjK9MODSERIAL4initEii7PinName+0x26>
    25e4:	4d0d      	ldr	r5, [pc, #52]	; (261c <_ZN3AjK9MODSERIAL4initEii7PinName+0x118>)
    25e6:	2600      	movs	r6, #0
    25e8:	682b      	ldr	r3, [r5, #0]
    25ea:	f04f 30ff 	mov.w	r0, #4294967295	; 0xffffffff
    25ee:	f8c4 00f8 	str.w	r0, [r4, #248]	; 0xf8
    25f2:	65e6      	str	r6, [r4, #92]	; 0x5c
    25f4:	f8c4 60fc 	str.w	r6, [r4, #252]	; 0xfc
    25f8:	4809      	ldr	r0, [pc, #36]	; (2620 <_ZN3AjK9MODSERIAL4initEii7PinName+0x11c>)
    25fa:	2101      	movs	r1, #1
    25fc:	222f      	movs	r2, #47	; 0x2f
    25fe:	68db      	ldr	r3, [r3, #12]
    2600:	f004 fb6c 	bl	6cdc <fwrite>
    2604:	2001      	movs	r0, #1
    2606:	f001 fb25 	bl	3c54 <exit>
    260a:	2000      	movs	r0, #0
    260c:	e7b7      	b.n	257e <_ZN3AjK9MODSERIAL4initEii7PinName+0x7a>
    260e:	bf00      	nop
    2610:	00002625 	.word	0x00002625
    2614:	000024cd 	.word	0x000024cd
    2618:	000024fd 	.word	0x000024fd
    261c:	10000134 	.word	0x10000134
    2620:	00008f20 	.word	0x00008f20

00002624 <_ZN3AjK9MODSERIAL6isr_rxEv>:
    2624:	6dc3      	ldr	r3, [r0, #92]	; 0x5c
    2626:	b570      	push	{r4, r5, r6, lr}
    2628:	4604      	mov	r4, r0
    262a:	2b00      	cmp	r3, #0
    262c:	d050      	beq.n	26d0 <_ZN3AjK9MODSERIAL6isr_rxEv+0xac>
    262e:	6fc2      	ldr	r2, [r0, #124]	; 0x7c
    2630:	2a00      	cmp	r2, #0
    2632:	d04d      	beq.n	26d0 <_ZN3AjK9MODSERIAL6isr_rxEv+0xac>
    2634:	6e40      	ldr	r0, [r0, #100]	; 0x64
    2636:	2800      	cmp	r0, #0
    2638:	d04a      	beq.n	26d0 <_ZN3AjK9MODSERIAL6isr_rxEv+0xac>
    263a:	f104 0558 	add.w	r5, r4, #88	; 0x58
    263e:	2600      	movs	r6, #0
    2640:	e008      	b.n	2654 <_ZN3AjK9MODSERIAL6isr_rxEv+0x30>
    2642:	4628      	mov	r0, r5
    2644:	4788      	blx	r1
    2646:	f894 2094 	ldrb.w	r2, [r4, #148]	; 0x94
    264a:	f894 0061 	ldrb.w	r0, [r4, #97]	; 0x61
    264e:	4282      	cmp	r2, r0
    2650:	d038      	beq.n	26c4 <_ZN3AjK9MODSERIAL6isr_rxEv+0xa0>
    2652:	6de3      	ldr	r3, [r4, #92]	; 0x5c
    2654:	7d19      	ldrb	r1, [r3, #20]
    2656:	07ca      	lsls	r2, r1, #31
    2658:	d56b      	bpl.n	2732 <_ZN3AjK9MODSERIAL6isr_rxEv+0x10e>
    265a:	781b      	ldrb	r3, [r3, #0]
    265c:	f884 3061 	strb.w	r3, [r4, #97]	; 0x61
    2660:	f8d4 2084 	ldr.w	r2, [r4, #132]	; 0x84
    2664:	6fe0      	ldr	r0, [r4, #124]	; 0x7c
    2666:	4282      	cmp	r2, r0
    2668:	d03b      	beq.n	26e2 <_ZN3AjK9MODSERIAL6isr_rxEv+0xbe>
    266a:	6e63      	ldr	r3, [r4, #100]	; 0x64
    266c:	b183      	cbz	r3, 2690 <_ZN3AjK9MODSERIAL6isr_rxEv+0x6c>
    266e:	6ee2      	ldr	r2, [r4, #108]	; 0x6c
    2670:	f894 1061 	ldrb.w	r1, [r4, #97]	; 0x61
    2674:	5499      	strb	r1, [r3, r2]
    2676:	f8d4 0084 	ldr.w	r0, [r4, #132]	; 0x84
    267a:	1c43      	adds	r3, r0, #1
    267c:	f8c4 3084 	str.w	r3, [r4, #132]	; 0x84
    2680:	6ee2      	ldr	r2, [r4, #108]	; 0x6c
    2682:	1c51      	adds	r1, r2, #1
    2684:	66e1      	str	r1, [r4, #108]	; 0x6c
    2686:	6ee0      	ldr	r0, [r4, #108]	; 0x6c
    2688:	6fe3      	ldr	r3, [r4, #124]	; 0x7c
    268a:	4298      	cmp	r0, r3
    268c:	bfa8      	it	ge
    268e:	66e6      	strge	r6, [r4, #108]	; 0x6c
    2690:	f8d4 1098 	ldr.w	r1, [r4, #152]	; 0x98
    2694:	2900      	cmp	r1, #0
    2696:	d1d4      	bne.n	2642 <_ZN3AjK9MODSERIAL6isr_rxEv+0x1e>
    2698:	f8d4 209c 	ldr.w	r2, [r4, #156]	; 0x9c
    269c:	2a00      	cmp	r2, #0
    269e:	d0d2      	beq.n	2646 <_ZN3AjK9MODSERIAL6isr_rxEv+0x22>
    26a0:	f8d4 30a0 	ldr.w	r3, [r4, #160]	; 0xa0
    26a4:	f8d4 10a4 	ldr.w	r1, [r4, #164]	; 0xa4
    26a8:	2b00      	cmp	r3, #0
    26aa:	d02c      	beq.n	2706 <_ZN3AjK9MODSERIAL6isr_rxEv+0xe2>
    26ac:	07c8      	lsls	r0, r1, #31
    26ae:	d42c      	bmi.n	270a <_ZN3AjK9MODSERIAL6isr_rxEv+0xe6>
    26b0:	1048      	asrs	r0, r1, #1
    26b2:	1810      	adds	r0, r2, r0
    26b4:	4629      	mov	r1, r5
    26b6:	4798      	blx	r3
    26b8:	f894 2094 	ldrb.w	r2, [r4, #148]	; 0x94
    26bc:	f894 0061 	ldrb.w	r0, [r4, #97]	; 0x61
    26c0:	4282      	cmp	r2, r0
    26c2:	d1c6      	bne.n	2652 <_ZN3AjK9MODSERIAL6isr_rxEv+0x2e>
    26c4:	f8d4 10e8 	ldr.w	r1, [r4, #232]	; 0xe8
    26c8:	b319      	cbz	r1, 2712 <_ZN3AjK9MODSERIAL6isr_rxEv+0xee>
    26ca:	4628      	mov	r0, r5
    26cc:	4788      	blx	r1
    26ce:	e7c0      	b.n	2652 <_ZN3AjK9MODSERIAL6isr_rxEv+0x2e>
    26d0:	f8d4 2098 	ldr.w	r2, [r4, #152]	; 0x98
    26d4:	f104 0158 	add.w	r1, r4, #88	; 0x58
    26d8:	2a00      	cmp	r2, #0
    26da:	d031      	beq.n	2740 <_ZN3AjK9MODSERIAL6isr_rxEv+0x11c>
    26dc:	4608      	mov	r0, r1
    26de:	4790      	blx	r2
    26e0:	bd70      	pop	{r4, r5, r6, pc}
    26e2:	f894 0061 	ldrb.w	r0, [r4, #97]	; 0x61
    26e6:	f8d4 10b8 	ldr.w	r1, [r4, #184]	; 0xb8
    26ea:	f8c4 008c 	str.w	r0, [r4, #140]	; 0x8c
    26ee:	2900      	cmp	r1, #0
    26f0:	d1a7      	bne.n	2642 <_ZN3AjK9MODSERIAL6isr_rxEv+0x1e>
    26f2:	f8d4 20bc 	ldr.w	r2, [r4, #188]	; 0xbc
    26f6:	2a00      	cmp	r2, #0
    26f8:	d0a5      	beq.n	2646 <_ZN3AjK9MODSERIAL6isr_rxEv+0x22>
    26fa:	f8d4 30c0 	ldr.w	r3, [r4, #192]	; 0xc0
    26fe:	f8d4 10c4 	ldr.w	r1, [r4, #196]	; 0xc4
    2702:	2b00      	cmp	r3, #0
    2704:	d1d2      	bne.n	26ac <_ZN3AjK9MODSERIAL6isr_rxEv+0x88>
    2706:	07c8      	lsls	r0, r1, #31
    2708:	d59d      	bpl.n	2646 <_ZN3AjK9MODSERIAL6isr_rxEv+0x22>
    270a:	1048      	asrs	r0, r1, #1
    270c:	5811      	ldr	r1, [r2, r0]
    270e:	585b      	ldr	r3, [r3, r1]
    2710:	e7cf      	b.n	26b2 <_ZN3AjK9MODSERIAL6isr_rxEv+0x8e>
    2712:	f8d4 20ec 	ldr.w	r2, [r4, #236]	; 0xec
    2716:	2a00      	cmp	r2, #0
    2718:	d09b      	beq.n	2652 <_ZN3AjK9MODSERIAL6isr_rxEv+0x2e>
    271a:	f8d4 30f0 	ldr.w	r3, [r4, #240]	; 0xf0
    271e:	f8d4 10f4 	ldr.w	r1, [r4, #244]	; 0xf4
    2722:	b13b      	cbz	r3, 2734 <_ZN3AjK9MODSERIAL6isr_rxEv+0x110>
    2724:	07c8      	lsls	r0, r1, #31
    2726:	d407      	bmi.n	2738 <_ZN3AjK9MODSERIAL6isr_rxEv+0x114>
    2728:	1048      	asrs	r0, r1, #1
    272a:	1810      	adds	r0, r2, r0
    272c:	4629      	mov	r1, r5
    272e:	4798      	blx	r3
    2730:	e78f      	b.n	2652 <_ZN3AjK9MODSERIAL6isr_rxEv+0x2e>
    2732:	bd70      	pop	{r4, r5, r6, pc}
    2734:	07c8      	lsls	r0, r1, #31
    2736:	d58c      	bpl.n	2652 <_ZN3AjK9MODSERIAL6isr_rxEv+0x2e>
    2738:	1048      	asrs	r0, r1, #1
    273a:	5811      	ldr	r1, [r2, r0]
    273c:	585b      	ldr	r3, [r3, r1]
    273e:	e7f4      	b.n	272a <_ZN3AjK9MODSERIAL6isr_rxEv+0x106>
    2740:	f8d4 209c 	ldr.w	r2, [r4, #156]	; 0x9c
    2744:	b15a      	cbz	r2, 275e <_ZN3AjK9MODSERIAL6isr_rxEv+0x13a>
    2746:	f8d4 30a0 	ldr.w	r3, [r4, #160]	; 0xa0
    274a:	f8d4 00a4 	ldr.w	r0, [r4, #164]	; 0xa4
    274e:	b15b      	cbz	r3, 2768 <_ZN3AjK9MODSERIAL6isr_rxEv+0x144>
    2750:	f010 0f01 	tst.w	r0, #1
    2754:	d104      	bne.n	2760 <_ZN3AjK9MODSERIAL6isr_rxEv+0x13c>
    2756:	1040      	asrs	r0, r0, #1
    2758:	1810      	adds	r0, r2, r0
    275a:	4798      	blx	r3
    275c:	bd70      	pop	{r4, r5, r6, pc}
    275e:	bd70      	pop	{r4, r5, r6, pc}
    2760:	1040      	asrs	r0, r0, #1
    2762:	5814      	ldr	r4, [r2, r0]
    2764:	591b      	ldr	r3, [r3, r4]
    2766:	e7f7      	b.n	2758 <_ZN3AjK9MODSERIAL6isr_rxEv+0x134>
    2768:	f010 0f01 	tst.w	r0, #1
    276c:	d1f8      	bne.n	2760 <_ZN3AjK9MODSERIAL6isr_rxEv+0x13c>
    276e:	bd70      	pop	{r4, r5, r6, pc}

00002770 <_ZN3AjK9MODSERIAL6isr_txEb>:
    2770:	b5f8      	push	{r3, r4, r5, r6, r7, lr}
    2772:	6dc3      	ldr	r3, [r0, #92]	; 0x5c
    2774:	4604      	mov	r4, r0
    2776:	460d      	mov	r5, r1
    2778:	2b00      	cmp	r3, #0
    277a:	d035      	beq.n	27e8 <_ZN3AjK9MODSERIAL6isr_txEb+0x78>
    277c:	f8d0 0080 	ldr.w	r0, [r0, #128]	; 0x80
    2780:	2800      	cmp	r0, #0
    2782:	d031      	beq.n	27e8 <_ZN3AjK9MODSERIAL6isr_txEb+0x78>
    2784:	6ea1      	ldr	r1, [r4, #104]	; 0x68
    2786:	2900      	cmp	r1, #0
    2788:	d02e      	beq.n	27e8 <_ZN3AjK9MODSERIAL6isr_txEb+0x78>
    278a:	2700      	movs	r7, #0
    278c:	f104 0658 	add.w	r6, r4, #88	; 0x58
    2790:	f8d4 2088 	ldr.w	r2, [r4, #136]	; 0x88
    2794:	b322      	cbz	r2, 27e0 <_ZN3AjK9MODSERIAL6isr_txEb+0x70>
    2796:	6de3      	ldr	r3, [r4, #92]	; 0x5c
    2798:	7d18      	ldrb	r0, [r3, #20]
    279a:	f000 0120 	and.w	r1, r0, #32
    279e:	b2ca      	uxtb	r2, r1
    27a0:	b1f2      	cbz	r2, 27e0 <_ZN3AjK9MODSERIAL6isr_txEb+0x70>
    27a2:	6fa1      	ldr	r1, [r4, #120]	; 0x78
    27a4:	6ea2      	ldr	r2, [r4, #104]	; 0x68
    27a6:	5c50      	ldrb	r0, [r2, r1]
    27a8:	f884 0060 	strb.w	r0, [r4, #96]	; 0x60
    27ac:	7018      	strb	r0, [r3, #0]
    27ae:	f8d4 3088 	ldr.w	r3, [r4, #136]	; 0x88
    27b2:	1e59      	subs	r1, r3, #1
    27b4:	f8c4 1088 	str.w	r1, [r4, #136]	; 0x88
    27b8:	6fa2      	ldr	r2, [r4, #120]	; 0x78
    27ba:	1c50      	adds	r0, r2, #1
    27bc:	67a0      	str	r0, [r4, #120]	; 0x78
    27be:	6fa1      	ldr	r1, [r4, #120]	; 0x78
    27c0:	f8d4 3080 	ldr.w	r3, [r4, #128]	; 0x80
    27c4:	4299      	cmp	r1, r3
    27c6:	db00      	blt.n	27ca <_ZN3AjK9MODSERIAL6isr_txEb+0x5a>
    27c8:	67a7      	str	r7, [r4, #120]	; 0x78
    27ca:	2d00      	cmp	r5, #0
    27cc:	d0e0      	beq.n	2790 <_ZN3AjK9MODSERIAL6isr_txEb+0x20>
    27ce:	f8d4 20a8 	ldr.w	r2, [r4, #168]	; 0xa8
    27d2:	b192      	cbz	r2, 27fa <_ZN3AjK9MODSERIAL6isr_txEb+0x8a>
    27d4:	4630      	mov	r0, r6
    27d6:	4790      	blx	r2
    27d8:	f8d4 2088 	ldr.w	r2, [r4, #136]	; 0x88
    27dc:	2a00      	cmp	r2, #0
    27de:	d1da      	bne.n	2796 <_ZN3AjK9MODSERIAL6isr_txEb+0x26>
    27e0:	f8d4 3088 	ldr.w	r3, [r4, #136]	; 0x88
    27e4:	b1fb      	cbz	r3, 2826 <_ZN3AjK9MODSERIAL6isr_txEb+0xb6>
    27e6:	bdf8      	pop	{r3, r4, r5, r6, r7, pc}
    27e8:	f8d4 20a8 	ldr.w	r2, [r4, #168]	; 0xa8
    27ec:	f104 0158 	add.w	r1, r4, #88	; 0x58
    27f0:	2a00      	cmp	r2, #0
    27f2:	d02e      	beq.n	2852 <_ZN3AjK9MODSERIAL6isr_txEb+0xe2>
    27f4:	4608      	mov	r0, r1
    27f6:	4790      	blx	r2
    27f8:	bdf8      	pop	{r3, r4, r5, r6, r7, pc}
    27fa:	f8d4 20ac 	ldr.w	r2, [r4, #172]	; 0xac
    27fe:	2a00      	cmp	r2, #0
    2800:	d0c6      	beq.n	2790 <_ZN3AjK9MODSERIAL6isr_txEb+0x20>
    2802:	f8d4 30b0 	ldr.w	r3, [r4, #176]	; 0xb0
    2806:	f8d4 10b4 	ldr.w	r1, [r4, #180]	; 0xb4
    280a:	b133      	cbz	r3, 281a <_ZN3AjK9MODSERIAL6isr_txEb+0xaa>
    280c:	07c8      	lsls	r0, r1, #31
    280e:	d406      	bmi.n	281e <_ZN3AjK9MODSERIAL6isr_txEb+0xae>
    2810:	1048      	asrs	r0, r1, #1
    2812:	1810      	adds	r0, r2, r0
    2814:	4631      	mov	r1, r6
    2816:	4798      	blx	r3
    2818:	e7ba      	b.n	2790 <_ZN3AjK9MODSERIAL6isr_txEb+0x20>
    281a:	07c8      	lsls	r0, r1, #31
    281c:	d5b8      	bpl.n	2790 <_ZN3AjK9MODSERIAL6isr_txEb+0x20>
    281e:	1048      	asrs	r0, r1, #1
    2820:	5811      	ldr	r1, [r2, r0]
    2822:	585b      	ldr	r3, [r3, r1]
    2824:	e7f5      	b.n	2812 <_ZN3AjK9MODSERIAL6isr_txEb+0xa2>
    2826:	6de0      	ldr	r0, [r4, #92]	; 0x5c
    2828:	2101      	movs	r1, #1
    282a:	7101      	strb	r1, [r0, #4]
    282c:	f8d4 20d8 	ldr.w	r2, [r4, #216]	; 0xd8
    2830:	f104 0158 	add.w	r1, r4, #88	; 0x58
    2834:	2a00      	cmp	r2, #0
    2836:	d1dd      	bne.n	27f4 <_ZN3AjK9MODSERIAL6isr_txEb+0x84>
    2838:	f8d4 20dc 	ldr.w	r2, [r4, #220]	; 0xdc
    283c:	2a00      	cmp	r2, #0
    283e:	d0d2      	beq.n	27e6 <_ZN3AjK9MODSERIAL6isr_txEb+0x76>
    2840:	f8d4 30e0 	ldr.w	r3, [r4, #224]	; 0xe0
    2844:	f8d4 00e4 	ldr.w	r0, [r4, #228]	; 0xe4
    2848:	b963      	cbnz	r3, 2864 <_ZN3AjK9MODSERIAL6isr_txEb+0xf4>
    284a:	f010 0f01 	tst.w	r0, #1
    284e:	d110      	bne.n	2872 <_ZN3AjK9MODSERIAL6isr_txEb+0x102>
    2850:	bdf8      	pop	{r3, r4, r5, r6, r7, pc}
    2852:	f8d4 20ac 	ldr.w	r2, [r4, #172]	; 0xac
    2856:	2a00      	cmp	r2, #0
    2858:	d0c5      	beq.n	27e6 <_ZN3AjK9MODSERIAL6isr_txEb+0x76>
    285a:	f8d4 30b0 	ldr.w	r3, [r4, #176]	; 0xb0
    285e:	f8d4 00b4 	ldr.w	r0, [r4, #180]	; 0xb4
    2862:	b153      	cbz	r3, 287a <_ZN3AjK9MODSERIAL6isr_txEb+0x10a>
    2864:	f010 0f01 	tst.w	r0, #1
    2868:	d103      	bne.n	2872 <_ZN3AjK9MODSERIAL6isr_txEb+0x102>
    286a:	1040      	asrs	r0, r0, #1
    286c:	1810      	adds	r0, r2, r0
    286e:	4798      	blx	r3
    2870:	bdf8      	pop	{r3, r4, r5, r6, r7, pc}
    2872:	1040      	asrs	r0, r0, #1
    2874:	5814      	ldr	r4, [r2, r0]
    2876:	591b      	ldr	r3, [r3, r4]
    2878:	e7f8      	b.n	286c <_ZN3AjK9MODSERIAL6isr_txEb+0xfc>
    287a:	f010 0f01 	tst.w	r0, #1
    287e:	d1f8      	bne.n	2872 <_ZN3AjK9MODSERIAL6isr_txEb+0x102>
    2880:	bdf8      	pop	{r3, r4, r5, r6, r7, pc}
    2882:	bf00      	nop

00002884 <_ZN3AjK9MODSERIAL5_getcEv>:
    2884:	2101      	movs	r1, #1
    2886:	f7ff bddb 	b.w	2440 <_ZN3AjK9MODSERIAL6__getcEb>
    288a:	bf00      	nop

0000288c <_ZN3AjK9MODSERIAL5_putcEi>:
    288c:	2201      	movs	r2, #1
    288e:	f000 b8d1 	b.w	2a34 <_ZN3AjK9MODSERIAL6__putcEib>
    2892:	bf00      	nop

00002894 <_ZN3AjK9MODSERIALC1E7PinNameS1_PKc>:
    2894:	b538      	push	{r3, r4, r5, lr}
    2896:	4604      	mov	r4, r0
    2898:	4615      	mov	r5, r2
    289a:	f001 fa91 	bl	3dc0 <_ZN4mbed6SerialC1E7PinNameS1_PKc>
    289e:	f648 7168 	movw	r1, #36712	; 0x8f68
    28a2:	f2c0 0100 	movt	r1, #0
    28a6:	2000      	movs	r0, #0
    28a8:	f101 0208 	add.w	r2, r1, #8
    28ac:	f101 033c 	add.w	r3, r1, #60	; 0x3c
    28b0:	f44f 7180 	mov.w	r1, #256	; 0x100
    28b4:	e884 000c 	stmia.w	r4, {r2, r3}
    28b8:	65a0      	str	r0, [r4, #88]	; 0x58
    28ba:	f8c4 0098 	str.w	r0, [r4, #152]	; 0x98
    28be:	f8c4 009c 	str.w	r0, [r4, #156]	; 0x9c
    28c2:	f8c4 00a0 	str.w	r0, [r4, #160]	; 0xa0
    28c6:	f8c4 00a4 	str.w	r0, [r4, #164]	; 0xa4
    28ca:	f8c4 00a8 	str.w	r0, [r4, #168]	; 0xa8
    28ce:	f8c4 00ac 	str.w	r0, [r4, #172]	; 0xac
    28d2:	f8c4 00b0 	str.w	r0, [r4, #176]	; 0xb0
    28d6:	f8c4 00b4 	str.w	r0, [r4, #180]	; 0xb4
    28da:	f8c4 00b8 	str.w	r0, [r4, #184]	; 0xb8
    28de:	f8c4 00bc 	str.w	r0, [r4, #188]	; 0xbc
    28e2:	f8c4 00c0 	str.w	r0, [r4, #192]	; 0xc0
    28e6:	f8c4 00c4 	str.w	r0, [r4, #196]	; 0xc4
    28ea:	f8c4 00c8 	str.w	r0, [r4, #200]	; 0xc8
    28ee:	f8c4 00cc 	str.w	r0, [r4, #204]	; 0xcc
    28f2:	f8c4 00d0 	str.w	r0, [r4, #208]	; 0xd0
    28f6:	f8c4 00d4 	str.w	r0, [r4, #212]	; 0xd4
    28fa:	f8c4 00d8 	str.w	r0, [r4, #216]	; 0xd8
    28fe:	f8c4 00dc 	str.w	r0, [r4, #220]	; 0xdc
    2902:	f8c4 00e0 	str.w	r0, [r4, #224]	; 0xe0
    2906:	f8c4 00e4 	str.w	r0, [r4, #228]	; 0xe4
    290a:	f8c4 00e8 	str.w	r0, [r4, #232]	; 0xe8
    290e:	f8c4 00ec 	str.w	r0, [r4, #236]	; 0xec
    2912:	f8c4 00f0 	str.w	r0, [r4, #240]	; 0xf0
    2916:	f8c4 00f4 	str.w	r0, [r4, #244]	; 0xf4
    291a:	460a      	mov	r2, r1
    291c:	4620      	mov	r0, r4
    291e:	462b      	mov	r3, r5
    2920:	f7ff fdf0 	bl	2504 <_ZN3AjK9MODSERIAL4initEii7PinName>
    2924:	4620      	mov	r0, r4
    2926:	bd38      	pop	{r3, r4, r5, pc}

00002928 <_ZN3AjK9MODSERIAL13rxBufferEmptyEv>:
    2928:	f8d0 0084 	ldr.w	r0, [r0, #132]	; 0x84
    292c:	f1d0 0001 	rsbs	r0, r0, #1
    2930:	bf38      	it	cc
    2932:	2000      	movcc	r0, #0
    2934:	4770      	bx	lr
    2936:	bf00      	nop

00002938 <_ZN3AjK9MODSERIAL10disableIrqEv>:
    2938:	69c3      	ldr	r3, [r0, #28]
    293a:	2b03      	cmp	r3, #3
    293c:	d80b      	bhi.n	2956 <_ZN3AjK9MODSERIAL10disableIrqEv+0x1e>
    293e:	e8df f003 	tbb	[pc, r3]
    2942:	131b      	.short	0x131b
    2944:	020b      	.short	0x020b
    2946:	f44f 4061 	mov.w	r0, #57600	; 0xe100
    294a:	f2ce 0000 	movt	r0, #57344	; 0xe000
    294e:	f44f 7280 	mov.w	r2, #256	; 0x100
    2952:	f8c0 2080 	str.w	r2, [r0, #128]	; 0x80
    2956:	4770      	bx	lr
    2958:	f44f 4161 	mov.w	r1, #57600	; 0xe100
    295c:	f2ce 0100 	movt	r1, #57344	; 0xe000
    2960:	2380      	movs	r3, #128	; 0x80
    2962:	f8c1 3080 	str.w	r3, [r1, #128]	; 0x80
    2966:	4770      	bx	lr
    2968:	f44f 4061 	mov.w	r0, #57600	; 0xe100
    296c:	f2ce 0000 	movt	r0, #57344	; 0xe000
    2970:	2240      	movs	r2, #64	; 0x40
    2972:	f8c0 2080 	str.w	r2, [r0, #128]	; 0x80
    2976:	4770      	bx	lr
    2978:	f44f 4161 	mov.w	r1, #57600	; 0xe100
    297c:	f2ce 0100 	movt	r1, #57344	; 0xe000
    2980:	2320      	movs	r3, #32
    2982:	f8c1 3080 	str.w	r3, [r1, #128]	; 0x80
    2986:	4770      	bx	lr

00002988 <_ZN3AjK9MODSERIALD1Ev>:
    2988:	4b0d      	ldr	r3, [pc, #52]	; (29c0 <_ZN3AjK9MODSERIALD1Ev+0x38>)
    298a:	b510      	push	{r4, lr}
    298c:	f103 0234 	add.w	r2, r3, #52	; 0x34
    2990:	4604      	mov	r4, r0
    2992:	6003      	str	r3, [r0, #0]
    2994:	6042      	str	r2, [r0, #4]
    2996:	f7ff ffcf 	bl	2938 <_ZN3AjK9MODSERIAL10disableIrqEv>
    299a:	6e60      	ldr	r0, [r4, #100]	; 0x64
    299c:	b108      	cbz	r0, 29a2 <_ZN3AjK9MODSERIALD1Ev+0x1a>
    299e:	f004 fa2f 	bl	6e00 <free>
    29a2:	6ea0      	ldr	r0, [r4, #104]	; 0x68
    29a4:	b108      	cbz	r0, 29aa <_ZN3AjK9MODSERIALD1Ev+0x22>
    29a6:	f004 fa2b 	bl	6e00 <free>
    29aa:	4906      	ldr	r1, [pc, #24]	; (29c4 <_ZN3AjK9MODSERIALD1Ev+0x3c>)
    29ac:	4620      	mov	r0, r4
    29ae:	f101 0334 	add.w	r3, r1, #52	; 0x34
    29b2:	6021      	str	r1, [r4, #0]
    29b4:	6063      	str	r3, [r4, #4]
    29b6:	f001 fc43 	bl	4240 <_ZN4mbed6StreamD1Ev>
    29ba:	4620      	mov	r0, r4
    29bc:	bd10      	pop	{r4, pc}
    29be:	bf00      	nop
    29c0:	00008f70 	.word	0x00008f70
    29c4:	00009218 	.word	0x00009218

000029c8 <_ZThn4_N3AjK9MODSERIALD1Ev>:
    29c8:	f1a0 0004 	sub.w	r0, r0, #4
    29cc:	f7ff bfdc 	b.w	2988 <_ZN3AjK9MODSERIALD1Ev>

000029d0 <_ZN3AjK9MODSERIALD0Ev>:
    29d0:	b510      	push	{r4, lr}
    29d2:	4604      	mov	r4, r0
    29d4:	f7ff ffd8 	bl	2988 <_ZN3AjK9MODSERIALD1Ev>
    29d8:	4620      	mov	r0, r4
    29da:	f001 ff6f 	bl	48bc <_ZdlPv>
    29de:	4620      	mov	r0, r4
    29e0:	bd10      	pop	{r4, pc}
    29e2:	bf00      	nop

000029e4 <_ZThn4_N3AjK9MODSERIALD0Ev>:
    29e4:	f1a0 0004 	sub.w	r0, r0, #4
    29e8:	f7ff bff2 	b.w	29d0 <_ZN3AjK9MODSERIALD0Ev>

000029ec <_ZN3AjK9MODSERIAL9enableIrqEv>:
    29ec:	69c3      	ldr	r3, [r0, #28]
    29ee:	2b03      	cmp	r3, #3
    29f0:	d80a      	bhi.n	2a08 <_ZN3AjK9MODSERIAL9enableIrqEv+0x1c>
    29f2:	e8df f003 	tbb	[pc, r3]
    29f6:	1118      	.short	0x1118
    29f8:	020a      	.short	0x020a
    29fa:	f44f 4061 	mov.w	r0, #57600	; 0xe100
    29fe:	f2ce 0000 	movt	r0, #57344	; 0xe000
    2a02:	f44f 7280 	mov.w	r2, #256	; 0x100
    2a06:	6002      	str	r2, [r0, #0]
    2a08:	4770      	bx	lr
    2a0a:	f44f 4161 	mov.w	r1, #57600	; 0xe100
    2a0e:	f2ce 0100 	movt	r1, #57344	; 0xe000
    2a12:	2380      	movs	r3, #128	; 0x80
    2a14:	600b      	str	r3, [r1, #0]
    2a16:	4770      	bx	lr
    2a18:	f44f 4061 	mov.w	r0, #57600	; 0xe100
    2a1c:	f2ce 0000 	movt	r0, #57344	; 0xe000
    2a20:	2240      	movs	r2, #64	; 0x40
    2a22:	6002      	str	r2, [r0, #0]
    2a24:	4770      	bx	lr
    2a26:	f44f 4161 	mov.w	r1, #57600	; 0xe100
    2a2a:	f2ce 0100 	movt	r1, #57344	; 0xe000
    2a2e:	2320      	movs	r3, #32
    2a30:	600b      	str	r3, [r1, #0]
    2a32:	4770      	bx	lr

00002a34 <_ZN3AjK9MODSERIAL6__putcEib>:
    2a34:	6e83      	ldr	r3, [r0, #104]	; 0x68
    2a36:	b570      	push	{r4, r5, r6, lr}
    2a38:	4604      	mov	r4, r0
    2a3a:	460d      	mov	r5, r1
    2a3c:	b113      	cbz	r3, 2a44 <_ZN3AjK9MODSERIAL6__putcEib+0x10>
    2a3e:	f8d0 0080 	ldr.w	r0, [r0, #128]	; 0x80
    2a42:	b948      	cbnz	r0, 2a58 <_ZN3AjK9MODSERIAL6__putcEib+0x24>
    2a44:	6de0      	ldr	r0, [r4, #92]	; 0x5c
    2a46:	7d03      	ldrb	r3, [r0, #20]
    2a48:	f003 0220 	and.w	r2, r3, #32
    2a4c:	b2d1      	uxtb	r1, r2
    2a4e:	b111      	cbz	r1, 2a56 <_ZN3AjK9MODSERIAL6__putcEib+0x22>
    2a50:	7005      	strb	r5, [r0, #0]
    2a52:	2000      	movs	r0, #0
    2a54:	bd70      	pop	{r4, r5, r6, pc}
    2a56:	e7fe      	b.n	2a56 <_ZN3AjK9MODSERIAL6__putcEib+0x22>
    2a58:	6de3      	ldr	r3, [r4, #92]	; 0x5c
    2a5a:	7d19      	ldrb	r1, [r3, #20]
    2a5c:	f001 0020 	and.w	r0, r1, #32
    2a60:	b2c1      	uxtb	r1, r0
    2a62:	b119      	cbz	r1, 2a6c <_ZN3AjK9MODSERIAL6__putcEib+0x38>
    2a64:	f8d4 0088 	ldr.w	r0, [r4, #136]	; 0x88
    2a68:	2800      	cmp	r0, #0
    2a6a:	d037      	beq.n	2adc <_ZN3AjK9MODSERIAL6__putcEib+0xa8>
    2a6c:	2a00      	cmp	r2, #0
    2a6e:	d03b      	beq.n	2ae8 <_ZN3AjK9MODSERIAL6__putcEib+0xb4>
    2a70:	2101      	movs	r1, #1
    2a72:	791e      	ldrb	r6, [r3, #4]
    2a74:	7119      	strb	r1, [r3, #4]
    2a76:	f8d4 0088 	ldr.w	r0, [r4, #136]	; 0x88
    2a7a:	f8d4 3080 	ldr.w	r3, [r4, #128]	; 0x80
    2a7e:	4298      	cmp	r0, r3
    2a80:	d109      	bne.n	2a96 <_ZN3AjK9MODSERIAL6__putcEib+0x62>
    2a82:	2100      	movs	r1, #0
    2a84:	4620      	mov	r0, r4
    2a86:	f7ff fe73 	bl	2770 <_ZN3AjK9MODSERIAL6isr_txEb>
    2a8a:	f8d4 2088 	ldr.w	r2, [r4, #136]	; 0x88
    2a8e:	f8d4 1080 	ldr.w	r1, [r4, #128]	; 0x80
    2a92:	428a      	cmp	r2, r1
    2a94:	d0f5      	beq.n	2a82 <_ZN3AjK9MODSERIAL6__putcEib+0x4e>
    2a96:	6de0      	ldr	r0, [r4, #92]	; 0x5c
    2a98:	7106      	strb	r6, [r0, #4]
    2a9a:	6de3      	ldr	r3, [r4, #92]	; 0x5c
    2a9c:	791a      	ldrb	r2, [r3, #4]
    2a9e:	b2ed      	uxtb	r5, r5
    2aa0:	f022 0102 	bic.w	r1, r2, #2
    2aa4:	7119      	strb	r1, [r3, #4]
    2aa6:	6f20      	ldr	r0, [r4, #112]	; 0x70
    2aa8:	6ea3      	ldr	r3, [r4, #104]	; 0x68
    2aaa:	541d      	strb	r5, [r3, r0]
    2aac:	b672      	cpsid	i
    2aae:	f8d4 2088 	ldr.w	r2, [r4, #136]	; 0x88
    2ab2:	1c51      	adds	r1, r2, #1
    2ab4:	f8c4 1088 	str.w	r1, [r4, #136]	; 0x88
    2ab8:	b662      	cpsie	i
    2aba:	6f20      	ldr	r0, [r4, #112]	; 0x70
    2abc:	1c43      	adds	r3, r0, #1
    2abe:	6723      	str	r3, [r4, #112]	; 0x70
    2ac0:	6f22      	ldr	r2, [r4, #112]	; 0x70
    2ac2:	f8d4 1080 	ldr.w	r1, [r4, #128]	; 0x80
    2ac6:	428a      	cmp	r2, r1
    2ac8:	db01      	blt.n	2ace <_ZN3AjK9MODSERIAL6__putcEib+0x9a>
    2aca:	2000      	movs	r0, #0
    2acc:	6720      	str	r0, [r4, #112]	; 0x70
    2ace:	6de3      	ldr	r3, [r4, #92]	; 0x5c
    2ad0:	2000      	movs	r0, #0
    2ad2:	791a      	ldrb	r2, [r3, #4]
    2ad4:	f042 0102 	orr.w	r1, r2, #2
    2ad8:	7119      	strb	r1, [r3, #4]
    2ada:	bd70      	pop	{r4, r5, r6, pc}
    2adc:	f8d4 10f8 	ldr.w	r1, [r4, #248]	; 0xf8
    2ae0:	3101      	adds	r1, #1
    2ae2:	d1c3      	bne.n	2a6c <_ZN3AjK9MODSERIAL6__putcEib+0x38>
    2ae4:	701d      	strb	r5, [r3, #0]
    2ae6:	bd70      	pop	{r4, r5, r6, pc}
    2ae8:	f8d4 0088 	ldr.w	r0, [r4, #136]	; 0x88
    2aec:	f8d4 2080 	ldr.w	r2, [r4, #128]	; 0x80
    2af0:	4290      	cmp	r0, r2
    2af2:	d1d3      	bne.n	2a9c <_ZN3AjK9MODSERIAL6__putcEib+0x68>
    2af4:	f8d4 30c8 	ldr.w	r3, [r4, #200]	; 0xc8
    2af8:	f8c4 5090 	str.w	r5, [r4, #144]	; 0x90
    2afc:	f104 0158 	add.w	r1, r4, #88	; 0x58
    2b00:	b123      	cbz	r3, 2b0c <_ZN3AjK9MODSERIAL6__putcEib+0xd8>
    2b02:	4608      	mov	r0, r1
    2b04:	4798      	blx	r3
    2b06:	f04f 30ff 	mov.w	r0, #4294967295	; 0xffffffff
    2b0a:	bd70      	pop	{r4, r5, r6, pc}
    2b0c:	f8d4 50cc 	ldr.w	r5, [r4, #204]	; 0xcc
    2b10:	b195      	cbz	r5, 2b38 <_ZN3AjK9MODSERIAL6__putcEib+0x104>
    2b12:	f8d4 20d0 	ldr.w	r2, [r4, #208]	; 0xd0
    2b16:	f8d4 30d4 	ldr.w	r3, [r4, #212]	; 0xd4
    2b1a:	b15a      	cbz	r2, 2b34 <_ZN3AjK9MODSERIAL6__putcEib+0x100>
    2b1c:	07d8      	lsls	r0, r3, #31
    2b1e:	d507      	bpl.n	2b30 <_ZN3AjK9MODSERIAL6__putcEib+0xfc>
    2b20:	1058      	asrs	r0, r3, #1
    2b22:	582b      	ldr	r3, [r5, r0]
    2b24:	58d2      	ldr	r2, [r2, r3]
    2b26:	1828      	adds	r0, r5, r0
    2b28:	4790      	blx	r2
    2b2a:	f04f 30ff 	mov.w	r0, #4294967295	; 0xffffffff
    2b2e:	bd70      	pop	{r4, r5, r6, pc}
    2b30:	1058      	asrs	r0, r3, #1
    2b32:	e7f8      	b.n	2b26 <_ZN3AjK9MODSERIAL6__putcEib+0xf2>
    2b34:	07d8      	lsls	r0, r3, #31
    2b36:	d4f3      	bmi.n	2b20 <_ZN3AjK9MODSERIAL6__putcEib+0xec>
    2b38:	f04f 30ff 	mov.w	r0, #4294967295	; 0xffffffff
    2b3c:	bd70      	pop	{r4, r5, r6, pc}
    2b3e:	bf00      	nop

00002b40 <_ZN3ros16normalizeSecNSecERmS0_>:
    2b40:	b430      	push	{r4, r5}
    2b42:	680c      	ldr	r4, [r1, #0]
    2b44:	f644 3383 	movw	r3, #19331	; 0x4b83
    2b48:	0a62      	lsrs	r2, r4, #9
    2b4a:	f2c0 0304 	movt	r3, #4
    2b4e:	fba3 5302 	umull	r5, r3, r3, r2
    2b52:	f44f 454a 	mov.w	r5, #51712	; 0xca00
    2b56:	09db      	lsrs	r3, r3, #7
    2b58:	f6c3 359a 	movt	r5, #15258	; 0x3b9a
    2b5c:	fb05 4213 	mls	r2, r5, r3, r4
    2b60:	6805      	ldr	r5, [r0, #0]
    2b62:	18eb      	adds	r3, r5, r3
    2b64:	6003      	str	r3, [r0, #0]
    2b66:	600a      	str	r2, [r1, #0]
    2b68:	bc30      	pop	{r4, r5}
    2b6a:	4770      	bx	lr

00002b6c <_ZN16FileConfigSource8is_namedEt>:
    2b6c:	8880      	ldrh	r0, [r0, #4]
    2b6e:	1a43      	subs	r3, r0, r1
    2b70:	4259      	negs	r1, r3
    2b72:	eb51 0003 	adcs.w	r0, r1, r3
    2b76:	4770      	bx	lr

00002b78 <_ZN16FileConfigSource5writeESsSs>:
    2b78:	4770      	bx	lr
    2b7a:	bf00      	nop

00002b7c <_ZN16FileConfigSourceC1ESst>:
    2b7c:	4b07      	ldr	r3, [pc, #28]	; (2b9c <_ZN16FileConfigSourceC1ESst+0x20>)
    2b7e:	b510      	push	{r4, lr}
    2b80:	4604      	mov	r4, r0
    2b82:	6003      	str	r3, [r0, #0]
    2b84:	4806      	ldr	r0, [pc, #24]	; (2ba0 <_ZN16FileConfigSourceC1ESst+0x24>)
    2b86:	80a2      	strh	r2, [r4, #4]
    2b88:	60a0      	str	r0, [r4, #8]
    2b8a:	f104 0008 	add.w	r0, r4, #8
    2b8e:	f002 fae5 	bl	515c <_ZNSs6assignERKSs>
    2b92:	2100      	movs	r1, #0
    2b94:	7321      	strb	r1, [r4, #12]
    2b96:	4620      	mov	r0, r4
    2b98:	bd10      	pop	{r4, pc}
    2b9a:	bf00      	nop
    2b9c:	00008fe0 	.word	0x00008fe0
    2ba0:	10000970 	.word	0x10000970

00002ba4 <_ZN16FileConfigSource15has_config_fileEv>:
    2ba4:	b570      	push	{r4, r5, r6, lr}
    2ba6:	7b03      	ldrb	r3, [r0, #12]
    2ba8:	b084      	sub	sp, #16
    2baa:	4604      	mov	r4, r0
    2bac:	b113      	cbz	r3, 2bb4 <_ZN16FileConfigSource15has_config_fileEv+0x10>
    2bae:	2001      	movs	r0, #1
    2bb0:	b004      	add	sp, #16
    2bb2:	bd70      	pop	{r4, r5, r6, pc}
    2bb4:	f100 0108 	add.w	r1, r0, #8
    2bb8:	a802      	add	r0, sp, #8
    2bba:	f002 fae4 	bl	5186 <_ZNSsC1ERKSs>
    2bbe:	a902      	add	r1, sp, #8
    2bc0:	a803      	add	r0, sp, #12
    2bc2:	f002 fae0 	bl	5186 <_ZNSsC1ERKSs>
    2bc6:	a803      	add	r0, sp, #12
    2bc8:	f7ff f93e 	bl	1e48 <_Z11file_existsSs>
    2bcc:	9b03      	ldr	r3, [sp, #12]
    2bce:	4d13      	ldr	r5, [pc, #76]	; (2c1c <_ZN16FileConfigSource15has_config_fileEv+0x78>)
    2bd0:	f1a3 020c 	sub.w	r2, r3, #12
    2bd4:	42aa      	cmp	r2, r5
    2bd6:	4606      	mov	r6, r0
    2bd8:	d109      	bne.n	2bee <_ZN16FileConfigSource15has_config_fileEv+0x4a>
    2bda:	b10e      	cbz	r6, 2be0 <_ZN16FileConfigSource15has_config_fileEv+0x3c>
    2bdc:	2301      	movs	r3, #1
    2bde:	7323      	strb	r3, [r4, #12]
    2be0:	9b02      	ldr	r3, [sp, #8]
    2be2:	f1a3 000c 	sub.w	r0, r3, #12
    2be6:	42a8      	cmp	r0, r5
    2be8:	d10d      	bne.n	2c06 <_ZN16FileConfigSource15has_config_fileEv+0x62>
    2bea:	7b20      	ldrb	r0, [r4, #12]
    2bec:	e7e0      	b.n	2bb0 <_ZN16FileConfigSource15has_config_fileEv+0xc>
    2bee:	f853 1c04 	ldr.w	r1, [r3, #-4]
    2bf2:	1e48      	subs	r0, r1, #1
    2bf4:	2900      	cmp	r1, #0
    2bf6:	f843 0c04 	str.w	r0, [r3, #-4]
    2bfa:	dcee      	bgt.n	2bda <_ZN16FileConfigSource15has_config_fileEv+0x36>
    2bfc:	4610      	mov	r0, r2
    2bfe:	a901      	add	r1, sp, #4
    2c00:	f002 fa08 	bl	5014 <_ZNSs4_Rep10_M_destroyERKSaIcE>
    2c04:	e7e9      	b.n	2bda <_ZN16FileConfigSource15has_config_fileEv+0x36>
    2c06:	f853 2c04 	ldr.w	r2, [r3, #-4]
    2c0a:	1e51      	subs	r1, r2, #1
    2c0c:	2a00      	cmp	r2, #0
    2c0e:	f843 1c04 	str.w	r1, [r3, #-4]
    2c12:	dcea      	bgt.n	2bea <_ZN16FileConfigSource15has_config_fileEv+0x46>
    2c14:	a901      	add	r1, sp, #4
    2c16:	f002 f9fd 	bl	5014 <_ZNSs4_Rep10_M_destroyERKSaIcE>
    2c1a:	e7e6      	b.n	2bea <_ZN16FileConfigSource15has_config_fileEv+0x46>
    2c1c:	10000964 	.word	0x10000964

00002c20 <_ZN16FileConfigSource15get_config_fileEv>:
    2c20:	b538      	push	{r3, r4, r5, lr}
    2c22:	7b0b      	ldrb	r3, [r1, #12]
    2c24:	460d      	mov	r5, r1
    2c26:	4604      	mov	r4, r0
    2c28:	b91b      	cbnz	r3, 2c32 <_ZN16FileConfigSource15get_config_fileEv+0x12>
    2c2a:	4608      	mov	r0, r1
    2c2c:	f7ff ffba 	bl	2ba4 <_ZN16FileConfigSource15has_config_fileEv>
    2c30:	b130      	cbz	r0, 2c40 <_ZN16FileConfigSource15get_config_fileEv+0x20>
    2c32:	4620      	mov	r0, r4
    2c34:	f105 0108 	add.w	r1, r5, #8
    2c38:	f002 faa5 	bl	5186 <_ZNSsC1ERKSs>
    2c3c:	4620      	mov	r0, r4
    2c3e:	bd38      	pop	{r3, r4, r5, pc}
    2c40:	4802      	ldr	r0, [pc, #8]	; (2c4c <_ZN16FileConfigSource15get_config_fileEv+0x2c>)
    2c42:	f004 f9c7 	bl	6fd4 <puts>
    2c46:	4620      	mov	r0, r4
    2c48:	bd38      	pop	{r3, r4, r5, pc}
    2c4a:	bf00      	nop
    2c4c:	00009004 	.word	0x00009004

00002c50 <_ZN16FileConfigSource4readESt6vectorItSaItEE>:
    2c50:	e92d 4ff0 	stmdb	sp!, {r4, r5, r6, r7, r8, r9, r10, r11, lr}
    2c54:	b089      	sub	sp, #36	; 0x24
    2c56:	460c      	mov	r4, r1
    2c58:	4690      	mov	r8, r2
    2c5a:	49a7      	ldr	r1, [pc, #668]	; (2ef8 <_ZN16FileConfigSource4readESt6vectorItSaItEE+0x2a8>)
    2c5c:	aa01      	add	r2, sp, #4
    2c5e:	4681      	mov	r9, r0
    2c60:	f002 fb5e 	bl	5320 <_ZNSsC1EPKcRKSaIcE>
    2c64:	4620      	mov	r0, r4
    2c66:	f7ff ff9d 	bl	2ba4 <_ZN16FileConfigSource15has_config_fileEv>
    2c6a:	b918      	cbnz	r0, 2c74 <_ZN16FileConfigSource4readESt6vectorItSaItEE+0x24>
    2c6c:	4648      	mov	r0, r9
    2c6e:	b009      	add	sp, #36	; 0x24
    2c70:	e8bd 8ff0 	ldmia.w	sp!, {r4, r5, r6, r7, r8, r9, r10, r11, pc}
    2c74:	a804      	add	r0, sp, #16
    2c76:	4621      	mov	r1, r4
    2c78:	f7ff ffd2 	bl	2c20 <_ZN16FileConfigSource15get_config_fileEv>
    2c7c:	9804      	ldr	r0, [sp, #16]
    2c7e:	499f      	ldr	r1, [pc, #636]	; (2efc <_ZN16FileConfigSource4readESt6vectorItSaItEE+0x2ac>)
    2c80:	f003 fd30 	bl	66e4 <fopen>
    2c84:	9b04      	ldr	r3, [sp, #16]
    2c86:	4e9e      	ldr	r6, [pc, #632]	; (2f00 <_ZN16FileConfigSource4readESt6vectorItSaItEE+0x2b0>)
    2c88:	4607      	mov	r7, r0
    2c8a:	f1a3 000c 	sub.w	r0, r3, #12
    2c8e:	42b0      	cmp	r0, r6
    2c90:	f040 8125 	bne.w	2ede <_ZN16FileConfigSource4readESt6vectorItSaItEE+0x28e>
    2c94:	489b      	ldr	r0, [pc, #620]	; (2f04 <_ZN16FileConfigSource4readESt6vectorItSaItEE+0x2b4>)
    2c96:	ad08      	add	r5, sp, #32
    2c98:	f845 0d18 	str.w	r0, [r5, #-24]!
    2c9c:	4638      	mov	r0, r7
    2c9e:	f003 fc1b 	bl	64d8 <fgetc>
    2ca2:	280a      	cmp	r0, #10
    2ca4:	4604      	mov	r4, r0
    2ca6:	9b02      	ldr	r3, [sp, #8]
    2ca8:	d023      	beq.n	2cf2 <_ZN16FileConfigSource4readESt6vectorItSaItEE+0xa2>
    2caa:	1c41      	adds	r1, r0, #1
    2cac:	d021      	beq.n	2cf2 <_ZN16FileConfigSource4readESt6vectorItSaItEE+0xa2>
    2cae:	f853 1c0c 	ldr.w	r1, [r3, #-12]
    2cb2:	f853 2c08 	ldr.w	r2, [r3, #-8]
    2cb6:	f101 0b01 	add.w	r11, r1, #1
    2cba:	4593      	cmp	r11, r2
    2cbc:	b2c4      	uxtb	r4, r0
    2cbe:	d803      	bhi.n	2cc8 <_ZN16FileConfigSource4readESt6vectorItSaItEE+0x78>
    2cc0:	f853 0c04 	ldr.w	r0, [r3, #-4]
    2cc4:	2800      	cmp	r0, #0
    2cc6:	dd06      	ble.n	2cd6 <_ZN16FileConfigSource4readESt6vectorItSaItEE+0x86>
    2cc8:	4659      	mov	r1, r11
    2cca:	4628      	mov	r0, r5
    2ccc:	f002 fa66 	bl	519c <_ZNSs7reserveEj>
    2cd0:	9b02      	ldr	r3, [sp, #8]
    2cd2:	f853 1c0c 	ldr.w	r1, [r3, #-12]
    2cd6:	545c      	strb	r4, [r3, r1]
    2cd8:	9c02      	ldr	r4, [sp, #8]
    2cda:	f1a4 020c 	sub.w	r2, r4, #12
    2cde:	42b2      	cmp	r2, r6
    2ce0:	d0dc      	beq.n	2c9c <_ZN16FileConfigSource4readESt6vectorItSaItEE+0x4c>
    2ce2:	2000      	movs	r0, #0
    2ce4:	f844 0c04 	str.w	r0, [r4, #-4]
    2ce8:	f844 bc0c 	str.w	r11, [r4, #-12]
    2cec:	f804 000b 	strb.w	r0, [r4, r11]
    2cf0:	e7d4      	b.n	2c9c <_ZN16FileConfigSource4readESt6vectorItSaItEE+0x4c>
    2cf2:	f853 1c04 	ldr.w	r1, [r3, #-4]
    2cf6:	2900      	cmp	r1, #0
    2cf8:	db03      	blt.n	2d02 <_ZN16FileConfigSource4readESt6vectorItSaItEE+0xb2>
    2cfa:	4628      	mov	r0, r5
    2cfc:	f002 f9e8 	bl	50d0 <_ZNSs12_M_leak_hardEv>
    2d00:	9b02      	ldr	r3, [sp, #8]
    2d02:	781a      	ldrb	r2, [r3, #0]
    2d04:	2a23      	cmp	r2, #35	; 0x23
    2d06:	f000 80bd 	beq.w	2e84 <_ZN16FileConfigSource4readESt6vectorItSaItEE+0x234>
    2d0a:	f853 2c0c 	ldr.w	r2, [r3, #-12]
    2d0e:	2a02      	cmp	r2, #2
    2d10:	d819      	bhi.n	2d46 <_ZN16FileConfigSource4readESt6vectorItSaItEE+0xf6>
    2d12:	2100      	movs	r1, #0
    2d14:	4628      	mov	r0, r5
    2d16:	460b      	mov	r3, r1
    2d18:	f002 f98c 	bl	5034 <_ZNSs9_M_mutateEjjj>
    2d1c:	1c62      	adds	r2, r4, #1
    2d1e:	d1bd      	bne.n	2c9c <_ZN16FileConfigSource4readESt6vectorItSaItEE+0x4c>
    2d20:	4638      	mov	r0, r7
    2d22:	f003 faef 	bl	6304 <fclose>
    2d26:	9b02      	ldr	r3, [sp, #8]
    2d28:	f1a3 000c 	sub.w	r0, r3, #12
    2d2c:	42b0      	cmp	r0, r6
    2d2e:	d09d      	beq.n	2c6c <_ZN16FileConfigSource4readESt6vectorItSaItEE+0x1c>
    2d30:	f853 2c04 	ldr.w	r2, [r3, #-4]
    2d34:	1e51      	subs	r1, r2, #1
    2d36:	2a00      	cmp	r2, #0
    2d38:	f843 1c04 	str.w	r1, [r3, #-4]
    2d3c:	dc96      	bgt.n	2c6c <_ZN16FileConfigSource4readESt6vectorItSaItEE+0x1c>
    2d3e:	a901      	add	r1, sp, #4
    2d40:	f002 f968 	bl	5014 <_ZNSs4_Rep10_M_destroyERKSaIcE>
    2d44:	e792      	b.n	2c6c <_ZN16FileConfigSource4readESt6vectorItSaItEE+0x1c>
    2d46:	2200      	movs	r2, #0
    2d48:	2301      	movs	r3, #1
    2d4a:	496f      	ldr	r1, [pc, #444]	; (2f08 <_ZN16FileConfigSource4readESt6vectorItSaItEE+0x2b8>)
    2d4c:	4628      	mov	r0, r5
    2d4e:	f002 f911 	bl	4f74 <_ZNKSs17find_first_not_ofEPKcjj>
    2d52:	4682      	mov	r10, r0
    2d54:	2301      	movs	r3, #1
    2d56:	496c      	ldr	r1, [pc, #432]	; (2f08 <_ZN16FileConfigSource4readESt6vectorItSaItEE+0x2b8>)
    2d58:	4652      	mov	r2, r10
    2d5a:	4628      	mov	r0, r5
    2d5c:	f002 f8f1 	bl	4f42 <_ZNKSs13find_first_ofEPKcjj>
    2d60:	2301      	movs	r3, #1
    2d62:	4602      	mov	r2, r0
    2d64:	4968      	ldr	r1, [pc, #416]	; (2f08 <_ZN16FileConfigSource4readESt6vectorItSaItEE+0x2b8>)
    2d66:	4628      	mov	r0, r5
    2d68:	f002 f904 	bl	4f74 <_ZNKSs17find_first_not_ofEPKcjj>
    2d6c:	2301      	movs	r3, #1
    2d6e:	4966      	ldr	r1, [pc, #408]	; (2f08 <_ZN16FileConfigSource4readESt6vectorItSaItEE+0x2b8>)
    2d70:	4683      	mov	r11, r0
    2d72:	4652      	mov	r2, r10
    2d74:	4628      	mov	r0, r5
    2d76:	f002 f8e4 	bl	4f42 <_ZNKSs13find_first_ofEPKcjj>
    2d7a:	ebca 0300 	rsb	r3, r10, r0
    2d7e:	9802      	ldr	r0, [sp, #8]
    2d80:	f850 1c0c 	ldr.w	r1, [r0, #-12]
    2d84:	458a      	cmp	r10, r1
    2d86:	f200 8090 	bhi.w	2eaa <_ZN16FileConfigSource4readESt6vectorItSaItEE+0x25a>
    2d8a:	4629      	mov	r1, r5
    2d8c:	4652      	mov	r2, r10
    2d8e:	a804      	add	r0, sp, #16
    2d90:	f002 fa84 	bl	529c <_ZNSsC1ERKSsjj>
    2d94:	2201      	movs	r2, #1
    2d96:	495c      	ldr	r1, [pc, #368]	; (2f08 <_ZN16FileConfigSource4readESt6vectorItSaItEE+0x2b8>)
    2d98:	a804      	add	r0, sp, #16
    2d9a:	f002 fa1f 	bl	51dc <_ZNSs6appendEPKcj>
    2d9e:	4601      	mov	r1, r0
    2da0:	a803      	add	r0, sp, #12
    2da2:	f002 f9f0 	bl	5186 <_ZNSsC1ERKSs>
    2da6:	9b04      	ldr	r3, [sp, #16]
    2da8:	f1a3 000c 	sub.w	r0, r3, #12
    2dac:	42b0      	cmp	r0, r6
    2dae:	d17f      	bne.n	2eb0 <_ZN16FileConfigSource4readESt6vectorItSaItEE+0x260>
    2db0:	a903      	add	r1, sp, #12
    2db2:	a804      	add	r0, sp, #16
    2db4:	f002 f9e7 	bl	5186 <_ZNSsC1ERKSs>
    2db8:	a805      	add	r0, sp, #20
    2dba:	a904      	add	r1, sp, #16
    2dbc:	f7ff f8ba 	bl	1f34 <_Z13get_checksumsSs>
    2dc0:	9b04      	ldr	r3, [sp, #16]
    2dc2:	f1a3 000c 	sub.w	r0, r3, #12
    2dc6:	42b0      	cmp	r0, r6
    2dc8:	d164      	bne.n	2e94 <_ZN16FileConfigSource4readESt6vectorItSaItEE+0x244>
    2dca:	e898 0005 	ldmia.w	r8, {r0, r2}
    2dce:	1a13      	subs	r3, r2, r0
    2dd0:	105a      	asrs	r2, r3, #1
    2dd2:	9905      	ldr	r1, [sp, #20]
    2dd4:	9b06      	ldr	r3, [sp, #24]
    2dd6:	1a5b      	subs	r3, r3, r1
    2dd8:	ebb2 0f63 	cmp.w	r2, r3, asr #1
    2ddc:	d01b      	beq.n	2e16 <_ZN16FileConfigSource4readESt6vectorItSaItEE+0x1c6>
    2dde:	9a02      	ldr	r2, [sp, #8]
    2de0:	2100      	movs	r1, #0
    2de2:	4628      	mov	r0, r5
    2de4:	f852 2c0c 	ldr.w	r2, [r2, #-12]
    2de8:	460b      	mov	r3, r1
    2dea:	f002 f923 	bl	5034 <_ZNSs9_M_mutateEjjj>
    2dee:	9805      	ldr	r0, [sp, #20]
    2df0:	b108      	cbz	r0, 2df6 <_ZN16FileConfigSource4readESt6vectorItSaItEE+0x1a6>
    2df2:	f001 fd63 	bl	48bc <_ZdlPv>
    2df6:	9b03      	ldr	r3, [sp, #12]
    2df8:	f1a3 000c 	sub.w	r0, r3, #12
    2dfc:	42b0      	cmp	r0, r6
    2dfe:	d08d      	beq.n	2d1c <_ZN16FileConfigSource4readESt6vectorItSaItEE+0xcc>
    2e00:	f853 2c04 	ldr.w	r2, [r3, #-4]
    2e04:	1e51      	subs	r1, r2, #1
    2e06:	2a00      	cmp	r2, #0
    2e08:	f843 1c04 	str.w	r1, [r3, #-4]
    2e0c:	dc86      	bgt.n	2d1c <_ZN16FileConfigSource4readESt6vectorItSaItEE+0xcc>
    2e0e:	a901      	add	r1, sp, #4
    2e10:	f002 f900 	bl	5014 <_ZNSs4_Rep10_M_destroyERKSaIcE>
    2e14:	e782      	b.n	2d1c <_ZN16FileConfigSource4readESt6vectorItSaItEE+0xcc>
    2e16:	0052      	lsls	r2, r2, #1
    2e18:	f004 f852 	bl	6ec0 <memcmp>
    2e1c:	2800      	cmp	r0, #0
    2e1e:	d1de      	bne.n	2dde <_ZN16FileConfigSource4readESt6vectorItSaItEE+0x18e>
    2e20:	2304      	movs	r3, #4
    2e22:	f10b 0201 	add.w	r2, r11, #1
    2e26:	4628      	mov	r0, r5
    2e28:	4938      	ldr	r1, [pc, #224]	; (2f0c <_ZN16FileConfigSource4readESt6vectorItSaItEE+0x2bc>)
    2e2a:	f002 f88a 	bl	4f42 <_ZNKSs13find_first_ofEPKcjj>
    2e2e:	ebcb 0300 	rsb	r3, r11, r0
    2e32:	9802      	ldr	r0, [sp, #8]
    2e34:	f850 2c0c 	ldr.w	r2, [r0, #-12]
    2e38:	455a      	cmp	r2, r11
    2e3a:	d336      	bcc.n	2eaa <_ZN16FileConfigSource4readESt6vectorItSaItEE+0x25a>
    2e3c:	465a      	mov	r2, r11
    2e3e:	4629      	mov	r1, r5
    2e40:	a804      	add	r0, sp, #16
    2e42:	f002 fa2b 	bl	529c <_ZNSsC1ERKSsjj>
    2e46:	4648      	mov	r0, r9
    2e48:	a904      	add	r1, sp, #16
    2e4a:	f002 f987 	bl	515c <_ZNSs6assignERKSs>
    2e4e:	9b04      	ldr	r3, [sp, #16]
    2e50:	f1a3 000c 	sub.w	r0, r3, #12
    2e54:	42b0      	cmp	r0, r6
    2e56:	d137      	bne.n	2ec8 <_ZN16FileConfigSource4readESt6vectorItSaItEE+0x278>
    2e58:	9805      	ldr	r0, [sp, #20]
    2e5a:	b108      	cbz	r0, 2e60 <_ZN16FileConfigSource4readESt6vectorItSaItEE+0x210>
    2e5c:	f001 fd2e 	bl	48bc <_ZdlPv>
    2e60:	9b03      	ldr	r3, [sp, #12]
    2e62:	f1a3 000c 	sub.w	r0, r3, #12
    2e66:	42b0      	cmp	r0, r6
    2e68:	f43f af5a 	beq.w	2d20 <_ZN16FileConfigSource4readESt6vectorItSaItEE+0xd0>
    2e6c:	f853 2c04 	ldr.w	r2, [r3, #-4]
    2e70:	1e51      	subs	r1, r2, #1
    2e72:	2a00      	cmp	r2, #0
    2e74:	f843 1c04 	str.w	r1, [r3, #-4]
    2e78:	f73f af52 	bgt.w	2d20 <_ZN16FileConfigSource4readESt6vectorItSaItEE+0xd0>
    2e7c:	a901      	add	r1, sp, #4
    2e7e:	f002 f8c9 	bl	5014 <_ZNSs4_Rep10_M_destroyERKSaIcE>
    2e82:	e74d      	b.n	2d20 <_ZN16FileConfigSource4readESt6vectorItSaItEE+0xd0>
    2e84:	2100      	movs	r1, #0
    2e86:	f853 2c0c 	ldr.w	r2, [r3, #-12]
    2e8a:	4628      	mov	r0, r5
    2e8c:	460b      	mov	r3, r1
    2e8e:	f002 f8d1 	bl	5034 <_ZNSs9_M_mutateEjjj>
    2e92:	e743      	b.n	2d1c <_ZN16FileConfigSource4readESt6vectorItSaItEE+0xcc>
    2e94:	f853 2c04 	ldr.w	r2, [r3, #-4]
    2e98:	1e51      	subs	r1, r2, #1
    2e9a:	2a00      	cmp	r2, #0
    2e9c:	f843 1c04 	str.w	r1, [r3, #-4]
    2ea0:	dc93      	bgt.n	2dca <_ZN16FileConfigSource4readESt6vectorItSaItEE+0x17a>
    2ea2:	a901      	add	r1, sp, #4
    2ea4:	f002 f8b6 	bl	5014 <_ZNSs4_Rep10_M_destroyERKSaIcE>
    2ea8:	e78f      	b.n	2dca <_ZN16FileConfigSource4readESt6vectorItSaItEE+0x17a>
    2eaa:	4819      	ldr	r0, [pc, #100]	; (2f10 <_ZN16FileConfigSource4readESt6vectorItSaItEE+0x2c0>)
    2eac:	f001 fffd 	bl	4eaa <_ZSt20__throw_out_of_rangePKc>
    2eb0:	f853 2c04 	ldr.w	r2, [r3, #-4]
    2eb4:	1e51      	subs	r1, r2, #1
    2eb6:	2a00      	cmp	r2, #0
    2eb8:	f843 1c04 	str.w	r1, [r3, #-4]
    2ebc:	f73f af78 	bgt.w	2db0 <_ZN16FileConfigSource4readESt6vectorItSaItEE+0x160>
    2ec0:	a901      	add	r1, sp, #4
    2ec2:	f002 f8a7 	bl	5014 <_ZNSs4_Rep10_M_destroyERKSaIcE>
    2ec6:	e773      	b.n	2db0 <_ZN16FileConfigSource4readESt6vectorItSaItEE+0x160>
    2ec8:	f853 2c04 	ldr.w	r2, [r3, #-4]
    2ecc:	1e51      	subs	r1, r2, #1
    2ece:	2a00      	cmp	r2, #0
    2ed0:	f843 1c04 	str.w	r1, [r3, #-4]
    2ed4:	dcc0      	bgt.n	2e58 <_ZN16FileConfigSource4readESt6vectorItSaItEE+0x208>
    2ed6:	a901      	add	r1, sp, #4
    2ed8:	f002 f89c 	bl	5014 <_ZNSs4_Rep10_M_destroyERKSaIcE>
    2edc:	e7bc      	b.n	2e58 <_ZN16FileConfigSource4readESt6vectorItSaItEE+0x208>
    2ede:	f853 2c04 	ldr.w	r2, [r3, #-4]
    2ee2:	1e51      	subs	r1, r2, #1
    2ee4:	2a00      	cmp	r2, #0
    2ee6:	f843 1c04 	str.w	r1, [r3, #-4]
    2eea:	f73f aed3 	bgt.w	2c94 <_ZN16FileConfigSource4readESt6vectorItSaItEE+0x44>
    2eee:	a901      	add	r1, sp, #4
    2ef0:	f002 f890 	bl	5014 <_ZNSs4_Rep10_M_destroyERKSaIcE>
    2ef4:	e6ce      	b.n	2c94 <_ZN16FileConfigSource4readESt6vectorItSaItEE+0x44>
    2ef6:	bf00      	nop
    2ef8:	00009020 	.word	0x00009020
    2efc:	00008e9c 	.word	0x00008e9c
    2f00:	10000964 	.word	0x10000964
    2f04:	10000970 	.word	0x10000970
    2f08:	00008e80 	.word	0x00008e80
    2f0c:	00009024 	.word	0x00009024
    2f10:	00008e84 	.word	0x00008e84

00002f14 <_ZN16FileConfigSource24transfer_values_to_cacheEP11ConfigCache>:
    2f14:	e92d 4ff0 	stmdb	sp!, {r4, r5, r6, r7, r8, r9, r10, r11, lr}
    2f18:	4604      	mov	r4, r0
    2f1a:	b091      	sub	sp, #68	; 0x44
    2f1c:	2028      	movs	r0, #40	; 0x28
    2f1e:	9101      	str	r1, [sp, #4]
    2f20:	f001 fcd0 	bl	48c4 <_Znwj>
    2f24:	4992      	ldr	r1, [pc, #584]	; (3170 <_ZN16FileConfigSource24transfer_values_to_cacheEP11ConfigCache+0x25c>)
    2f26:	2200      	movs	r2, #0
    2f28:	e880 0006 	stmia.w	r0, {r1, r2}
    2f2c:	6082      	str	r2, [r0, #8]
    2f2e:	60c2      	str	r2, [r0, #12]
    2f30:	6201      	str	r1, [r0, #32]
    2f32:	7482      	strb	r2, [r0, #18]
    2f34:	74c2      	strb	r2, [r0, #19]
    2f36:	4620      	mov	r0, r4
    2f38:	f7ff fe34 	bl	2ba4 <_ZN16FileConfigSource15has_config_fileEv>
    2f3c:	b910      	cbnz	r0, 2f44 <_ZN16FileConfigSource24transfer_values_to_cacheEP11ConfigCache+0x30>
    2f3e:	b011      	add	sp, #68	; 0x44
    2f40:	e8bd 8ff0 	ldmia.w	sp!, {r4, r5, r6, r7, r8, r9, r10, r11, pc}
    2f44:	a80b      	add	r0, sp, #44	; 0x2c
    2f46:	4621      	mov	r1, r4
    2f48:	f7ff fe6a 	bl	2c20 <_ZN16FileConfigSource15get_config_fileEv>
    2f4c:	980b      	ldr	r0, [sp, #44]	; 0x2c
    2f4e:	4989      	ldr	r1, [pc, #548]	; (3174 <_ZN16FileConfigSource24transfer_values_to_cacheEP11ConfigCache+0x260>)
    2f50:	f003 fbc8 	bl	66e4 <fopen>
    2f54:	9b0b      	ldr	r3, [sp, #44]	; 0x2c
    2f56:	4a86      	ldr	r2, [pc, #536]	; (3170 <_ZN16FileConfigSource24transfer_values_to_cacheEP11ConfigCache+0x25c>)
    2f58:	9002      	str	r0, [sp, #8]
    2f5a:	f1a2 090c 	sub.w	r9, r2, #12
    2f5e:	f1a3 000c 	sub.w	r0, r3, #12
    2f62:	4548      	cmp	r0, r9
    2f64:	f040 8193 	bne.w	328e <_ZN16FileConfigSource24transfer_values_to_cacheEP11ConfigCache+0x37a>
    2f68:	4881      	ldr	r0, [pc, #516]	; (3170 <_ZN16FileConfigSource24transfer_values_to_cacheEP11ConfigCache+0x25c>)
    2f6a:	f10d 0840 	add.w	r8, sp, #64	; 0x40
    2f6e:	f848 0d1c 	str.w	r0, [r8, #-28]!
    2f72:	9802      	ldr	r0, [sp, #8]
    2f74:	f003 fab0 	bl	64d8 <fgetc>
    2f78:	280a      	cmp	r0, #10
    2f7a:	4605      	mov	r5, r0
    2f7c:	9b09      	ldr	r3, [sp, #36]	; 0x24
    2f7e:	d021      	beq.n	2fc4 <_ZN16FileConfigSource24transfer_values_to_cacheEP11ConfigCache+0xb0>
    2f80:	1c42      	adds	r2, r0, #1
    2f82:	d01f      	beq.n	2fc4 <_ZN16FileConfigSource24transfer_values_to_cacheEP11ConfigCache+0xb0>
    2f84:	f853 2c0c 	ldr.w	r2, [r3, #-12]
    2f88:	f853 1c08 	ldr.w	r1, [r3, #-8]
    2f8c:	1c54      	adds	r4, r2, #1
    2f8e:	428c      	cmp	r4, r1
    2f90:	b2c5      	uxtb	r5, r0
    2f92:	d803      	bhi.n	2f9c <_ZN16FileConfigSource24transfer_values_to_cacheEP11ConfigCache+0x88>
    2f94:	f853 0c04 	ldr.w	r0, [r3, #-4]
    2f98:	2800      	cmp	r0, #0
    2f9a:	dd06      	ble.n	2faa <_ZN16FileConfigSource24transfer_values_to_cacheEP11ConfigCache+0x96>
    2f9c:	4640      	mov	r0, r8
    2f9e:	4621      	mov	r1, r4
    2fa0:	f002 f8fc 	bl	519c <_ZNSs7reserveEj>
    2fa4:	9b09      	ldr	r3, [sp, #36]	; 0x24
    2fa6:	f853 2c0c 	ldr.w	r2, [r3, #-12]
    2faa:	549d      	strb	r5, [r3, r2]
    2fac:	9d09      	ldr	r5, [sp, #36]	; 0x24
    2fae:	f1a5 010c 	sub.w	r1, r5, #12
    2fb2:	4549      	cmp	r1, r9
    2fb4:	d0dd      	beq.n	2f72 <_ZN16FileConfigSource24transfer_values_to_cacheEP11ConfigCache+0x5e>
    2fb6:	2000      	movs	r0, #0
    2fb8:	f845 0c04 	str.w	r0, [r5, #-4]
    2fbc:	f845 4c0c 	str.w	r4, [r5, #-12]
    2fc0:	5528      	strb	r0, [r5, r4]
    2fc2:	e7d6      	b.n	2f72 <_ZN16FileConfigSource24transfer_values_to_cacheEP11ConfigCache+0x5e>
    2fc4:	f853 2c04 	ldr.w	r2, [r3, #-4]
    2fc8:	2a00      	cmp	r2, #0
    2fca:	db03      	blt.n	2fd4 <_ZN16FileConfigSource24transfer_values_to_cacheEP11ConfigCache+0xc0>
    2fcc:	4640      	mov	r0, r8
    2fce:	f002 f87f 	bl	50d0 <_ZNSs12_M_leak_hardEv>
    2fd2:	9b09      	ldr	r3, [sp, #36]	; 0x24
    2fd4:	7819      	ldrb	r1, [r3, #0]
    2fd6:	2923      	cmp	r1, #35	; 0x23
    2fd8:	f000 813f 	beq.w	325a <_ZN16FileConfigSource24transfer_values_to_cacheEP11ConfigCache+0x346>
    2fdc:	f853 2c0c 	ldr.w	r2, [r3, #-12]
    2fe0:	2a02      	cmp	r2, #2
    2fe2:	d819      	bhi.n	3018 <_ZN16FileConfigSource24transfer_values_to_cacheEP11ConfigCache+0x104>
    2fe4:	2100      	movs	r1, #0
    2fe6:	4640      	mov	r0, r8
    2fe8:	460b      	mov	r3, r1
    2fea:	f002 f823 	bl	5034 <_ZNSs9_M_mutateEjjj>
    2fee:	1c68      	adds	r0, r5, #1
    2ff0:	d1bf      	bne.n	2f72 <_ZN16FileConfigSource24transfer_values_to_cacheEP11ConfigCache+0x5e>
    2ff2:	9802      	ldr	r0, [sp, #8]
    2ff4:	f003 f986 	bl	6304 <fclose>
    2ff8:	9b09      	ldr	r3, [sp, #36]	; 0x24
    2ffa:	f1a3 000c 	sub.w	r0, r3, #12
    2ffe:	4548      	cmp	r0, r9
    3000:	d09d      	beq.n	2f3e <_ZN16FileConfigSource24transfer_values_to_cacheEP11ConfigCache+0x2a>
    3002:	f853 2c04 	ldr.w	r2, [r3, #-4]
    3006:	1e51      	subs	r1, r2, #1
    3008:	2a00      	cmp	r2, #0
    300a:	f843 1c04 	str.w	r1, [r3, #-4]
    300e:	dc96      	bgt.n	2f3e <_ZN16FileConfigSource24transfer_values_to_cacheEP11ConfigCache+0x2a>
    3010:	a908      	add	r1, sp, #32
    3012:	f001 ffff 	bl	5014 <_ZNSs4_Rep10_M_destroyERKSaIcE>
    3016:	e792      	b.n	2f3e <_ZN16FileConfigSource24transfer_values_to_cacheEP11ConfigCache+0x2a>
    3018:	2200      	movs	r2, #0
    301a:	2301      	movs	r3, #1
    301c:	4956      	ldr	r1, [pc, #344]	; (3178 <_ZN16FileConfigSource24transfer_values_to_cacheEP11ConfigCache+0x264>)
    301e:	4640      	mov	r0, r8
    3020:	f001 ffa8 	bl	4f74 <_ZNKSs17find_first_not_ofEPKcjj>
    3024:	4604      	mov	r4, r0
    3026:	2301      	movs	r3, #1
    3028:	4953      	ldr	r1, [pc, #332]	; (3178 <_ZN16FileConfigSource24transfer_values_to_cacheEP11ConfigCache+0x264>)
    302a:	4622      	mov	r2, r4
    302c:	4640      	mov	r0, r8
    302e:	f001 ff88 	bl	4f42 <_ZNKSs13find_first_ofEPKcjj>
    3032:	2301      	movs	r3, #1
    3034:	4602      	mov	r2, r0
    3036:	4950      	ldr	r1, [pc, #320]	; (3178 <_ZN16FileConfigSource24transfer_values_to_cacheEP11ConfigCache+0x264>)
    3038:	4640      	mov	r0, r8
    303a:	f001 ff9b 	bl	4f74 <_ZNKSs17find_first_not_ofEPKcjj>
    303e:	2301      	movs	r3, #1
    3040:	4607      	mov	r7, r0
    3042:	494d      	ldr	r1, [pc, #308]	; (3178 <_ZN16FileConfigSource24transfer_values_to_cacheEP11ConfigCache+0x264>)
    3044:	4640      	mov	r0, r8
    3046:	4622      	mov	r2, r4
    3048:	f001 ff7b 	bl	4f42 <_ZNKSs13find_first_ofEPKcjj>
    304c:	9e09      	ldr	r6, [sp, #36]	; 0x24
    304e:	1b03      	subs	r3, r0, r4
    3050:	f856 0c0c 	ldr.w	r0, [r6, #-12]
    3054:	4284      	cmp	r4, r0
    3056:	f200 8126 	bhi.w	32a6 <_ZN16FileConfigSource24transfer_values_to_cacheEP11ConfigCache+0x392>
    305a:	4641      	mov	r1, r8
    305c:	4622      	mov	r2, r4
    305e:	a80b      	add	r0, sp, #44	; 0x2c
    3060:	f002 f91c 	bl	529c <_ZNSsC1ERKSsjj>
    3064:	2201      	movs	r2, #1
    3066:	4944      	ldr	r1, [pc, #272]	; (3178 <_ZN16FileConfigSource24transfer_values_to_cacheEP11ConfigCache+0x264>)
    3068:	a80b      	add	r0, sp, #44	; 0x2c
    306a:	f002 f8b7 	bl	51dc <_ZNSs6appendEPKcj>
    306e:	4601      	mov	r1, r0
    3070:	a80a      	add	r0, sp, #40	; 0x28
    3072:	f002 f888 	bl	5186 <_ZNSsC1ERKSs>
    3076:	9b0b      	ldr	r3, [sp, #44]	; 0x2c
    3078:	f1a3 000c 	sub.w	r0, r3, #12
    307c:	4548      	cmp	r0, r9
    307e:	f040 8115 	bne.w	32ac <_ZN16FileConfigSource24transfer_values_to_cacheEP11ConfigCache+0x398>
    3082:	a90a      	add	r1, sp, #40	; 0x28
    3084:	a80b      	add	r0, sp, #44	; 0x2c
    3086:	f002 f87e 	bl	5186 <_ZNSsC1ERKSs>
    308a:	a80d      	add	r0, sp, #52	; 0x34
    308c:	a90b      	add	r1, sp, #44	; 0x2c
    308e:	f7fe ff51 	bl	1f34 <_Z13get_checksumsSs>
    3092:	9e0b      	ldr	r6, [sp, #44]	; 0x2c
    3094:	f1a6 000c 	sub.w	r0, r6, #12
    3098:	4548      	cmp	r0, r9
    309a:	f040 8113 	bne.w	32c4 <_ZN16FileConfigSource24transfer_values_to_cacheEP11ConfigCache+0x3b0>
    309e:	2028      	movs	r0, #40	; 0x28
    30a0:	f001 fc10 	bl	48c4 <_Znwj>
    30a4:	4606      	mov	r6, r0
    30a6:	4832      	ldr	r0, [pc, #200]	; (3170 <_ZN16FileConfigSource24transfer_values_to_cacheEP11ConfigCache+0x25c>)
    30a8:	2300      	movs	r3, #0
    30aa:	2201      	movs	r2, #1
    30ac:	a90d      	add	r1, sp, #52	; 0x34
    30ae:	6030      	str	r0, [r6, #0]
    30b0:	6073      	str	r3, [r6, #4]
    30b2:	60b3      	str	r3, [r6, #8]
    30b4:	60f3      	str	r3, [r6, #12]
    30b6:	6230      	str	r0, [r6, #32]
    30b8:	74f3      	strb	r3, [r6, #19]
    30ba:	74b2      	strb	r2, [r6, #18]
    30bc:	1d30      	adds	r0, r6, #4
    30be:	f7fe ffff 	bl	20c0 <_ZNSt6vectorItSaItEEaSERKS1_>
    30c2:	2304      	movs	r3, #4
    30c4:	492d      	ldr	r1, [pc, #180]	; (317c <_ZN16FileConfigSource24transfer_values_to_cacheEP11ConfigCache+0x268>)
    30c6:	1c7a      	adds	r2, r7, #1
    30c8:	4640      	mov	r0, r8
    30ca:	f001 ff3a 	bl	4f42 <_ZNKSs13find_first_ofEPKcjj>
    30ce:	9909      	ldr	r1, [sp, #36]	; 0x24
    30d0:	1bc3      	subs	r3, r0, r7
    30d2:	f851 0c0c 	ldr.w	r0, [r1, #-12]
    30d6:	4287      	cmp	r7, r0
    30d8:	f200 80e5 	bhi.w	32a6 <_ZN16FileConfigSource24transfer_values_to_cacheEP11ConfigCache+0x392>
    30dc:	463a      	mov	r2, r7
    30de:	4641      	mov	r1, r8
    30e0:	a80b      	add	r0, sp, #44	; 0x2c
    30e2:	f002 f8db 	bl	529c <_ZNSsC1ERKSsjj>
    30e6:	4630      	mov	r0, r6
    30e8:	a90b      	add	r1, sp, #44	; 0x2c
    30ea:	f002 f837 	bl	515c <_ZNSs6assignERKSs>
    30ee:	9b0b      	ldr	r3, [sp, #44]	; 0x2c
    30f0:	f1a3 000c 	sub.w	r0, r3, #12
    30f4:	4548      	cmp	r0, r9
    30f6:	f040 80f1 	bne.w	32dc <_ZN16FileConfigSource24transfer_values_to_cacheEP11ConfigCache+0x3c8>
    30fa:	9801      	ldr	r0, [sp, #4]
    30fc:	9a01      	ldr	r2, [sp, #4]
    30fe:	6843      	ldr	r3, [r0, #4]
    3100:	6811      	ldr	r1, [r2, #0]
    3102:	9306      	str	r3, [sp, #24]
    3104:	1a5b      	subs	r3, r3, r1
    3106:	109b      	asrs	r3, r3, #2
    3108:	2b01      	cmp	r3, #1
    310a:	9100      	str	r1, [sp, #0]
    310c:	960c      	str	r6, [sp, #48]	; 0x30
    310e:	9303      	str	r3, [sp, #12]
    3110:	f240 8095 	bls.w	323e <_ZN16FileConfigSource24transfer_values_to_cacheEP11ConfigCache+0x32a>
    3114:	6870      	ldr	r0, [r6, #4]
    3116:	68b7      	ldr	r7, [r6, #8]
    3118:	1a3a      	subs	r2, r7, r0
    311a:	1051      	asrs	r1, r2, #1
    311c:	f000 80b0 	beq.w	3280 <_ZN16FileConfigSource24transfer_values_to_cacheEP11ConfigCache+0x36c>
    3120:	8807      	ldrh	r7, [r0, #0]
    3122:	f04f 0e01 	mov.w	lr, #1
    3126:	9704      	str	r7, [sp, #16]
    3128:	9607      	str	r6, [sp, #28]
    312a:	4677      	mov	r7, lr
    312c:	461e      	mov	r6, r3
    312e:	4684      	mov	r12, r0
    3130:	42be      	cmp	r6, r7
    3132:	f240 80a2 	bls.w	327a <_ZN16FileConfigSource24transfer_values_to_cacheEP11ConfigCache+0x366>
    3136:	9a00      	ldr	r2, [sp, #0]
    3138:	00bb      	lsls	r3, r7, #2
    313a:	f852 0027 	ldr.w	r0, [r2, r7, lsl #2]
    313e:	9305      	str	r3, [sp, #20]
    3140:	f8d0 a004 	ldr.w	r10, [r0, #4]
    3144:	9a04      	ldr	r2, [sp, #16]
    3146:	f8ba 3000 	ldrh.w	r3, [r10]
    314a:	4293      	cmp	r3, r2
    314c:	d170      	bne.n	3230 <_ZN16FileConfigSource24transfer_values_to_cacheEP11ConfigCache+0x31c>
    314e:	2400      	movs	r4, #0
    3150:	f011 0f01 	tst.w	r1, #1
    3154:	4663      	mov	r3, r12
    3156:	4652      	mov	r2, r10
    3158:	d11f      	bne.n	319a <_ZN16FileConfigSource24transfer_values_to_cacheEP11ConfigCache+0x286>
    315a:	4663      	mov	r3, r12
    315c:	f833 bf02 	ldrh.w	r11, [r3, #2]!
    3160:	f8ba a002 	ldrh.w	r10, [r10, #2]
    3164:	2401      	movs	r4, #1
    3166:	3202      	adds	r2, #2
    3168:	45d3      	cmp	r11, r10
    316a:	d016      	beq.n	319a <_ZN16FileConfigSource24transfer_values_to_cacheEP11ConfigCache+0x286>
    316c:	e060      	b.n	3230 <_ZN16FileConfigSource24transfer_values_to_cacheEP11ConfigCache+0x31c>
    316e:	bf00      	nop
    3170:	10000970 	.word	0x10000970
    3174:	00008e9c 	.word	0x00008e9c
    3178:	00008e80 	.word	0x00008e80
    317c:	00009024 	.word	0x00009024
    3180:	f833 bf02 	ldrh.w	r11, [r3, #2]!
    3184:	f832 af02 	ldrh.w	r10, [r2, #2]!
    3188:	45d3      	cmp	r11, r10
    318a:	d151      	bne.n	3230 <_ZN16FileConfigSource24transfer_values_to_cacheEP11ConfigCache+0x31c>
    318c:	f833 bf02 	ldrh.w	r11, [r3, #2]!
    3190:	f832 af02 	ldrh.w	r10, [r2, #2]!
    3194:	3401      	adds	r4, #1
    3196:	45d3      	cmp	r11, r10
    3198:	d14a      	bne.n	3230 <_ZN16FileConfigSource24transfer_values_to_cacheEP11ConfigCache+0x31c>
    319a:	3401      	adds	r4, #1
    319c:	42a1      	cmp	r1, r4
    319e:	d1ef      	bne.n	3180 <_ZN16FileConfigSource24transfer_values_to_cacheEP11ConfigCache+0x26c>
    31a0:	4682      	mov	r10, r0
    31a2:	f1ba 0f00 	cmp.w	r10, #0
    31a6:	d01e      	beq.n	31e6 <_ZN16FileConfigSource24transfer_values_to_cacheEP11ConfigCache+0x2d2>
    31a8:	f8da 3020 	ldr.w	r3, [r10, #32]
    31ac:	f1a3 000c 	sub.w	r0, r3, #12
    31b0:	4548      	cmp	r0, r9
    31b2:	f040 809f 	bne.w	32f4 <_ZN16FileConfigSource24transfer_values_to_cacheEP11ConfigCache+0x3e0>
    31b6:	f8da 0004 	ldr.w	r0, [r10, #4]
    31ba:	b108      	cbz	r0, 31c0 <_ZN16FileConfigSource24transfer_values_to_cacheEP11ConfigCache+0x2ac>
    31bc:	f001 fb7e 	bl	48bc <_ZdlPv>
    31c0:	f8da 3000 	ldr.w	r3, [r10]
    31c4:	f1a3 000c 	sub.w	r0, r3, #12
    31c8:	4548      	cmp	r0, r9
    31ca:	f040 809f 	bne.w	330c <_ZN16FileConfigSource24transfer_values_to_cacheEP11ConfigCache+0x3f8>
    31ce:	4650      	mov	r0, r10
    31d0:	f001 fb74 	bl	48bc <_ZdlPv>
    31d4:	9801      	ldr	r0, [sp, #4]
    31d6:	9a01      	ldr	r2, [sp, #4]
    31d8:	6803      	ldr	r3, [r0, #0]
    31da:	6851      	ldr	r1, [r2, #4]
    31dc:	9300      	str	r3, [sp, #0]
    31de:	9800      	ldr	r0, [sp, #0]
    31e0:	1a0b      	subs	r3, r1, r0
    31e2:	109a      	asrs	r2, r3, #2
    31e4:	9203      	str	r2, [sp, #12]
    31e6:	9903      	ldr	r1, [sp, #12]
    31e8:	428f      	cmp	r7, r1
    31ea:	d246      	bcs.n	327a <_ZN16FileConfigSource24transfer_values_to_cacheEP11ConfigCache+0x366>
    31ec:	980c      	ldr	r0, [sp, #48]	; 0x30
    31ee:	9b00      	ldr	r3, [sp, #0]
    31f0:	9a05      	ldr	r2, [sp, #20]
    31f2:	5098      	str	r0, [r3, r2]
    31f4:	9b09      	ldr	r3, [sp, #36]	; 0x24
    31f6:	2100      	movs	r1, #0
    31f8:	4640      	mov	r0, r8
    31fa:	f853 2c0c 	ldr.w	r2, [r3, #-12]
    31fe:	460b      	mov	r3, r1
    3200:	f001 ff18 	bl	5034 <_ZNSs9_M_mutateEjjj>
    3204:	980d      	ldr	r0, [sp, #52]	; 0x34
    3206:	b108      	cbz	r0, 320c <_ZN16FileConfigSource24transfer_values_to_cacheEP11ConfigCache+0x2f8>
    3208:	f001 fb58 	bl	48bc <_ZdlPv>
    320c:	9b0a      	ldr	r3, [sp, #40]	; 0x28
    320e:	f1a3 000c 	sub.w	r0, r3, #12
    3212:	4548      	cmp	r0, r9
    3214:	f43f aeeb 	beq.w	2fee <_ZN16FileConfigSource24transfer_values_to_cacheEP11ConfigCache+0xda>
    3218:	f853 2c04 	ldr.w	r2, [r3, #-4]
    321c:	1e51      	subs	r1, r2, #1
    321e:	2a00      	cmp	r2, #0
    3220:	f843 1c04 	str.w	r1, [r3, #-4]
    3224:	f73f aee3 	bgt.w	2fee <_ZN16FileConfigSource24transfer_values_to_cacheEP11ConfigCache+0xda>
    3228:	a908      	add	r1, sp, #32
    322a:	f001 fef3 	bl	5014 <_ZNSs4_Rep10_M_destroyERKSaIcE>
    322e:	e6de      	b.n	2fee <_ZN16FileConfigSource24transfer_values_to_cacheEP11ConfigCache+0xda>
    3230:	f10e 0e01 	add.w	lr, lr, #1
    3234:	45b6      	cmp	lr, r6
    3236:	4677      	mov	r7, lr
    3238:	f47f af7a 	bne.w	3130 <_ZN16FileConfigSource24transfer_values_to_cacheEP11ConfigCache+0x21c>
    323c:	9e07      	ldr	r6, [sp, #28]
    323e:	9901      	ldr	r1, [sp, #4]
    3240:	9b06      	ldr	r3, [sp, #24]
    3242:	6888      	ldr	r0, [r1, #8]
    3244:	4298      	cmp	r0, r3
    3246:	d012      	beq.n	326e <_ZN16FileConfigSource24transfer_values_to_cacheEP11ConfigCache+0x35a>
    3248:	9a06      	ldr	r2, [sp, #24]
    324a:	b172      	cbz	r2, 326a <_ZN16FileConfigSource24transfer_values_to_cacheEP11ConfigCache+0x356>
    324c:	9801      	ldr	r0, [sp, #4]
    324e:	6016      	str	r6, [r2, #0]
    3250:	6841      	ldr	r1, [r0, #4]
    3252:	9a01      	ldr	r2, [sp, #4]
    3254:	1d0b      	adds	r3, r1, #4
    3256:	6053      	str	r3, [r2, #4]
    3258:	e7cc      	b.n	31f4 <_ZN16FileConfigSource24transfer_values_to_cacheEP11ConfigCache+0x2e0>
    325a:	2100      	movs	r1, #0
    325c:	f853 2c0c 	ldr.w	r2, [r3, #-12]
    3260:	4640      	mov	r0, r8
    3262:	460b      	mov	r3, r1
    3264:	f001 fee6 	bl	5034 <_ZNSs9_M_mutateEjjj>
    3268:	e6c1      	b.n	2fee <_ZN16FileConfigSource24transfer_values_to_cacheEP11ConfigCache+0xda>
    326a:	9906      	ldr	r1, [sp, #24]
    326c:	e7f1      	b.n	3252 <_ZN16FileConfigSource24transfer_values_to_cacheEP11ConfigCache+0x33e>
    326e:	9801      	ldr	r0, [sp, #4]
    3270:	9906      	ldr	r1, [sp, #24]
    3272:	aa0c      	add	r2, sp, #48	; 0x30
    3274:	f7fe ff8a 	bl	218c <_ZNSt6vectorIP11ConfigValueSaIS1_EE13_M_insert_auxEN9__gnu_cxx17__normal_iteratorIPS1_S3_EERKS1_>
    3278:	e7bc      	b.n	31f4 <_ZN16FileConfigSource24transfer_values_to_cacheEP11ConfigCache+0x2e0>
    327a:	482a      	ldr	r0, [pc, #168]	; (3324 <_ZN16FileConfigSource24transfer_values_to_cacheEP11ConfigCache+0x410>)
    327c:	f001 fe15 	bl	4eaa <_ZSt20__throw_out_of_rangePKc>
    3280:	9b00      	ldr	r3, [sp, #0]
    3282:	2004      	movs	r0, #4
    3284:	f8d3 a004 	ldr.w	r10, [r3, #4]
    3288:	2701      	movs	r7, #1
    328a:	9005      	str	r0, [sp, #20]
    328c:	e789      	b.n	31a2 <_ZN16FileConfigSource24transfer_values_to_cacheEP11ConfigCache+0x28e>
    328e:	f853 5c04 	ldr.w	r5, [r3, #-4]
    3292:	1e69      	subs	r1, r5, #1
    3294:	2d00      	cmp	r5, #0
    3296:	f843 1c04 	str.w	r1, [r3, #-4]
    329a:	f73f ae65 	bgt.w	2f68 <_ZN16FileConfigSource24transfer_values_to_cacheEP11ConfigCache+0x54>
    329e:	a908      	add	r1, sp, #32
    32a0:	f001 feb8 	bl	5014 <_ZNSs4_Rep10_M_destroyERKSaIcE>
    32a4:	e660      	b.n	2f68 <_ZN16FileConfigSource24transfer_values_to_cacheEP11ConfigCache+0x54>
    32a6:	4820      	ldr	r0, [pc, #128]	; (3328 <_ZN16FileConfigSource24transfer_values_to_cacheEP11ConfigCache+0x414>)
    32a8:	f001 fdff 	bl	4eaa <_ZSt20__throw_out_of_rangePKc>
    32ac:	f853 2c04 	ldr.w	r2, [r3, #-4]
    32b0:	1e51      	subs	r1, r2, #1
    32b2:	2a00      	cmp	r2, #0
    32b4:	f843 1c04 	str.w	r1, [r3, #-4]
    32b8:	f73f aee3 	bgt.w	3082 <_ZN16FileConfigSource24transfer_values_to_cacheEP11ConfigCache+0x16e>
    32bc:	a908      	add	r1, sp, #32
    32be:	f001 fea9 	bl	5014 <_ZNSs4_Rep10_M_destroyERKSaIcE>
    32c2:	e6de      	b.n	3082 <_ZN16FileConfigSource24transfer_values_to_cacheEP11ConfigCache+0x16e>
    32c4:	f856 3c04 	ldr.w	r3, [r6, #-4]
    32c8:	1e5a      	subs	r2, r3, #1
    32ca:	2b00      	cmp	r3, #0
    32cc:	f846 2c04 	str.w	r2, [r6, #-4]
    32d0:	f73f aee5 	bgt.w	309e <_ZN16FileConfigSource24transfer_values_to_cacheEP11ConfigCache+0x18a>
    32d4:	a908      	add	r1, sp, #32
    32d6:	f001 fe9d 	bl	5014 <_ZNSs4_Rep10_M_destroyERKSaIcE>
    32da:	e6e0      	b.n	309e <_ZN16FileConfigSource24transfer_values_to_cacheEP11ConfigCache+0x18a>
    32dc:	f853 2c04 	ldr.w	r2, [r3, #-4]
    32e0:	1e51      	subs	r1, r2, #1
    32e2:	2a00      	cmp	r2, #0
    32e4:	f843 1c04 	str.w	r1, [r3, #-4]
    32e8:	f73f af07 	bgt.w	30fa <_ZN16FileConfigSource24transfer_values_to_cacheEP11ConfigCache+0x1e6>
    32ec:	a908      	add	r1, sp, #32
    32ee:	f001 fe91 	bl	5014 <_ZNSs4_Rep10_M_destroyERKSaIcE>
    32f2:	e702      	b.n	30fa <_ZN16FileConfigSource24transfer_values_to_cacheEP11ConfigCache+0x1e6>
    32f4:	f853 2c04 	ldr.w	r2, [r3, #-4]
    32f8:	1e51      	subs	r1, r2, #1
    32fa:	2a00      	cmp	r2, #0
    32fc:	f843 1c04 	str.w	r1, [r3, #-4]
    3300:	f73f af59 	bgt.w	31b6 <_ZN16FileConfigSource24transfer_values_to_cacheEP11ConfigCache+0x2a2>
    3304:	a908      	add	r1, sp, #32
    3306:	f001 fe85 	bl	5014 <_ZNSs4_Rep10_M_destroyERKSaIcE>
    330a:	e754      	b.n	31b6 <_ZN16FileConfigSource24transfer_values_to_cacheEP11ConfigCache+0x2a2>
    330c:	f853 2c04 	ldr.w	r2, [r3, #-4]
    3310:	1e51      	subs	r1, r2, #1
    3312:	2a00      	cmp	r2, #0
    3314:	f843 1c04 	str.w	r1, [r3, #-4]
    3318:	f73f af59 	bgt.w	31ce <_ZN16FileConfigSource24transfer_values_to_cacheEP11ConfigCache+0x2ba>
    331c:	a908      	add	r1, sp, #32
    331e:	f001 fe79 	bl	5014 <_ZNSs4_Rep10_M_destroyERKSaIcE>
    3322:	e754      	b.n	31ce <_ZN16FileConfigSource24transfer_values_to_cacheEP11ConfigCache+0x2ba>
    3324:	00008ef8 	.word	0x00008ef8
    3328:	00008e84 	.word	0x00008e84

0000332c <_start>:
    332c:	f240 1048 	movw	r0, #328	; 0x148
    3330:	f640 128c 	movw	r2, #2444	; 0x98c
    3334:	f2c1 0000 	movt	r0, #4096	; 0x1000
    3338:	f2c1 0200 	movt	r2, #4096	; 0x1000
    333c:	b508      	push	{r3, lr}
    333e:	2100      	movs	r1, #0
    3340:	1a12      	subs	r2, r2, r0
    3342:	f003 fdef 	bl	6f24 <memset>
    3346:	f3af 8000 	nop.w
    334a:	f003 fcd7 	bl	6cfc <__libc_init_array>
    334e:	f7fd ff55 	bl	11fc <main>
    3352:	f000 fc7f 	bl	3c54 <exit>
    3356:	bf00      	nop

00003358 <__wrap__isatty>:
    3358:	2802      	cmp	r0, #2
    335a:	dc01      	bgt.n	3360 <__wrap__isatty+0x8>
    335c:	2001      	movs	r0, #1
    335e:	4770      	bx	lr
    3360:	f005 baf0 	b.w	8944 <_isatty>

00003364 <abort>:
    3364:	b508      	push	{r3, lr}
    3366:	2001      	movs	r0, #1
    3368:	f000 fc74 	bl	3c54 <exit>

0000336c <__cxa_pure_virtual>:
    336c:	b508      	push	{r3, lr}
    336e:	f7ff fff9 	bl	3364 <abort>
    3372:	bf00      	nop

00003374 <Reset_Handler>:
    3374:	4907      	ldr	r1, [pc, #28]	; (3394 <.flash_to_ram_loop+0x1a>)
    3376:	4a08      	ldr	r2, [pc, #32]	; (3398 <.flash_to_ram_loop+0x1e>)
    3378:	4b08      	ldr	r3, [pc, #32]	; (339c <.flash_to_ram_loop+0x22>)

0000337a <.flash_to_ram_loop>:
    337a:	429a      	cmp	r2, r3
    337c:	bfbe      	ittt	lt
    337e:	f851 0b04 	ldrlt.w	r0, [r1], #4
    3382:	f842 0b04 	strlt.w	r0, [r2], #4
    3386:	f7ff bff8 	blt.w	337a <.flash_to_ram_loop>
    338a:	4805      	ldr	r0, [pc, #20]	; (33a0 <.flash_to_ram_loop+0x26>)
    338c:	4780      	blx	r0
    338e:	4805      	ldr	r0, [pc, #20]	; (33a4 <.flash_to_ram_loop+0x2a>)
    3390:	4700      	bx	r0
    3392:	0000      	.short	0x0000
    3394:	00009860 	.word	0x00009860
    3398:	100000c8 	.word	0x100000c8
    339c:	10000148 	.word	0x10000148
    33a0:	0000345d 	.word	0x0000345d
    33a4:	0000332d 	.word	0x0000332d

000033a8 <NMI_Handler>:
    33a8:	e7fe      	b.n	33a8 <NMI_Handler>

000033aa <HardFault_Handler>:
    33aa:	e7fe      	b.n	33aa <HardFault_Handler>

000033ac <MemManage_Handler>:
    33ac:	e7fe      	b.n	33ac <MemManage_Handler>

000033ae <BusFault_Handler>:
    33ae:	e7fe      	b.n	33ae <BusFault_Handler>

000033b0 <UsageFault_Handler>:
    33b0:	e7fe      	b.n	33b0 <UsageFault_Handler>

000033b2 <SVC_Handler>:
    33b2:	e7fe      	b.n	33b2 <SVC_Handler>

000033b4 <DebugMon_Handler>:
    33b4:	e7fe      	b.n	33b4 <DebugMon_Handler>

000033b6 <PendSV_Handler>:
    33b6:	e7fe      	b.n	33b6 <PendSV_Handler>

000033b8 <SysTick_Handler>:
    33b8:	e7fe      	b.n	33b8 <SysTick_Handler>

000033ba <DEF_IRQHandler>:
    33ba:	e7fe      	b.n	33ba <DEF_IRQHandler>

000033bc <WDT_IRQHandler>:
    33bc:	e7fe      	b.n	33bc <WDT_IRQHandler>

000033be <TIMER0_IRQHandler>:
    33be:	e7fe      	b.n	33be <TIMER0_IRQHandler>

000033c0 <TIMER1_IRQHandler>:
    33c0:	e7fe      	b.n	33c0 <TIMER1_IRQHandler>

000033c2 <TIMER2_IRQHandler>:
    33c2:	e7fe      	b.n	33c2 <TIMER2_IRQHandler>

000033c4 <TIMER3_IRQHandler>:
    33c4:	e7fe      	b.n	33c4 <TIMER3_IRQHandler>

000033c6 <UART0_IRQHandler>:
    33c6:	e7fe      	b.n	33c6 <UART0_IRQHandler>

000033c8 <UART1_IRQHandler>:
    33c8:	e7fe      	b.n	33c8 <UART1_IRQHandler>

000033ca <UART2_IRQHandler>:
    33ca:	e7fe      	b.n	33ca <UART2_IRQHandler>

000033cc <UART3_IRQHandler>:
    33cc:	e7fe      	b.n	33cc <UART3_IRQHandler>

000033ce <PWM1_IRQHandler>:
    33ce:	e7fe      	b.n	33ce <PWM1_IRQHandler>

000033d0 <I2C0_IRQHandler>:
    33d0:	e7fe      	b.n	33d0 <I2C0_IRQHandler>

000033d2 <I2C1_IRQHandler>:
    33d2:	e7fe      	b.n	33d2 <I2C1_IRQHandler>

000033d4 <I2C2_IRQHandler>:
    33d4:	e7fe      	b.n	33d4 <I2C2_IRQHandler>

000033d6 <SPI_IRQHandler>:
    33d6:	e7fe      	b.n	33d6 <SPI_IRQHandler>

000033d8 <SSP0_IRQHandler>:
    33d8:	e7fe      	b.n	33d8 <SSP0_IRQHandler>

000033da <SSP1_IRQHandler>:
    33da:	e7fe      	b.n	33da <SSP1_IRQHandler>

000033dc <PLL0_IRQHandler>:
    33dc:	e7fe      	b.n	33dc <PLL0_IRQHandler>

000033de <RTC_IRQHandler>:
    33de:	e7fe      	b.n	33de <RTC_IRQHandler>

000033e0 <EINT0_IRQHandler>:
    33e0:	e7fe      	b.n	33e0 <EINT0_IRQHandler>

000033e2 <EINT1_IRQHandler>:
    33e2:	e7fe      	b.n	33e2 <EINT1_IRQHandler>

000033e4 <EINT2_IRQHandler>:
    33e4:	e7fe      	b.n	33e4 <EINT2_IRQHandler>

000033e6 <EINT3_IRQHandler>:
    33e6:	e7fe      	b.n	33e6 <EINT3_IRQHandler>

000033e8 <ADC_IRQHandler>:
    33e8:	e7fe      	b.n	33e8 <ADC_IRQHandler>

000033ea <BOD_IRQHandler>:
    33ea:	e7fe      	b.n	33ea <BOD_IRQHandler>

000033ec <USB_IRQHandler>:
    33ec:	e7fe      	b.n	33ec <USB_IRQHandler>

000033ee <CAN_IRQHandler>:
    33ee:	e7fe      	b.n	33ee <CAN_IRQHandler>

000033f0 <DMA_IRQHandler>:
    33f0:	e7fe      	b.n	33f0 <DMA_IRQHandler>

000033f2 <I2S_IRQHandler>:
    33f2:	e7fe      	b.n	33f2 <I2S_IRQHandler>

000033f4 <ENET_IRQHandler>:
    33f4:	e7fe      	b.n	33f4 <ENET_IRQHandler>

000033f6 <RIT_IRQHandler>:
    33f6:	e7fe      	b.n	33f6 <RIT_IRQHandler>

000033f8 <MCPWM_IRQHandler>:
    33f8:	e7fe      	b.n	33f8 <MCPWM_IRQHandler>

000033fa <QEI_IRQHandler>:
    33fa:	e7fe      	b.n	33fa <QEI_IRQHandler>

000033fc <PLL1_IRQHandler>:
    33fc:	e7fe      	b.n	33fc <PLL1_IRQHandler>

000033fe <USBActivity_IRQHandler>:
    33fe:	e7fe      	b.n	33fe <USBActivity_IRQHandler>

00003400 <CANActivity_IRQHandler>:
    3400:	e7fe      	b.n	3400 <CANActivity_IRQHandler>
    3402:	bf00      	nop

00003404 <NVIC_SetVector>:
    3404:	f44f 436d 	mov.w	r3, #60672	; 0xed00
    3408:	f2ce 0300 	movt	r3, #57344	; 0xe000
    340c:	689a      	ldr	r2, [r3, #8]
    340e:	b470      	push	{r4, r5, r6}
    3410:	f1b2 5f80 	cmp.w	r2, #268435456	; 0x10000000
    3414:	d019      	beq.n	344a <NVIC_SetVector+0x46>
    3416:	689e      	ldr	r6, [r3, #8]
    3418:	f04f 5580 	mov.w	r5, #268435456	; 0x10000000
    341c:	6832      	ldr	r2, [r6, #0]
    341e:	f1c6 5480 	rsb	r4, r6, #268435456	; 0x10000000
    3422:	4633      	mov	r3, r6
    3424:	3404      	adds	r4, #4
    3426:	36c0      	adds	r6, #192	; 0xc0
    3428:	602a      	str	r2, [r5, #0]
    342a:	685d      	ldr	r5, [r3, #4]
    342c:	1d1a      	adds	r2, r3, #4
    342e:	50e5      	str	r5, [r4, r3]
    3430:	689d      	ldr	r5, [r3, #8]
    3432:	3308      	adds	r3, #8
    3434:	42b3      	cmp	r3, r6
    3436:	50a5      	str	r5, [r4, r2]
    3438:	d1f7      	bne.n	342a <NVIC_SetVector+0x26>
    343a:	f44f 4c6d 	mov.w	r12, #60672	; 0xed00
    343e:	f2ce 0c00 	movt	r12, #57344	; 0xe000
    3442:	f04f 5380 	mov.w	r3, #268435456	; 0x10000000
    3446:	f8cc 3008 	str.w	r3, [r12, #8]
    344a:	f100 0010 	add.w	r0, r0, #16
    344e:	0082      	lsls	r2, r0, #2
    3450:	f102 5c80 	add.w	r12, r2, #268435456	; 0x10000000
    3454:	f8cc 1000 	str.w	r1, [r12]
    3458:	bc70      	pop	{r4, r5, r6}
    345a:	4770      	bx	lr

0000345c <SystemInit>:
    345c:	f44f 4240 	mov.w	r2, #49152	; 0xc000
    3460:	f2c4 020f 	movt	r2, #16399	; 0x400f
    3464:	2320      	movs	r3, #32
    3466:	b430      	push	{r4, r5}
    3468:	f8c2 31a0 	str.w	r3, [r2, #416]	; 0x1a0
    346c:	f8d2 01a0 	ldr.w	r0, [r2, #416]	; 0x1a0
    3470:	0680      	lsls	r0, r0, #26
    3472:	d456      	bmi.n	3522 <SystemInit+0xc6>
    3474:	f44f 4c40 	mov.w	r12, #49152	; 0xc000
    3478:	f2c4 0c0f 	movt	r12, #16399	; 0x400f
    347c:	2500      	movs	r5, #0
    347e:	2002      	movs	r0, #2
    3480:	f8cc 0104 	str.w	r0, [r12, #260]	; 0x104
    3484:	2401      	movs	r4, #1
    3486:	f8cc 51a8 	str.w	r5, [r12, #424]	; 0x1a8
    348a:	23aa      	movs	r3, #170	; 0xaa
    348c:	f8cc 51ac 	str.w	r5, [r12, #428]	; 0x1ac
    3490:	2255      	movs	r2, #85	; 0x55
    3492:	250b      	movs	r5, #11
    3494:	f8cc 410c 	str.w	r4, [r12, #268]	; 0x10c
    3498:	4661      	mov	r1, r12
    349a:	f8cc 5084 	str.w	r5, [r12, #132]	; 0x84
    349e:	f8cc 308c 	str.w	r3, [r12, #140]	; 0x8c
    34a2:	f8cc 208c 	str.w	r2, [r12, #140]	; 0x8c
    34a6:	f8cc 4080 	str.w	r4, [r12, #128]	; 0x80
    34aa:	f8cc 308c 	str.w	r3, [r12, #140]	; 0x8c
    34ae:	f8cc 208c 	str.w	r2, [r12, #140]	; 0x8c
    34b2:	f8d1 2088 	ldr.w	r2, [r1, #136]	; 0x88
    34b6:	f44f 4c40 	mov.w	r12, #49152	; 0xc000
    34ba:	0152      	lsls	r2, r2, #5
    34bc:	f2c4 0c0f 	movt	r12, #16399	; 0x400f
    34c0:	d5f7      	bpl.n	34b2 <SystemInit+0x56>
    34c2:	2303      	movs	r3, #3
    34c4:	21aa      	movs	r1, #170	; 0xaa
    34c6:	2255      	movs	r2, #85	; 0x55
    34c8:	f8cc 3080 	str.w	r3, [r12, #128]	; 0x80
    34cc:	4660      	mov	r0, r12
    34ce:	f8cc 108c 	str.w	r1, [r12, #140]	; 0x8c
    34d2:	f8cc 208c 	str.w	r2, [r12, #140]	; 0x8c
    34d6:	f8d0 1088 	ldr.w	r1, [r0, #136]	; 0x88
    34da:	f44f 4c40 	mov.w	r12, #49152	; 0xc000
    34de:	f011 7f40 	tst.w	r1, #50331648	; 0x3000000
    34e2:	f2c4 0c0f 	movt	r12, #16399	; 0x400f
    34e6:	d0f6      	beq.n	34d6 <SystemInit+0x7a>
    34e8:	f248 73de 	movw	r3, #34782	; 0x87de
    34ec:	f2c0 4328 	movt	r3, #1064	; 0x428
    34f0:	2005      	movs	r0, #5
    34f2:	2200      	movs	r2, #0
    34f4:	f8cc 0108 	str.w	r0, [r12, #264]	; 0x108
    34f8:	f8cc 30c4 	str.w	r3, [r12, #196]	; 0xc4
    34fc:	f8cc 21c8 	str.w	r2, [r12, #456]	; 0x1c8
    3500:	f8dc 1000 	ldr.w	r1, [r12]
    3504:	f421 4370 	bic.w	r3, r1, #61440	; 0xf000
    3508:	f023 003a 	bic.w	r0, r3, #58	; 0x3a
    350c:	f440 5240 	orr.w	r2, r0, #12288	; 0x3000
    3510:	4b08      	ldr	r3, [pc, #32]	; (3534 <SystemInit+0xd8>)
    3512:	f042 013a 	orr.w	r1, r2, #58	; 0x3a
    3516:	2001      	movs	r0, #1
    3518:	f8cc 1000 	str.w	r1, [r12]
    351c:	6018      	str	r0, [r3, #0]
    351e:	bc30      	pop	{r4, r5}
    3520:	4770      	bx	lr
    3522:	f8d2 11a0 	ldr.w	r1, [r2, #416]	; 0x1a0
    3526:	0649      	lsls	r1, r1, #25
    3528:	d4a4      	bmi.n	3474 <SystemInit+0x18>
    352a:	f8d2 11a0 	ldr.w	r1, [r2, #416]	; 0x1a0
    352e:	0649      	lsls	r1, r1, #25
    3530:	d5f7      	bpl.n	3522 <SystemInit+0xc6>
    3532:	e79f      	b.n	3474 <SystemInit+0x18>
    3534:	10000858 	.word	0x10000858

00003538 <uart2_irq>:
    3538:	b508      	push	{r3, lr}
    353a:	f44f 4300 	mov.w	r3, #32768	; 0x8000
    353e:	f2c4 0309 	movt	r3, #16393	; 0x4009
    3542:	6899      	ldr	r1, [r3, #8]
    3544:	f3c1 0142 	ubfx	r1, r1, #1, #3
    3548:	2901      	cmp	r1, #1
    354a:	d003      	beq.n	3554 <uart2_irq+0x1c>
    354c:	2902      	cmp	r1, #2
    354e:	d000      	beq.n	3552 <uart2_irq+0x1a>
    3550:	bd08      	pop	{r3, pc}
    3552:	2100      	movs	r1, #0
    3554:	4803      	ldr	r0, [pc, #12]	; (3564 <uart2_irq+0x2c>)
    3556:	6880      	ldr	r0, [r0, #8]
    3558:	2800      	cmp	r0, #0
    355a:	d0f9      	beq.n	3550 <uart2_irq+0x18>
    355c:	4a02      	ldr	r2, [pc, #8]	; (3568 <uart2_irq+0x30>)
    355e:	6813      	ldr	r3, [r2, #0]
    3560:	4798      	blx	r3
    3562:	bd08      	pop	{r3, pc}
    3564:	10000844 	.word	0x10000844
    3568:	10000854 	.word	0x10000854

0000356c <uart3_irq>:
    356c:	b508      	push	{r3, lr}
    356e:	f44f 4340 	mov.w	r3, #49152	; 0xc000
    3572:	f2c4 0309 	movt	r3, #16393	; 0x4009
    3576:	6899      	ldr	r1, [r3, #8]
    3578:	f3c1 0142 	ubfx	r1, r1, #1, #3
    357c:	2901      	cmp	r1, #1
    357e:	d003      	beq.n	3588 <uart3_irq+0x1c>
    3580:	2902      	cmp	r1, #2
    3582:	d000      	beq.n	3586 <uart3_irq+0x1a>
    3584:	bd08      	pop	{r3, pc}
    3586:	2100      	movs	r1, #0
    3588:	4803      	ldr	r0, [pc, #12]	; (3598 <uart3_irq+0x2c>)
    358a:	68c0      	ldr	r0, [r0, #12]
    358c:	2800      	cmp	r0, #0
    358e:	d0f9      	beq.n	3584 <uart3_irq+0x18>
    3590:	4a02      	ldr	r2, [pc, #8]	; (359c <uart3_irq+0x30>)
    3592:	6813      	ldr	r3, [r2, #0]
    3594:	4798      	blx	r3
    3596:	bd08      	pop	{r3, pc}
    3598:	10000844 	.word	0x10000844
    359c:	10000854 	.word	0x10000854

000035a0 <uart0_irq>:
    35a0:	b508      	push	{r3, lr}
    35a2:	f44f 4340 	mov.w	r3, #49152	; 0xc000
    35a6:	f2c4 0300 	movt	r3, #16384	; 0x4000
    35aa:	6899      	ldr	r1, [r3, #8]
    35ac:	f3c1 0142 	ubfx	r1, r1, #1, #3
    35b0:	2901      	cmp	r1, #1
    35b2:	d003      	beq.n	35bc <uart0_irq+0x1c>
    35b4:	2902      	cmp	r1, #2
    35b6:	d000      	beq.n	35ba <uart0_irq+0x1a>
    35b8:	bd08      	pop	{r3, pc}
    35ba:	2100      	movs	r1, #0
    35bc:	4803      	ldr	r0, [pc, #12]	; (35cc <uart0_irq+0x2c>)
    35be:	6800      	ldr	r0, [r0, #0]
    35c0:	2800      	cmp	r0, #0
    35c2:	d0f9      	beq.n	35b8 <uart0_irq+0x18>
    35c4:	4a02      	ldr	r2, [pc, #8]	; (35d0 <uart0_irq+0x30>)
    35c6:	6813      	ldr	r3, [r2, #0]
    35c8:	4798      	blx	r3
    35ca:	bd08      	pop	{r3, pc}
    35cc:	10000844 	.word	0x10000844
    35d0:	10000854 	.word	0x10000854

000035d4 <uart1_irq>:
    35d4:	b508      	push	{r3, lr}
    35d6:	2300      	movs	r3, #0
    35d8:	f2c4 0301 	movt	r3, #16385	; 0x4001
    35dc:	6899      	ldr	r1, [r3, #8]
    35de:	f3c1 0142 	ubfx	r1, r1, #1, #3
    35e2:	2901      	cmp	r1, #1
    35e4:	d003      	beq.n	35ee <uart1_irq+0x1a>
    35e6:	2902      	cmp	r1, #2
    35e8:	d000      	beq.n	35ec <uart1_irq+0x18>
    35ea:	bd08      	pop	{r3, pc}
    35ec:	2100      	movs	r1, #0
    35ee:	4804      	ldr	r0, [pc, #16]	; (3600 <uart1_irq+0x2c>)
    35f0:	6840      	ldr	r0, [r0, #4]
    35f2:	2800      	cmp	r0, #0
    35f4:	d0f9      	beq.n	35ea <uart1_irq+0x16>
    35f6:	4a03      	ldr	r2, [pc, #12]	; (3604 <uart1_irq+0x30>)
    35f8:	6813      	ldr	r3, [r2, #0]
    35fa:	4798      	blx	r3
    35fc:	bd08      	pop	{r3, pc}
    35fe:	bf00      	nop
    3600:	10000844 	.word	0x10000844
    3604:	10000854 	.word	0x10000854

00003608 <serial_baud>:
    3608:	e92d 4ff0 	stmdb	sp!, {r4, r5, r6, r7, r8, r9, r10, r11, lr}
    360c:	2300      	movs	r3, #0
    360e:	6804      	ldr	r4, [r0, #0]
    3610:	f2c4 0301 	movt	r3, #16385	; 0x4001
    3614:	b08b      	sub	sp, #44	; 0x2c
    3616:	429c      	cmp	r4, r3
    3618:	9009      	str	r0, [sp, #36]	; 0x24
    361a:	f000 80fb 	beq.w	3814 <serial_baud+0x20c>
    361e:	f340 80d9 	ble.w	37d4 <serial_baud+0x1cc>
    3622:	f44f 4c00 	mov.w	r12, #32768	; 0x8000
    3626:	f2c4 0c09 	movt	r12, #16393	; 0x4009
    362a:	4564      	cmp	r4, r12
    362c:	f44f 4340 	mov.w	r3, #49152	; 0xc000
    3630:	f000 80e1 	beq.w	37f6 <serial_baud+0x1ee>
    3634:	f2c4 0309 	movt	r3, #16393	; 0x4009
    3638:	429c      	cmp	r4, r3
    363a:	f040 80d1 	bne.w	37e0 <serial_baud+0x1d8>
    363e:	f44f 4040 	mov.w	r0, #49152	; 0xc000
    3642:	f2c4 000f 	movt	r0, #16399	; 0x400f
    3646:	f8d0 21ac 	ldr.w	r2, [r0, #428]	; 0x1ac
    364a:	f422 2340 	bic.w	r3, r2, #786432	; 0xc0000
    364e:	f8c0 31ac 	str.w	r3, [r0, #428]	; 0x1ac
    3652:	f8d0 21ac 	ldr.w	r2, [r0, #428]	; 0x1ac
    3656:	f442 2380 	orr.w	r3, r2, #262144	; 0x40000
    365a:	f8c0 31ac 	str.w	r3, [r0, #428]	; 0x1ac
    365e:	4880      	ldr	r0, [pc, #512]	; (3860 <serial_baud+0x258>)
    3660:	010a      	lsls	r2, r1, #4
    3662:	6803      	ldr	r3, [r0, #0]
    3664:	9308      	str	r3, [sp, #32]
    3666:	9808      	ldr	r0, [sp, #32]
    3668:	fbb3 fcf2 	udiv	r12, r3, r2
    366c:	fb02 021c 	mls	r2, r2, r12, r0
    3670:	fa1f f38c 	uxth.w	r3, r12
    3674:	9307      	str	r3, [sp, #28]
    3676:	2a00      	cmp	r2, #0
    3678:	f000 80bb 	beq.w	37f2 <serial_baud+0x1ea>
    367c:	4608      	mov	r0, r1
    367e:	0859      	lsrs	r1, r3, #1
    3680:	9102      	str	r1, [sp, #8]
    3682:	f002 fbbd 	bl	5e00 <__aeabi_i2f>
    3686:	9a02      	ldr	r2, [sp, #8]
    3688:	4683      	mov	r11, r0
    368a:	9807      	ldr	r0, [sp, #28]
    368c:	4290      	cmp	r0, r2
    368e:	f0c0 80b0 	bcc.w	37f2 <serial_baud+0x1ea>
    3692:	9f07      	ldr	r7, [sp, #28]
    3694:	2401      	movs	r4, #1
    3696:	2100      	movs	r1, #0
    3698:	46da      	mov	r10, r11
    369a:	9703      	str	r7, [sp, #12]
    369c:	9405      	str	r4, [sp, #20]
    369e:	9104      	str	r1, [sp, #16]
    36a0:	f04f 0901 	mov.w	r9, #1
    36a4:	f109 0201 	add.w	r2, r9, #1
    36a8:	fa5f f982 	uxtb.w	r9, r2
    36ac:	2000      	movs	r0, #0
    36ae:	f1b9 0f10 	cmp.w	r9, #16
    36b2:	9006      	str	r0, [sp, #24]
    36b4:	9f08      	ldr	r7, [sp, #32]
    36b6:	d061      	beq.n	377c <serial_baud+0x174>
    36b8:	9802      	ldr	r0, [sp, #8]
    36ba:	f002 fb9d 	bl	5df8 <__aeabi_ui2f>
    36be:	f001 ffa7 	bl	5610 <__aeabi_f2d>
    36c2:	2300      	movs	r3, #0
    36c4:	2200      	movs	r2, #0
    36c6:	f2c4 0330 	movt	r3, #16432	; 0x4030
    36ca:	f001 fff5 	bl	56b8 <__aeabi_dmul>
    36ce:	e9cd 0100 	strd	r0, r1, [sp]
    36d2:	2601      	movs	r6, #1
    36d4:	4638      	mov	r0, r7
    36d6:	f002 fb8f 	bl	5df8 <__aeabi_ui2f>
    36da:	f001 ff99 	bl	5610 <__aeabi_f2d>
    36de:	4604      	mov	r4, r0
    36e0:	4630      	mov	r0, r6
    36e2:	460d      	mov	r5, r1
    36e4:	f002 fb88 	bl	5df8 <__aeabi_ui2f>
    36e8:	4680      	mov	r8, r0
    36ea:	4648      	mov	r0, r9
    36ec:	f002 fb84 	bl	5df8 <__aeabi_ui2f>
    36f0:	4601      	mov	r1, r0
    36f2:	4640      	mov	r0, r8
    36f4:	f002 fc8c 	bl	6010 <__aeabi_fdiv>
    36f8:	f04f 517e 	mov.w	r1, #1065353216	; 0x3f800000
    36fc:	f002 facc 	bl	5c98 <__addsf3>
    3700:	f001 ff86 	bl	5610 <__aeabi_f2d>
    3704:	4602      	mov	r2, r0
    3706:	460b      	mov	r3, r1
    3708:	e9dd 0100 	ldrd	r0, r1, [sp]
    370c:	f001 ffd4 	bl	56b8 <__aeabi_dmul>
    3710:	4602      	mov	r2, r0
    3712:	460b      	mov	r3, r1
    3714:	4620      	mov	r0, r4
    3716:	4629      	mov	r1, r5
    3718:	f002 f8f8 	bl	590c <__aeabi_ddiv>
    371c:	f002 fa66 	bl	5bec <__aeabi_d2f>
    3720:	4601      	mov	r1, r0
    3722:	4658      	mov	r0, r11
    3724:	f002 fab6 	bl	5c94 <__aeabi_fsub>
    3728:	4659      	mov	r1, r11
    372a:	f002 fc71 	bl	6010 <__aeabi_fdiv>
    372e:	f001 ff6f 	bl	5610 <__aeabi_f2d>
    3732:	f005 f91f 	bl	8974 <fabs>
    3736:	f002 fa59 	bl	5bec <__aeabi_d2f>
    373a:	4651      	mov	r1, r10
    373c:	4604      	mov	r4, r0
    373e:	f002 fd51 	bl	61e4 <__aeabi_fcmplt>
    3742:	b180      	cbz	r0, 3766 <serial_baud+0x15e>
    3744:	4620      	mov	r0, r4
    3746:	f001 ff63 	bl	5610 <__aeabi_f2d>
    374a:	a343      	add	r3, pc, #268	; (adr r3, 3858 <serial_baud+0x250>)
    374c:	e9d3 2300 	ldrd	r2, r3, [r3]
    3750:	f002 fa24 	bl	5b9c <__aeabi_dcmplt>
    3754:	9a02      	ldr	r2, [sp, #8]
    3756:	46a2      	mov	r10, r4
    3758:	f8cd 9014 	str.w	r9, [sp, #20]
    375c:	9604      	str	r6, [sp, #16]
    375e:	9203      	str	r2, [sp, #12]
    3760:	b108      	cbz	r0, 3766 <serial_baud+0x15e>
    3762:	2301      	movs	r3, #1
    3764:	9306      	str	r3, [sp, #24]
    3766:	3601      	adds	r6, #1
    3768:	b2f6      	uxtb	r6, r6
    376a:	454e      	cmp	r6, r9
    376c:	d1b2      	bne.n	36d4 <serial_baud+0xcc>
    376e:	f109 0201 	add.w	r2, r9, #1
    3772:	fa5f f982 	uxtb.w	r9, r2
    3776:	f1b9 0f10 	cmp.w	r9, #16
    377a:	d19d      	bne.n	36b8 <serial_baud+0xb0>
    377c:	9b02      	ldr	r3, [sp, #8]
    377e:	9807      	ldr	r0, [sp, #28]
    3780:	1c5c      	adds	r4, r3, #1
    3782:	b2a1      	uxth	r1, r4
    3784:	4288      	cmp	r0, r1
    3786:	9102      	str	r1, [sp, #8]
    3788:	d302      	bcc.n	3790 <serial_baud+0x188>
    378a:	9a06      	ldr	r2, [sp, #24]
    378c:	2a00      	cmp	r2, #0
    378e:	d087      	beq.n	36a0 <serial_baud+0x98>
    3790:	9b04      	ldr	r3, [sp, #16]
    3792:	9c05      	ldr	r4, [sp, #20]
    3794:	9a09      	ldr	r2, [sp, #36]	; 0x24
    3796:	9803      	ldr	r0, [sp, #12]
    3798:	ea43 1104 	orr.w	r1, r3, r4, lsl #4
    379c:	6814      	ldr	r4, [r2, #0]
    379e:	b2cb      	uxtb	r3, r1
    37a0:	9007      	str	r0, [sp, #28]
    37a2:	f894 c00c 	ldrb.w	r12, [r4, #12]
    37a6:	9907      	ldr	r1, [sp, #28]
    37a8:	f04c 0280 	orr.w	r2, r12, #128	; 0x80
    37ac:	7322      	strb	r2, [r4, #12]
    37ae:	9c09      	ldr	r4, [sp, #36]	; 0x24
    37b0:	0a08      	lsrs	r0, r1, #8
    37b2:	6822      	ldr	r2, [r4, #0]
    37b4:	9c09      	ldr	r4, [sp, #36]	; 0x24
    37b6:	7110      	strb	r0, [r2, #4]
    37b8:	6820      	ldr	r0, [r4, #0]
    37ba:	b2c9      	uxtb	r1, r1
    37bc:	7001      	strb	r1, [r0, #0]
    37be:	6822      	ldr	r2, [r4, #0]
    37c0:	f882 3028 	strb.w	r3, [r2, #40]	; 0x28
    37c4:	6823      	ldr	r3, [r4, #0]
    37c6:	7b19      	ldrb	r1, [r3, #12]
    37c8:	f001 007f 	and.w	r0, r1, #127	; 0x7f
    37cc:	7318      	strb	r0, [r3, #12]
    37ce:	b00b      	add	sp, #44	; 0x2c
    37d0:	e8bd 8ff0 	ldmia.w	sp!, {r4, r5, r6, r7, r8, r9, r10, r11, pc}
    37d4:	f44f 4040 	mov.w	r0, #49152	; 0xc000
    37d8:	f2c4 0000 	movt	r0, #16384	; 0x4000
    37dc:	4284      	cmp	r4, r0
    37de:	d02a      	beq.n	3836 <serial_baud+0x22e>
    37e0:	4d20      	ldr	r5, [pc, #128]	; (3864 <serial_baud+0x25c>)
    37e2:	4921      	ldr	r1, [pc, #132]	; (3868 <serial_baud+0x260>)
    37e4:	682e      	ldr	r6, [r5, #0]
    37e6:	68f0      	ldr	r0, [r6, #12]
    37e8:	f002 ff86 	bl	66f8 <fiprintf>
    37ec:	2001      	movs	r0, #1
    37ee:	f000 fa31 	bl	3c54 <exit>
    37f2:	2310      	movs	r3, #16
    37f4:	e7d5      	b.n	37a2 <serial_baud+0x19a>
    37f6:	f2c4 030f 	movt	r3, #16399	; 0x400f
    37fa:	f8d3 01ac 	ldr.w	r0, [r3, #428]	; 0x1ac
    37fe:	f420 3240 	bic.w	r2, r0, #196608	; 0x30000
    3802:	f8c3 21ac 	str.w	r2, [r3, #428]	; 0x1ac
    3806:	f8d3 01ac 	ldr.w	r0, [r3, #428]	; 0x1ac
    380a:	f440 3280 	orr.w	r2, r0, #65536	; 0x10000
    380e:	f8c3 21ac 	str.w	r2, [r3, #428]	; 0x1ac
    3812:	e724      	b.n	365e <serial_baud+0x56>
    3814:	f44f 4c40 	mov.w	r12, #49152	; 0xc000
    3818:	f2c4 0c0f 	movt	r12, #16399	; 0x400f
    381c:	f8dc 31a8 	ldr.w	r3, [r12, #424]	; 0x1a8
    3820:	f423 7040 	bic.w	r0, r3, #768	; 0x300
    3824:	f8cc 01a8 	str.w	r0, [r12, #424]	; 0x1a8
    3828:	f8dc 21a8 	ldr.w	r2, [r12, #424]	; 0x1a8
    382c:	f442 7380 	orr.w	r3, r2, #256	; 0x100
    3830:	f8cc 31a8 	str.w	r3, [r12, #424]	; 0x1a8
    3834:	e713      	b.n	365e <serial_baud+0x56>
    3836:	f44f 4c40 	mov.w	r12, #49152	; 0xc000
    383a:	f2c4 0c0f 	movt	r12, #16399	; 0x400f
    383e:	f8dc 21a8 	ldr.w	r2, [r12, #424]	; 0x1a8
    3842:	f022 03c0 	bic.w	r3, r2, #192	; 0xc0
    3846:	f8cc 31a8 	str.w	r3, [r12, #424]	; 0x1a8
    384a:	f8dc 01a8 	ldr.w	r0, [r12, #424]	; 0x1a8
    384e:	f040 0240 	orr.w	r2, r0, #64	; 0x40
    3852:	f8cc 21a8 	str.w	r2, [r12, #424]	; 0x1a8
    3856:	e702      	b.n	365e <serial_baud+0x56>
    3858:	d2f1a9fc 	.word	0xd2f1a9fc
    385c:	3f50624d 	.word	0x3f50624d
    3860:	100000cc 	.word	0x100000cc
    3864:	10000134 	.word	0x10000134
    3868:	000090a4 	.word	0x000090a4
    386c:	f3af 8000 	nop.w

00003870 <serial_format>:
    3870:	b538      	push	{r3, r4, r5, lr}
    3872:	1f4c      	subs	r4, r1, #5
    3874:	2c03      	cmp	r4, #3
    3876:	460d      	mov	r5, r1
    3878:	d82a      	bhi.n	38d0 <serial_format+0x60>
    387a:	2a04      	cmp	r2, #4
    387c:	d813      	bhi.n	38a6 <serial_format+0x36>
    387e:	e8df f002 	tbb	[pc, r2]
    3882:	1e1b      	.short	0x1e1b
    3884:	2421      	.short	0x2421
    3886:	03          	.byte	0x03
    3887:	00          	.byte	0x00
    3888:	2203      	movs	r2, #3
    388a:	2101      	movs	r1, #1
    388c:	3b01      	subs	r3, #1
    388e:	2b01      	cmp	r3, #1
    3890:	d828      	bhi.n	38e4 <serial_format+0x74>
    3892:	ea44 0483 	orr.w	r4, r4, r3, lsl #2
    3896:	ea44 0cc1 	orr.w	r12, r4, r1, lsl #3
    389a:	6800      	ldr	r0, [r0, #0]
    389c:	ea4c 1202 	orr.w	r2, r12, r2, lsl #4
    38a0:	b2d1      	uxtb	r1, r2
    38a2:	7301      	strb	r1, [r0, #12]
    38a4:	bd38      	pop	{r3, r4, r5, pc}
    38a6:	4910      	ldr	r1, [pc, #64]	; (38e8 <serial_format+0x78>)
    38a8:	4d10      	ldr	r5, [pc, #64]	; (38ec <serial_format+0x7c>)
    38aa:	682c      	ldr	r4, [r5, #0]
    38ac:	68e0      	ldr	r0, [r4, #12]
    38ae:	f002 ff23 	bl	66f8 <fiprintf>
    38b2:	2001      	movs	r0, #1
    38b4:	f000 f9ce 	bl	3c54 <exit>
    38b8:	2200      	movs	r2, #0
    38ba:	4611      	mov	r1, r2
    38bc:	e7e6      	b.n	388c <serial_format+0x1c>
    38be:	2200      	movs	r2, #0
    38c0:	2101      	movs	r1, #1
    38c2:	e7e3      	b.n	388c <serial_format+0x1c>
    38c4:	2201      	movs	r2, #1
    38c6:	4611      	mov	r1, r2
    38c8:	e7e0      	b.n	388c <serial_format+0x1c>
    38ca:	2202      	movs	r2, #2
    38cc:	2101      	movs	r1, #1
    38ce:	e7dd      	b.n	388c <serial_format+0x1c>
    38d0:	4b06      	ldr	r3, [pc, #24]	; (38ec <serial_format+0x7c>)
    38d2:	4907      	ldr	r1, [pc, #28]	; (38f0 <serial_format+0x80>)
    38d4:	6818      	ldr	r0, [r3, #0]
    38d6:	462a      	mov	r2, r5
    38d8:	68c0      	ldr	r0, [r0, #12]
    38da:	f002 ff0d 	bl	66f8 <fiprintf>
    38de:	2001      	movs	r0, #1
    38e0:	f000 f9b8 	bl	3c54 <exit>
    38e4:	4903      	ldr	r1, [pc, #12]	; (38f4 <serial_format+0x84>)
    38e6:	e7df      	b.n	38a8 <serial_format+0x38>
    38e8:	000090f0 	.word	0x000090f0
    38ec:	10000134 	.word	0x10000134
    38f0:	000090b0 	.word	0x000090b0
    38f4:	00009110 	.word	0x00009110

000038f8 <serial_init>:
    38f8:	e92d 43f8 	stmdb	sp!, {r3, r4, r5, r6, r7, r8, r9, lr}
    38fc:	460f      	mov	r7, r1
    38fe:	4605      	mov	r5, r0
    3900:	498d      	ldr	r1, [pc, #564]	; (3b38 <serial_init+0x240>)
    3902:	4638      	mov	r0, r7
    3904:	4616      	mov	r6, r2
    3906:	f000 f9f3 	bl	3cf0 <pinmap_peripheral>
    390a:	498c      	ldr	r1, [pc, #560]	; (3b3c <serial_init+0x244>)
    390c:	4604      	mov	r4, r0
    390e:	4630      	mov	r0, r6
    3910:	f000 f9ee 	bl	3cf0 <pinmap_peripheral>
    3914:	4601      	mov	r1, r0
    3916:	4620      	mov	r0, r4
    3918:	f000 f9d2 	bl	3cc0 <pinmap_merge>
    391c:	1c43      	adds	r3, r0, #1
    391e:	4604      	mov	r4, r0
    3920:	f000 8101 	beq.w	3b26 <serial_init+0x22e>
    3924:	2300      	movs	r3, #0
    3926:	f2c4 0301 	movt	r3, #16385	; 0x4001
    392a:	4298      	cmp	r0, r3
    392c:	6028      	str	r0, [r5, #0]
    392e:	d06c      	beq.n	3a0a <serial_init+0x112>
    3930:	d934      	bls.n	399c <serial_init+0xa4>
    3932:	f44f 4200 	mov.w	r2, #32768	; 0x8000
    3936:	f2c4 0209 	movt	r2, #16393	; 0x4009
    393a:	4290      	cmp	r0, r2
    393c:	f000 80bd 	beq.w	3aba <serial_init+0x1c2>
    3940:	f44f 4140 	mov.w	r1, #49152	; 0xc000
    3944:	f2c4 0109 	movt	r1, #16393	; 0x4009
    3948:	4288      	cmp	r0, r1
    394a:	d12d      	bne.n	39a8 <serial_init+0xb0>
    394c:	f44f 4c40 	mov.w	r12, #49152	; 0xc000
    3950:	f2c4 0c0f 	movt	r12, #16399	; 0x400f
    3954:	f8dc 00c4 	ldr.w	r0, [r12, #196]	; 0xc4
    3958:	f04f 0801 	mov.w	r8, #1
    395c:	f040 7200 	orr.w	r2, r0, #33554432	; 0x2000000
    3960:	f8cc 20c4 	str.w	r2, [r12, #196]	; 0xc4
    3964:	f884 8008 	strb.w	r8, [r4, #8]
    3968:	6829      	ldr	r1, [r5, #0]
    396a:	2400      	movs	r4, #0
    396c:	604c      	str	r4, [r1, #4]
    396e:	4628      	mov	r0, r5
    3970:	f44f 5116 	mov.w	r1, #9600	; 0x2580
    3974:	f7ff fe48 	bl	3608 <serial_baud>
    3978:	4628      	mov	r0, r5
    397a:	4622      	mov	r2, r4
    397c:	4643      	mov	r3, r8
    397e:	2108      	movs	r1, #8
    3980:	f7ff ff76 	bl	3870 <serial_format>
    3984:	4638      	mov	r0, r7
    3986:	496c      	ldr	r1, [pc, #432]	; (3b38 <serial_init+0x240>)
    3988:	f000 f974 	bl	3c74 <pinmap_pinout>
    398c:	4630      	mov	r0, r6
    398e:	496b      	ldr	r1, [pc, #428]	; (3b3c <serial_init+0x244>)
    3990:	f000 f970 	bl	3c74 <pinmap_pinout>
    3994:	2303      	movs	r3, #3
    3996:	606b      	str	r3, [r5, #4]
    3998:	e8bd 83f8 	ldmia.w	sp!, {r3, r4, r5, r6, r7, r8, r9, pc}
    399c:	f44f 4040 	mov.w	r0, #49152	; 0xc000
    39a0:	f2c4 0000 	movt	r0, #16384	; 0x4000
    39a4:	4284      	cmp	r4, r0
    39a6:	d058      	beq.n	3a5a <serial_init+0x162>
    39a8:	f04f 0801 	mov.w	r8, #1
    39ac:	f884 8008 	strb.w	r8, [r4, #8]
    39b0:	682b      	ldr	r3, [r5, #0]
    39b2:	f04f 0900 	mov.w	r9, #0
    39b6:	f44f 5116 	mov.w	r1, #9600	; 0x2580
    39ba:	f8c3 9004 	str.w	r9, [r3, #4]
    39be:	4628      	mov	r0, r5
    39c0:	f7ff fe22 	bl	3608 <serial_baud>
    39c4:	464a      	mov	r2, r9
    39c6:	4643      	mov	r3, r8
    39c8:	2108      	movs	r1, #8
    39ca:	4628      	mov	r0, r5
    39cc:	f7ff ff50 	bl	3870 <serial_format>
    39d0:	4638      	mov	r0, r7
    39d2:	4959      	ldr	r1, [pc, #356]	; (3b38 <serial_init+0x240>)
    39d4:	f000 f94e 	bl	3c74 <pinmap_pinout>
    39d8:	4630      	mov	r0, r6
    39da:	4958      	ldr	r1, [pc, #352]	; (3b3c <serial_init+0x244>)
    39dc:	f000 f94a 	bl	3c74 <pinmap_pinout>
    39e0:	46cc      	mov	r12, r9
    39e2:	f2c4 0c01 	movt	r12, #16385	; 0x4001
    39e6:	4564      	cmp	r4, r12
    39e8:	d033      	beq.n	3a52 <serial_init+0x15a>
    39ea:	f200 808e 	bhi.w	3b0a <serial_init+0x212>
    39ee:	f44f 4040 	mov.w	r0, #49152	; 0xc000
    39f2:	f2c4 0000 	movt	r0, #16384	; 0x4000
    39f6:	4284      	cmp	r4, r0
    39f8:	d053      	beq.n	3aa2 <serial_init+0x1aa>
    39fa:	f44f 4e40 	mov.w	lr, #49152	; 0xc000
    39fe:	f2c4 0e00 	movt	lr, #16384	; 0x4000
    3a02:	4574      	cmp	r4, lr
    3a04:	d04f      	beq.n	3aa6 <serial_init+0x1ae>
    3a06:	e8bd 83f8 	ldmia.w	sp!, {r3, r4, r5, r6, r7, r8, r9, pc}
    3a0a:	f44f 4c40 	mov.w	r12, #49152	; 0xc000
    3a0e:	f2c4 0c0f 	movt	r12, #16399	; 0x400f
    3a12:	f8dc 00c4 	ldr.w	r0, [r12, #196]	; 0xc4
    3a16:	f04f 0801 	mov.w	r8, #1
    3a1a:	f040 0210 	orr.w	r2, r0, #16
    3a1e:	f8cc 20c4 	str.w	r2, [r12, #196]	; 0xc4
    3a22:	f884 8008 	strb.w	r8, [r4, #8]
    3a26:	6829      	ldr	r1, [r5, #0]
    3a28:	2400      	movs	r4, #0
    3a2a:	604c      	str	r4, [r1, #4]
    3a2c:	4628      	mov	r0, r5
    3a2e:	f44f 5116 	mov.w	r1, #9600	; 0x2580
    3a32:	f7ff fde9 	bl	3608 <serial_baud>
    3a36:	4628      	mov	r0, r5
    3a38:	4622      	mov	r2, r4
    3a3a:	4643      	mov	r3, r8
    3a3c:	2108      	movs	r1, #8
    3a3e:	f7ff ff17 	bl	3870 <serial_format>
    3a42:	4638      	mov	r0, r7
    3a44:	493c      	ldr	r1, [pc, #240]	; (3b38 <serial_init+0x240>)
    3a46:	f000 f915 	bl	3c74 <pinmap_pinout>
    3a4a:	4630      	mov	r0, r6
    3a4c:	493b      	ldr	r1, [pc, #236]	; (3b3c <serial_init+0x244>)
    3a4e:	f000 f911 	bl	3c74 <pinmap_pinout>
    3a52:	2301      	movs	r3, #1
    3a54:	606b      	str	r3, [r5, #4]
    3a56:	e8bd 83f8 	ldmia.w	sp!, {r3, r4, r5, r6, r7, r8, r9, pc}
    3a5a:	f44f 4240 	mov.w	r2, #49152	; 0xc000
    3a5e:	f2c4 020f 	movt	r2, #16399	; 0x400f
    3a62:	f8d2 10c4 	ldr.w	r1, [r2, #196]	; 0xc4
    3a66:	f04f 0801 	mov.w	r8, #1
    3a6a:	f041 0308 	orr.w	r3, r1, #8
    3a6e:	f8c2 30c4 	str.w	r3, [r2, #196]	; 0xc4
    3a72:	f884 8008 	strb.w	r8, [r4, #8]
    3a76:	6828      	ldr	r0, [r5, #0]
    3a78:	2400      	movs	r4, #0
    3a7a:	6044      	str	r4, [r0, #4]
    3a7c:	f44f 5116 	mov.w	r1, #9600	; 0x2580
    3a80:	4628      	mov	r0, r5
    3a82:	f7ff fdc1 	bl	3608 <serial_baud>
    3a86:	4628      	mov	r0, r5
    3a88:	4622      	mov	r2, r4
    3a8a:	4643      	mov	r3, r8
    3a8c:	2108      	movs	r1, #8
    3a8e:	f7ff feef 	bl	3870 <serial_format>
    3a92:	4638      	mov	r0, r7
    3a94:	4928      	ldr	r1, [pc, #160]	; (3b38 <serial_init+0x240>)
    3a96:	f000 f8ed 	bl	3c74 <pinmap_pinout>
    3a9a:	4630      	mov	r0, r6
    3a9c:	4927      	ldr	r1, [pc, #156]	; (3b3c <serial_init+0x244>)
    3a9e:	f000 f8e9 	bl	3c74 <pinmap_pinout>
    3aa2:	2400      	movs	r4, #0
    3aa4:	606c      	str	r4, [r5, #4]
    3aa6:	4b26      	ldr	r3, [pc, #152]	; (3b40 <serial_init+0x248>)
    3aa8:	4826      	ldr	r0, [pc, #152]	; (3b44 <serial_init+0x24c>)
    3aaa:	2401      	movs	r4, #1
    3aac:	4629      	mov	r1, r5
    3aae:	2208      	movs	r2, #8
    3ab0:	601c      	str	r4, [r3, #0]
    3ab2:	e8bd 43f8 	ldmia.w	sp!, {r3, r4, r5, r6, r7, r8, r9, lr}
    3ab6:	f003 ba12 	b.w	6ede <memcpy>
    3aba:	f44f 4e40 	mov.w	lr, #49152	; 0xc000
    3abe:	f2c4 0e0f 	movt	lr, #16399	; 0x400f
    3ac2:	f8de 00c4 	ldr.w	r0, [lr, #196]	; 0xc4
    3ac6:	f04f 0801 	mov.w	r8, #1
    3aca:	f040 7280 	orr.w	r2, r0, #16777216	; 0x1000000
    3ace:	f8ce 20c4 	str.w	r2, [lr, #196]	; 0xc4
    3ad2:	f884 8008 	strb.w	r8, [r4, #8]
    3ad6:	6829      	ldr	r1, [r5, #0]
    3ad8:	2400      	movs	r4, #0
    3ada:	604c      	str	r4, [r1, #4]
    3adc:	4628      	mov	r0, r5
    3ade:	f44f 5116 	mov.w	r1, #9600	; 0x2580
    3ae2:	f7ff fd91 	bl	3608 <serial_baud>
    3ae6:	4628      	mov	r0, r5
    3ae8:	4622      	mov	r2, r4
    3aea:	4643      	mov	r3, r8
    3aec:	2108      	movs	r1, #8
    3aee:	f7ff febf 	bl	3870 <serial_format>
    3af2:	4638      	mov	r0, r7
    3af4:	4910      	ldr	r1, [pc, #64]	; (3b38 <serial_init+0x240>)
    3af6:	f000 f8bd 	bl	3c74 <pinmap_pinout>
    3afa:	4630      	mov	r0, r6
    3afc:	490f      	ldr	r1, [pc, #60]	; (3b3c <serial_init+0x244>)
    3afe:	f000 f8b9 	bl	3c74 <pinmap_pinout>
    3b02:	2302      	movs	r3, #2
    3b04:	606b      	str	r3, [r5, #4]
    3b06:	e8bd 83f8 	ldmia.w	sp!, {r3, r4, r5, r6, r7, r8, r9, pc}
    3b0a:	f44f 4200 	mov.w	r2, #32768	; 0x8000
    3b0e:	f2c4 0209 	movt	r2, #16393	; 0x4009
    3b12:	4294      	cmp	r4, r2
    3b14:	d0f5      	beq.n	3b02 <serial_init+0x20a>
    3b16:	f44f 4140 	mov.w	r1, #49152	; 0xc000
    3b1a:	f2c4 0109 	movt	r1, #16393	; 0x4009
    3b1e:	428c      	cmp	r4, r1
    3b20:	f47f af6b 	bne.w	39fa <serial_init+0x102>
    3b24:	e736      	b.n	3994 <serial_init+0x9c>
    3b26:	4d08      	ldr	r5, [pc, #32]	; (3b48 <serial_init+0x250>)
    3b28:	4908      	ldr	r1, [pc, #32]	; (3b4c <serial_init+0x254>)
    3b2a:	682e      	ldr	r6, [r5, #0]
    3b2c:	68f0      	ldr	r0, [r6, #12]
    3b2e:	f002 fde3 	bl	66f8 <fiprintf>
    3b32:	2001      	movs	r0, #1
    3b34:	f000 f88e 	bl	3c54 <exit>
    3b38:	0000914c 	.word	0x0000914c
    3b3c:	00009038 	.word	0x00009038
    3b40:	10000840 	.word	0x10000840
    3b44:	10000980 	.word	0x10000980
    3b48:	10000134 	.word	0x10000134
    3b4c:	0000912c 	.word	0x0000912c

00003b50 <serial_irq_handler>:
    3b50:	b410      	push	{r4}
    3b52:	f640 0344 	movw	r3, #2116	; 0x844
    3b56:	f640 0454 	movw	r4, #2132	; 0x854
    3b5a:	6840      	ldr	r0, [r0, #4]
    3b5c:	f2c1 0400 	movt	r4, #4096	; 0x1000
    3b60:	f2c1 0300 	movt	r3, #4096	; 0x1000
    3b64:	6021      	str	r1, [r4, #0]
    3b66:	f843 2020 	str.w	r2, [r3, r0, lsl #2]
    3b6a:	bc10      	pop	{r4}
    3b6c:	4770      	bx	lr
    3b6e:	bf00      	nop

00003b70 <serial_irq_set>:
    3b70:	b570      	push	{r4, r5, r6, lr}
    3b72:	6803      	ldr	r3, [r0, #0]
    3b74:	2400      	movs	r4, #0
    3b76:	f2c4 0401 	movt	r4, #16385	; 0x4001
    3b7a:	42a3      	cmp	r3, r4
    3b7c:	d04c      	beq.n	3c18 <serial_irq_set+0xa8>
    3b7e:	dd29      	ble.n	3bd4 <serial_irq_set+0x64>
    3b80:	f44f 4600 	mov.w	r6, #32768	; 0x8000
    3b84:	f2c4 0609 	movt	r6, #16393	; 0x4009
    3b88:	42b3      	cmp	r3, r6
    3b8a:	d042      	beq.n	3c12 <serial_irq_set+0xa2>
    3b8c:	f44f 4c40 	mov.w	r12, #49152	; 0xc000
    3b90:	f2c4 0c09 	movt	r12, #16393	; 0x4009
    3b94:	4563      	cmp	r3, r12
    3b96:	d123      	bne.n	3be0 <serial_irq_set+0x70>
    3b98:	4d22      	ldr	r5, [pc, #136]	; (3c24 <serial_irq_set+0xb4>)
    3b9a:	2408      	movs	r4, #8
    3b9c:	bb22      	cbnz	r2, 3be8 <serial_irq_set+0x78>
    3b9e:	2201      	movs	r2, #1
    3ba0:	fa02 f601 	lsl.w	r6, r2, r1
    3ba4:	f1d1 0101 	rsbs	r1, r1, #1
    3ba8:	bf38      	it	cc
    3baa:	2100      	movcc	r1, #0
    3bac:	fa02 fc01 	lsl.w	r12, r2, r1
    3bb0:	685d      	ldr	r5, [r3, #4]
    3bb2:	ea25 0506 	bic.w	r5, r5, r6
    3bb6:	605d      	str	r5, [r3, #4]
    3bb8:	6800      	ldr	r0, [r0, #0]
    3bba:	6843      	ldr	r3, [r0, #4]
    3bbc:	ea1c 0f03 	tst.w	r12, r3
    3bc0:	d107      	bne.n	3bd2 <serial_irq_set+0x62>
    3bc2:	fa02 f204 	lsl.w	r2, r2, r4
    3bc6:	f44f 4161 	mov.w	r1, #57600	; 0xe100
    3bca:	f2ce 0100 	movt	r1, #57344	; 0xe000
    3bce:	f8c1 2080 	str.w	r2, [r1, #128]	; 0x80
    3bd2:	bd70      	pop	{r4, r5, r6, pc}
    3bd4:	f44f 4540 	mov.w	r5, #49152	; 0xc000
    3bd8:	f2c4 0500 	movt	r5, #16384	; 0x4000
    3bdc:	42ab      	cmp	r3, r5
    3bde:	d01e      	beq.n	3c1e <serial_irq_set+0xae>
    3be0:	2500      	movs	r5, #0
    3be2:	462c      	mov	r4, r5
    3be4:	2a00      	cmp	r2, #0
    3be6:	d0da      	beq.n	3b9e <serial_irq_set+0x2e>
    3be8:	2601      	movs	r6, #1
    3bea:	fa06 f001 	lsl.w	r0, r6, r1
    3bee:	685a      	ldr	r2, [r3, #4]
    3bf0:	b264      	sxtb	r4, r4
    3bf2:	ea40 0102 	orr.w	r1, r0, r2
    3bf6:	4620      	mov	r0, r4
    3bf8:	fa06 f404 	lsl.w	r4, r6, r4
    3bfc:	6059      	str	r1, [r3, #4]
    3bfe:	4629      	mov	r1, r5
    3c00:	f7ff fc00 	bl	3404 <NVIC_SetVector>
    3c04:	f44f 4c61 	mov.w	r12, #57600	; 0xe100
    3c08:	f2ce 0c00 	movt	r12, #57344	; 0xe000
    3c0c:	f8cc 4000 	str.w	r4, [r12]
    3c10:	bd70      	pop	{r4, r5, r6, pc}
    3c12:	4d05      	ldr	r5, [pc, #20]	; (3c28 <serial_irq_set+0xb8>)
    3c14:	2407      	movs	r4, #7
    3c16:	e7c1      	b.n	3b9c <serial_irq_set+0x2c>
    3c18:	4d04      	ldr	r5, [pc, #16]	; (3c2c <serial_irq_set+0xbc>)
    3c1a:	2406      	movs	r4, #6
    3c1c:	e7be      	b.n	3b9c <serial_irq_set+0x2c>
    3c1e:	4d04      	ldr	r5, [pc, #16]	; (3c30 <serial_irq_set+0xc0>)
    3c20:	2405      	movs	r4, #5
    3c22:	e7bb      	b.n	3b9c <serial_irq_set+0x2c>
    3c24:	0000356d 	.word	0x0000356d
    3c28:	00003539 	.word	0x00003539
    3c2c:	000035d5 	.word	0x000035d5
    3c30:	000035a1 	.word	0x000035a1

00003c34 <serial_getc>:
    3c34:	6802      	ldr	r2, [r0, #0]
    3c36:	7d13      	ldrb	r3, [r2, #20]
    3c38:	07d9      	lsls	r1, r3, #31
    3c3a:	d5fc      	bpl.n	3c36 <serial_getc+0x2>
    3c3c:	7810      	ldrb	r0, [r2, #0]
    3c3e:	4770      	bx	lr

00003c40 <serial_putc>:
    3c40:	6802      	ldr	r2, [r0, #0]
    3c42:	7d13      	ldrb	r3, [r2, #20]
    3c44:	f003 0020 	and.w	r0, r3, #32
    3c48:	b2c3      	uxtb	r3, r0
    3c4a:	2b00      	cmp	r3, #0
    3c4c:	d0f9      	beq.n	3c42 <serial_putc+0x2>
    3c4e:	b2c9      	uxtb	r1, r1
    3c50:	7011      	strb	r1, [r2, #0]
    3c52:	4770      	bx	lr

00003c54 <exit>:
    3c54:	b510      	push	{r4, lr}
    3c56:	4604      	mov	r4, r0
    3c58:	f000 f80a 	bl	3c70 <mbed_interface_connected>
    3c5c:	b920      	cbnz	r0, 3c68 <exit+0x14>
    3c5e:	b904      	cbnz	r4, 3c62 <exit+0xe>
    3c60:	e7fe      	b.n	3c60 <exit+0xc>
    3c62:	f000 fb79 	bl	4358 <mbed_die>
    3c66:	e7fb      	b.n	3c60 <exit+0xc>
    3c68:	f000 f860 	bl	3d2c <semihost_exit>
    3c6c:	e7f7      	b.n	3c5e <exit+0xa>
    3c6e:	bf00      	nop

00003c70 <mbed_interface_connected>:
    3c70:	f000 bc58 	b.w	4524 <semihost_connected>

00003c74 <pinmap_pinout>:
    3c74:	1c43      	adds	r3, r0, #1
    3c76:	b510      	push	{r4, lr}
    3c78:	4604      	mov	r4, r0
    3c7a:	d013      	beq.n	3ca4 <pinmap_pinout+0x30>
    3c7c:	680b      	ldr	r3, [r1, #0]
    3c7e:	1c58      	adds	r0, r3, #1
    3c80:	d104      	bne.n	3c8c <pinmap_pinout+0x18>
    3c82:	e010      	b.n	3ca6 <pinmap_pinout+0x32>
    3c84:	f851 3f0c 	ldr.w	r3, [r1, #12]!
    3c88:	1c5a      	adds	r2, r3, #1
    3c8a:	d00c      	beq.n	3ca6 <pinmap_pinout+0x32>
    3c8c:	429c      	cmp	r4, r3
    3c8e:	d1f9      	bne.n	3c84 <pinmap_pinout+0x10>
    3c90:	4620      	mov	r0, r4
    3c92:	6889      	ldr	r1, [r1, #8]
    3c94:	f000 fbec 	bl	4470 <pin_function>
    3c98:	4620      	mov	r0, r4
    3c9a:	2102      	movs	r1, #2
    3c9c:	e8bd 4010 	ldmia.w	sp!, {r4, lr}
    3ca0:	f000 bc08 	b.w	44b4 <pin_mode>
    3ca4:	bd10      	pop	{r4, pc}
    3ca6:	4804      	ldr	r0, [pc, #16]	; (3cb8 <pinmap_pinout+0x44>)
    3ca8:	4904      	ldr	r1, [pc, #16]	; (3cbc <pinmap_pinout+0x48>)
    3caa:	6802      	ldr	r2, [r0, #0]
    3cac:	68d0      	ldr	r0, [r2, #12]
    3cae:	f002 fd23 	bl	66f8 <fiprintf>
    3cb2:	2001      	movs	r0, #1
    3cb4:	f7ff ffce 	bl	3c54 <exit>
    3cb8:	10000134 	.word	0x10000134
    3cbc:	000091b8 	.word	0x000091b8

00003cc0 <pinmap_merge>:
    3cc0:	4288      	cmp	r0, r1
    3cc2:	b508      	push	{r3, lr}
    3cc4:	d003      	beq.n	3cce <pinmap_merge+0xe>
    3cc6:	1c42      	adds	r2, r0, #1
    3cc8:	d002      	beq.n	3cd0 <pinmap_merge+0x10>
    3cca:	3101      	adds	r1, #1
    3ccc:	d102      	bne.n	3cd4 <pinmap_merge+0x14>
    3cce:	bd08      	pop	{r3, pc}
    3cd0:	4608      	mov	r0, r1
    3cd2:	bd08      	pop	{r3, pc}
    3cd4:	4b04      	ldr	r3, [pc, #16]	; (3ce8 <pinmap_merge+0x28>)
    3cd6:	4905      	ldr	r1, [pc, #20]	; (3cec <pinmap_merge+0x2c>)
    3cd8:	6818      	ldr	r0, [r3, #0]
    3cda:	68c0      	ldr	r0, [r0, #12]
    3cdc:	f002 fd0c 	bl	66f8 <fiprintf>
    3ce0:	2001      	movs	r0, #1
    3ce2:	f7ff ffb7 	bl	3c54 <exit>
    3ce6:	bf00      	nop
    3ce8:	10000134 	.word	0x10000134
    3cec:	000091cc 	.word	0x000091cc

00003cf0 <pinmap_peripheral>:
    3cf0:	b508      	push	{r3, lr}
    3cf2:	1c43      	adds	r3, r0, #1
    3cf4:	d00b      	beq.n	3d0e <pinmap_peripheral+0x1e>
    3cf6:	680b      	ldr	r3, [r1, #0]
    3cf8:	1c5a      	adds	r2, r3, #1
    3cfa:	d104      	bne.n	3d06 <pinmap_peripheral+0x16>
    3cfc:	e008      	b.n	3d10 <pinmap_peripheral+0x20>
    3cfe:	f851 3f0c 	ldr.w	r3, [r1, #12]!
    3d02:	1c5a      	adds	r2, r3, #1
    3d04:	d004      	beq.n	3d10 <pinmap_peripheral+0x20>
    3d06:	4298      	cmp	r0, r3
    3d08:	d1f9      	bne.n	3cfe <pinmap_peripheral+0xe>
    3d0a:	6848      	ldr	r0, [r1, #4]
    3d0c:	bd08      	pop	{r3, pc}
    3d0e:	bd08      	pop	{r3, pc}
    3d10:	4804      	ldr	r0, [pc, #16]	; (3d24 <pinmap_peripheral+0x34>)
    3d12:	4905      	ldr	r1, [pc, #20]	; (3d28 <pinmap_peripheral+0x38>)
    3d14:	6802      	ldr	r2, [r0, #0]
    3d16:	68d0      	ldr	r0, [r2, #12]
    3d18:	f002 fcee 	bl	66f8 <fiprintf>
    3d1c:	2001      	movs	r0, #1
    3d1e:	f7ff ff99 	bl	3c54 <exit>
    3d22:	bf00      	nop
    3d24:	10000134 	.word	0x10000134
    3d28:	000091e0 	.word	0x000091e0

00003d2c <semihost_exit>:
    3d2c:	b530      	push	{r4, r5, lr}
    3d2e:	b085      	sub	sp, #20
    3d30:	466d      	mov	r5, sp
    3d32:	2418      	movs	r4, #24
    3d34:	4620      	mov	r0, r4
    3d36:	4629      	mov	r1, r5
    3d38:	beab      	bkpt	0x00ab
    3d3a:	4604      	mov	r4, r0
    3d3c:	4620      	mov	r0, r4
    3d3e:	b005      	add	sp, #20
    3d40:	bd30      	pop	{r4, r5, pc}
    3d42:	bf00      	nop

00003d44 <_ZN4mbed6SerialD1Ev>:
    3d44:	f249 2310 	movw	r3, #37392	; 0x9210
    3d48:	f2c0 0300 	movt	r3, #0
    3d4c:	f103 0208 	add.w	r2, r3, #8
    3d50:	333c      	adds	r3, #60	; 0x3c
    3d52:	b510      	push	{r4, lr}
    3d54:	4604      	mov	r4, r0
    3d56:	e880 000c 	stmia.w	r0, {r2, r3}
    3d5a:	f000 fa71 	bl	4240 <_ZN4mbed6StreamD1Ev>
    3d5e:	4620      	mov	r0, r4
    3d60:	bd10      	pop	{r4, pc}
    3d62:	bf00      	nop

00003d64 <_ZThn4_N4mbed6SerialD1Ev>:
    3d64:	f1a0 0004 	sub.w	r0, r0, #4
    3d68:	f7ff bfec 	b.w	3d44 <_ZN4mbed6SerialD1Ev>

00003d6c <_ZN4mbed6Serial5_putcEi>:
    3d6c:	b510      	push	{r4, lr}
    3d6e:	3018      	adds	r0, #24
    3d70:	460c      	mov	r4, r1
    3d72:	f7ff ff65 	bl	3c40 <serial_putc>
    3d76:	4620      	mov	r0, r4
    3d78:	bd10      	pop	{r4, pc}
    3d7a:	bf00      	nop

00003d7c <_ZN4mbed6Serial5_getcEv>:
    3d7c:	3018      	adds	r0, #24
    3d7e:	f7ff bf59 	b.w	3c34 <serial_getc>
    3d82:	bf00      	nop

00003d84 <_ZN4mbed6Serial12_irq_handlerEm9SerialIrq>:
    3d84:	ebc1 01c1 	rsb	r1, r1, r1, lsl #3
    3d88:	eb00 0081 	add.w	r0, r0, r1, lsl #2
    3d8c:	3020      	adds	r0, #32
    3d8e:	f000 bcab 	b.w	46e8 <_ZN4mbed15FunctionPointer4callEv>
    3d92:	bf00      	nop

00003d94 <_ZN4mbed6SerialD0Ev>:
    3d94:	f249 2310 	movw	r3, #37392	; 0x9210
    3d98:	f2c0 0300 	movt	r3, #0
    3d9c:	f103 0208 	add.w	r2, r3, #8
    3da0:	333c      	adds	r3, #60	; 0x3c
    3da2:	b510      	push	{r4, lr}
    3da4:	4604      	mov	r4, r0
    3da6:	e880 000c 	stmia.w	r0, {r2, r3}
    3daa:	f000 fa49 	bl	4240 <_ZN4mbed6StreamD1Ev>
    3dae:	4620      	mov	r0, r4
    3db0:	f000 fd84 	bl	48bc <_ZdlPv>
    3db4:	4620      	mov	r0, r4
    3db6:	bd10      	pop	{r4, pc}

00003db8 <_ZThn4_N4mbed6SerialD0Ev>:
    3db8:	f1a0 0004 	sub.w	r0, r0, #4
    3dbc:	e7ea      	b.n	3d94 <_ZN4mbed6SerialD0Ev>
    3dbe:	bf00      	nop

00003dc0 <_ZN4mbed6SerialC1E7PinNameS1_PKc>:
    3dc0:	b5f8      	push	{r3, r4, r5, r6, r7, lr}
    3dc2:	460e      	mov	r6, r1
    3dc4:	4619      	mov	r1, r3
    3dc6:	4604      	mov	r4, r0
    3dc8:	4617      	mov	r7, r2
    3dca:	f000 fa5f 	bl	428c <_ZN4mbed6StreamC1EPKc>
    3dce:	f249 2310 	movw	r3, #37392	; 0x9210
    3dd2:	f2c0 0300 	movt	r3, #0
    3dd6:	f103 0208 	add.w	r2, r3, #8
    3dda:	333c      	adds	r3, #60	; 0x3c
    3ddc:	e884 000c 	stmia.w	r4, {r2, r3}
    3de0:	2100      	movs	r1, #0
    3de2:	f104 0020 	add.w	r0, r4, #32
    3de6:	f000 fc7b 	bl	46e0 <_ZN4mbed15FunctionPointerC1EPFvvE>
    3dea:	f104 0518 	add.w	r5, r4, #24
    3dee:	2100      	movs	r1, #0
    3df0:	f104 003c 	add.w	r0, r4, #60	; 0x3c
    3df4:	f000 fc74 	bl	46e0 <_ZN4mbed15FunctionPointerC1EPFvvE>
    3df8:	4628      	mov	r0, r5
    3dfa:	4631      	mov	r1, r6
    3dfc:	463a      	mov	r2, r7
    3dfe:	f7ff fd7b 	bl	38f8 <serial_init>
    3e02:	f643 5185 	movw	r1, #15749	; 0x3d85
    3e06:	4628      	mov	r0, r5
    3e08:	f2c0 0100 	movt	r1, #0
    3e0c:	4622      	mov	r2, r4
    3e0e:	f7ff fe9f 	bl	3b50 <serial_irq_handler>
    3e12:	4620      	mov	r0, r4
    3e14:	bdf8      	pop	{r3, r4, r5, r6, r7, pc}
    3e16:	bf00      	nop

00003e18 <_ZN4mbed6Serial4baudEi>:
    3e18:	3018      	adds	r0, #24
    3e1a:	f7ff bbf5 	b.w	3608 <serial_baud>
    3e1e:	bf00      	nop

00003e20 <_ZN4mbed10FileHandle4flenEv>:
    3e20:	6803      	ldr	r3, [r0, #0]
    3e22:	b570      	push	{r4, r5, r6, lr}
    3e24:	2100      	movs	r1, #0
    3e26:	691d      	ldr	r5, [r3, #16]
    3e28:	2201      	movs	r2, #1
    3e2a:	4604      	mov	r4, r0
    3e2c:	47a8      	blx	r5
    3e2e:	1c43      	adds	r3, r0, #1
    3e30:	4605      	mov	r5, r0
    3e32:	d00e      	beq.n	3e52 <_ZN4mbed10FileHandle4flenEv+0x32>
    3e34:	6821      	ldr	r1, [r4, #0]
    3e36:	2202      	movs	r2, #2
    3e38:	690e      	ldr	r6, [r1, #16]
    3e3a:	4620      	mov	r0, r4
    3e3c:	2100      	movs	r1, #0
    3e3e:	47b0      	blx	r6
    3e40:	6822      	ldr	r2, [r4, #0]
    3e42:	4606      	mov	r6, r0
    3e44:	6913      	ldr	r3, [r2, #16]
    3e46:	4620      	mov	r0, r4
    3e48:	4629      	mov	r1, r5
    3e4a:	2200      	movs	r2, #0
    3e4c:	4798      	blx	r3
    3e4e:	4630      	mov	r0, r6
    3e50:	bd70      	pop	{r4, r5, r6, pc}
    3e52:	4606      	mov	r6, r0
    3e54:	e7fb      	b.n	3e4e <_ZN4mbed10FileHandle4flenEv+0x2e>
    3e56:	bf00      	nop

00003e58 <_ZN4mbed10FileHandleD1Ev>:
    3e58:	4b0d      	ldr	r3, [pc, #52]	; (3e90 <_ZN4mbed10FileHandleD1Ev+0x38>)
    3e5a:	4a0e      	ldr	r2, [pc, #56]	; (3e94 <_ZN4mbed10FileHandleD1Ev+0x3c>)
    3e5c:	b430      	push	{r4, r5}
    3e5e:	6002      	str	r2, [r0, #0]
    3e60:	f503 7480 	add.w	r4, r3, #256	; 0x100
    3e64:	2500      	movs	r5, #0
    3e66:	e001      	b.n	3e6c <_ZN4mbed10FileHandleD1Ev+0x14>
    3e68:	42a3      	cmp	r3, r4
    3e6a:	d00f      	beq.n	3e8c <_ZN4mbed10FileHandleD1Ev+0x34>
    3e6c:	469c      	mov	r12, r3
    3e6e:	f85c 1b04 	ldr.w	r1, [r12], #4
    3e72:	4281      	cmp	r1, r0
    3e74:	bf08      	it	eq
    3e76:	f84c 5c04 	streq.w	r5, [r12, #-4]
    3e7a:	4663      	mov	r3, r12
    3e7c:	f853 2b04 	ldr.w	r2, [r3], #4
    3e80:	4282      	cmp	r2, r0
    3e82:	d1f1      	bne.n	3e68 <_ZN4mbed10FileHandleD1Ev+0x10>
    3e84:	42a3      	cmp	r3, r4
    3e86:	f843 5c04 	str.w	r5, [r3, #-4]
    3e8a:	d1ef      	bne.n	3e6c <_ZN4mbed10FileHandleD1Ev+0x14>
    3e8c:	bc30      	pop	{r4, r5}
    3e8e:	4770      	bx	lr
    3e90:	1000085c 	.word	0x1000085c
    3e94:	000092a0 	.word	0x000092a0

00003e98 <_ZN4mbed10FileHandleD0Ev>:
    3e98:	b538      	push	{r3, r4, r5, lr}
    3e9a:	4a0f      	ldr	r2, [pc, #60]	; (3ed8 <_ZN4mbed10FileHandleD0Ev+0x40>)
    3e9c:	4b0f      	ldr	r3, [pc, #60]	; (3edc <_ZN4mbed10FileHandleD0Ev+0x44>)
    3e9e:	4604      	mov	r4, r0
    3ea0:	6002      	str	r2, [r0, #0]
    3ea2:	2500      	movs	r5, #0
    3ea4:	f503 7080 	add.w	r0, r3, #256	; 0x100
    3ea8:	e001      	b.n	3eae <_ZN4mbed10FileHandleD0Ev+0x16>
    3eaa:	4283      	cmp	r3, r0
    3eac:	d00f      	beq.n	3ece <_ZN4mbed10FileHandleD0Ev+0x36>
    3eae:	469c      	mov	r12, r3
    3eb0:	f85c 1b04 	ldr.w	r1, [r12], #4
    3eb4:	428c      	cmp	r4, r1
    3eb6:	bf08      	it	eq
    3eb8:	f84c 5c04 	streq.w	r5, [r12, #-4]
    3ebc:	4663      	mov	r3, r12
    3ebe:	f853 2b04 	ldr.w	r2, [r3], #4
    3ec2:	4294      	cmp	r4, r2
    3ec4:	d1f1      	bne.n	3eaa <_ZN4mbed10FileHandleD0Ev+0x12>
    3ec6:	4283      	cmp	r3, r0
    3ec8:	f843 5c04 	str.w	r5, [r3, #-4]
    3ecc:	d1ef      	bne.n	3eae <_ZN4mbed10FileHandleD0Ev+0x16>
    3ece:	4620      	mov	r0, r4
    3ed0:	f000 fcf4 	bl	48bc <_ZdlPv>
    3ed4:	4620      	mov	r0, r4
    3ed6:	bd38      	pop	{r3, r4, r5, pc}
    3ed8:	000092a0 	.word	0x000092a0
    3edc:	1000085c 	.word	0x1000085c

00003ee0 <_ZL11init_serialv>:
    3ee0:	4b0e      	ldr	r3, [pc, #56]	; (3f1c <_ZL11init_serialv+0x3c>)
    3ee2:	b510      	push	{r4, lr}
    3ee4:	681c      	ldr	r4, [r3, #0]
    3ee6:	b104      	cbz	r4, 3eea <_ZL11init_serialv+0xa>
    3ee8:	bd10      	pop	{r4, pc}
    3eea:	f24c 0102 	movw	r1, #49154	; 0xc002
    3eee:	f24c 0203 	movw	r2, #49155	; 0xc003
    3ef2:	480b      	ldr	r0, [pc, #44]	; (3f20 <_ZL11init_serialv+0x40>)
    3ef4:	f2c2 0109 	movt	r1, #8201	; 0x2009
    3ef8:	f2c2 0209 	movt	r2, #8201	; 0x2009
    3efc:	f7ff fcfc 	bl	38f8 <serial_init>
    3f00:	2108      	movs	r1, #8
    3f02:	4807      	ldr	r0, [pc, #28]	; (3f20 <_ZL11init_serialv+0x40>)
    3f04:	4622      	mov	r2, r4
    3f06:	2301      	movs	r3, #1
    3f08:	f7ff fcb2 	bl	3870 <serial_format>
    3f0c:	4804      	ldr	r0, [pc, #16]	; (3f20 <_ZL11init_serialv+0x40>)
    3f0e:	f44f 5116 	mov.w	r1, #9600	; 0x2580
    3f12:	e8bd 4010 	ldmia.w	sp!, {r4, lr}
    3f16:	f7ff bb77 	b.w	3608 <serial_baud>
    3f1a:	bf00      	nop
    3f1c:	10000840 	.word	0x10000840
    3f20:	10000980 	.word	0x10000980

00003f24 <_open>:
    3f24:	b5f0      	push	{r4, r5, r6, r7, lr}
    3f26:	460f      	mov	r7, r1
    3f28:	b085      	sub	sp, #20
    3f2a:	492e      	ldr	r1, [pc, #184]	; (3fe4 <_open+0xc0>)
    3f2c:	4606      	mov	r6, r0
    3f2e:	f003 fa92 	bl	7456 <strcmp>
    3f32:	4604      	mov	r4, r0
    3f34:	2800      	cmp	r0, #0
    3f36:	d033      	beq.n	3fa0 <_open+0x7c>
    3f38:	4630      	mov	r0, r6
    3f3a:	492b      	ldr	r1, [pc, #172]	; (3fe8 <_open+0xc4>)
    3f3c:	f003 fa8b 	bl	7456 <strcmp>
    3f40:	b348      	cbz	r0, 3f96 <_open+0x72>
    3f42:	4630      	mov	r0, r6
    3f44:	4929      	ldr	r1, [pc, #164]	; (3fec <_open+0xc8>)
    3f46:	f003 fa86 	bl	7456 <strcmp>
    3f4a:	2800      	cmp	r0, #0
    3f4c:	d02c      	beq.n	3fa8 <_open+0x84>
    3f4e:	4828      	ldr	r0, [pc, #160]	; (3ff0 <_open+0xcc>)
    3f50:	2400      	movs	r4, #0
    3f52:	e006      	b.n	3f62 <_open+0x3e>
    3f54:	685d      	ldr	r5, [r3, #4]
    3f56:	3401      	adds	r4, #1
    3f58:	1d18      	adds	r0, r3, #4
    3f5a:	b135      	cbz	r5, 3f6a <_open+0x46>
    3f5c:	3401      	adds	r4, #1
    3f5e:	2c40      	cmp	r4, #64	; 0x40
    3f60:	d036      	beq.n	3fd0 <_open+0xac>
    3f62:	6845      	ldr	r5, [r0, #4]
    3f64:	1d03      	adds	r3, r0, #4
    3f66:	2d00      	cmp	r5, #0
    3f68:	d1f4      	bne.n	3f54 <_open+0x30>
    3f6a:	7831      	ldrb	r1, [r6, #0]
    3f6c:	293a      	cmp	r1, #58	; 0x3a
    3f6e:	d032      	beq.n	3fd6 <_open+0xb2>
    3f70:	a802      	add	r0, sp, #8
    3f72:	4631      	mov	r1, r6
    3f74:	f000 fb5c 	bl	4630 <_ZN4mbed8FilePathC1EPKc>
    3f78:	a802      	add	r0, sp, #8
    3f7a:	f000 fb9d 	bl	46b8 <_ZN4mbed8FilePath6isFileEv>
    3f7e:	b1b8      	cbz	r0, 3fb0 <_open+0x8c>
    3f80:	a802      	add	r0, sp, #8
    3f82:	f000 fba3 	bl	46cc <_ZN4mbed8FilePath4fileEv>
    3f86:	4603      	mov	r3, r0
    3f88:	2b00      	cmp	r3, #0
    3f8a:	d021      	beq.n	3fd0 <_open+0xac>
    3f8c:	4919      	ldr	r1, [pc, #100]	; (3ff4 <_open+0xd0>)
    3f8e:	1ce0      	adds	r0, r4, #3
    3f90:	f841 3024 	str.w	r3, [r1, r4, lsl #2]
    3f94:	e002      	b.n	3f9c <_open+0x78>
    3f96:	f7ff ffa3 	bl	3ee0 <_ZL11init_serialv>
    3f9a:	2001      	movs	r0, #1
    3f9c:	b005      	add	sp, #20
    3f9e:	bdf0      	pop	{r4, r5, r6, r7, pc}
    3fa0:	f7ff ff9e 	bl	3ee0 <_ZL11init_serialv>
    3fa4:	4620      	mov	r0, r4
    3fa6:	e7f9      	b.n	3f9c <_open+0x78>
    3fa8:	f7ff ff9a 	bl	3ee0 <_ZL11init_serialv>
    3fac:	2002      	movs	r0, #2
    3fae:	e7f5      	b.n	3f9c <_open+0x78>
    3fb0:	a802      	add	r0, sp, #8
    3fb2:	f000 fb79 	bl	46a8 <_ZN4mbed8FilePath10fileSystemEv>
    3fb6:	4605      	mov	r5, r0
    3fb8:	b150      	cbz	r0, 3fd0 <_open+0xac>
    3fba:	6802      	ldr	r2, [r0, #0]
    3fbc:	a802      	add	r0, sp, #8
    3fbe:	6896      	ldr	r6, [r2, #8]
    3fc0:	f000 fb68 	bl	4694 <_ZN4mbed8FilePath8fileNameEv>
    3fc4:	463a      	mov	r2, r7
    3fc6:	4601      	mov	r1, r0
    3fc8:	4628      	mov	r0, r5
    3fca:	47b0      	blx	r6
    3fcc:	4603      	mov	r3, r0
    3fce:	e7db      	b.n	3f88 <_open+0x64>
    3fd0:	f04f 30ff 	mov.w	r0, #4294967295	; 0xffffffff
    3fd4:	e7e2      	b.n	3f9c <_open+0x78>
    3fd6:	4630      	mov	r0, r6
    3fd8:	4907      	ldr	r1, [pc, #28]	; (3ff8 <_open+0xd4>)
    3fda:	aa01      	add	r2, sp, #4
    3fdc:	f003 f9ca 	bl	7374 <siscanf>
    3fe0:	9b01      	ldr	r3, [sp, #4]
    3fe2:	e7d1      	b.n	3f88 <_open+0x64>
    3fe4:	00009264 	.word	0x00009264
    3fe8:	00009288 	.word	0x00009288
    3fec:	0000926c 	.word	0x0000926c
    3ff0:	10000858 	.word	0x10000858
    3ff4:	1000085c 	.word	0x1000085c
    3ff8:	000092c8 	.word	0x000092c8

00003ffc <_close>:
    3ffc:	2802      	cmp	r0, #2
    3ffe:	b508      	push	{r3, lr}
    4000:	dd0b      	ble.n	401a <_close+0x1e>
    4002:	4b08      	ldr	r3, [pc, #32]	; (4024 <_close+0x28>)
    4004:	1ec2      	subs	r2, r0, #3
    4006:	f853 0022 	ldr.w	r0, [r3, r2, lsl #2]
    400a:	2100      	movs	r1, #0
    400c:	f843 1022 	str.w	r1, [r3, r2, lsl #2]
    4010:	b128      	cbz	r0, 401e <_close+0x22>
    4012:	6803      	ldr	r3, [r0, #0]
    4014:	685a      	ldr	r2, [r3, #4]
    4016:	4790      	blx	r2
    4018:	bd08      	pop	{r3, pc}
    401a:	2000      	movs	r0, #0
    401c:	bd08      	pop	{r3, pc}
    401e:	f04f 30ff 	mov.w	r0, #4294967295	; 0xffffffff
    4022:	bd08      	pop	{r3, pc}
    4024:	1000085c 	.word	0x1000085c

00004028 <_write>:
    4028:	2802      	cmp	r0, #2
    402a:	b5f8      	push	{r3, r4, r5, r6, r7, lr}
    402c:	460d      	mov	r5, r1
    402e:	4617      	mov	r7, r2
    4030:	dc28      	bgt.n	4084 <_write+0x5c>
    4032:	491d      	ldr	r1, [pc, #116]	; (40a8 <_write+0x80>)
    4034:	680a      	ldr	r2, [r1, #0]
    4036:	2a00      	cmp	r2, #0
    4038:	d02d      	beq.n	4096 <_write+0x6e>
    403a:	b30f      	cbz	r7, 4080 <_write+0x58>
    403c:	462c      	mov	r4, r5
    403e:	19ee      	adds	r6, r5, r7
    4040:	f814 1b01 	ldrb.w	r1, [r4], #1
    4044:	43ed      	mvns	r5, r5
    4046:	19ab      	adds	r3, r5, r6
    4048:	4818      	ldr	r0, [pc, #96]	; (40ac <_write+0x84>)
    404a:	f003 0501 	and.w	r5, r3, #1
    404e:	f7ff fdf7 	bl	3c40 <serial_putc>
    4052:	42b4      	cmp	r4, r6
    4054:	d014      	beq.n	4080 <_write+0x58>
    4056:	b135      	cbz	r5, 4066 <_write+0x3e>
    4058:	f814 1b01 	ldrb.w	r1, [r4], #1
    405c:	4813      	ldr	r0, [pc, #76]	; (40ac <_write+0x84>)
    405e:	f7ff fdef 	bl	3c40 <serial_putc>
    4062:	42b4      	cmp	r4, r6
    4064:	d00c      	beq.n	4080 <_write+0x58>
    4066:	4625      	mov	r5, r4
    4068:	f815 1b01 	ldrb.w	r1, [r5], #1
    406c:	480f      	ldr	r0, [pc, #60]	; (40ac <_write+0x84>)
    406e:	f7ff fde7 	bl	3c40 <serial_putc>
    4072:	7861      	ldrb	r1, [r4, #1]
    4074:	480d      	ldr	r0, [pc, #52]	; (40ac <_write+0x84>)
    4076:	1c6c      	adds	r4, r5, #1
    4078:	f7ff fde2 	bl	3c40 <serial_putc>
    407c:	42b4      	cmp	r4, r6
    407e:	d1f2      	bne.n	4066 <_write+0x3e>
    4080:	4638      	mov	r0, r7
    4082:	bdf8      	pop	{r3, r4, r5, r6, r7, pc}
    4084:	4b0a      	ldr	r3, [pc, #40]	; (40b0 <_write+0x88>)
    4086:	3803      	subs	r0, #3
    4088:	f853 0020 	ldr.w	r0, [r3, r0, lsl #2]
    408c:	b140      	cbz	r0, 40a0 <_write+0x78>
    408e:	6803      	ldr	r3, [r0, #0]
    4090:	681b      	ldr	r3, [r3, #0]
    4092:	4798      	blx	r3
    4094:	bdf8      	pop	{r3, r4, r5, r6, r7, pc}
    4096:	f7ff ff23 	bl	3ee0 <_ZL11init_serialv>
    409a:	2f00      	cmp	r7, #0
    409c:	d1ce      	bne.n	403c <_write+0x14>
    409e:	e7ef      	b.n	4080 <_write+0x58>
    40a0:	f04f 30ff 	mov.w	r0, #4294967295	; 0xffffffff
    40a4:	bdf8      	pop	{r3, r4, r5, r6, r7, pc}
    40a6:	bf00      	nop
    40a8:	10000840 	.word	0x10000840
    40ac:	10000980 	.word	0x10000980
    40b0:	1000085c 	.word	0x1000085c

000040b4 <_read>:
    40b4:	2802      	cmp	r0, #2
    40b6:	b510      	push	{r4, lr}
    40b8:	460c      	mov	r4, r1
    40ba:	dd0a      	ble.n	40d2 <_read+0x1e>
    40bc:	4b0a      	ldr	r3, [pc, #40]	; (40e8 <_read+0x34>)
    40be:	3803      	subs	r0, #3
    40c0:	f853 0020 	ldr.w	r0, [r3, r0, lsl #2]
    40c4:	b160      	cbz	r0, 40e0 <_read+0x2c>
    40c6:	6803      	ldr	r3, [r0, #0]
    40c8:	689b      	ldr	r3, [r3, #8]
    40ca:	4798      	blx	r3
    40cc:	4601      	mov	r1, r0
    40ce:	4608      	mov	r0, r1
    40d0:	bd10      	pop	{r4, pc}
    40d2:	4806      	ldr	r0, [pc, #24]	; (40ec <_read+0x38>)
    40d4:	f7ff fdae 	bl	3c34 <serial_getc>
    40d8:	2101      	movs	r1, #1
    40da:	7020      	strb	r0, [r4, #0]
    40dc:	4608      	mov	r0, r1
    40de:	bd10      	pop	{r4, pc}
    40e0:	f04f 31ff 	mov.w	r1, #4294967295	; 0xffffffff
    40e4:	e7f3      	b.n	40ce <_read+0x1a>
    40e6:	bf00      	nop
    40e8:	1000085c 	.word	0x1000085c
    40ec:	10000980 	.word	0x10000980

000040f0 <_lseek>:
    40f0:	2802      	cmp	r0, #2
    40f2:	b508      	push	{r3, lr}
    40f4:	dd08      	ble.n	4108 <_lseek+0x18>
    40f6:	4b07      	ldr	r3, [pc, #28]	; (4114 <_lseek+0x24>)
    40f8:	3803      	subs	r0, #3
    40fa:	f853 0020 	ldr.w	r0, [r3, r0, lsl #2]
    40fe:	b128      	cbz	r0, 410c <_lseek+0x1c>
    4100:	6803      	ldr	r3, [r0, #0]
    4102:	691b      	ldr	r3, [r3, #16]
    4104:	4798      	blx	r3
    4106:	bd08      	pop	{r3, pc}
    4108:	2000      	movs	r0, #0
    410a:	bd08      	pop	{r3, pc}
    410c:	f04f 30ff 	mov.w	r0, #4294967295	; 0xffffffff
    4110:	bd08      	pop	{r3, pc}
    4112:	bf00      	nop
    4114:	1000085c 	.word	0x1000085c

00004118 <_fstat>:
    4118:	2802      	cmp	r0, #2
    411a:	b508      	push	{r3, lr}
    411c:	d804      	bhi.n	4128 <_fstat+0x10>
    411e:	f44f 5000 	mov.w	r0, #8192	; 0x2000
    4122:	6048      	str	r0, [r1, #4]
    4124:	2000      	movs	r0, #0
    4126:	bd08      	pop	{r3, pc}
    4128:	f002 f890 	bl	624c <__errno>
    412c:	2309      	movs	r3, #9
    412e:	6003      	str	r3, [r0, #0]
    4130:	f04f 30ff 	mov.w	r0, #4294967295	; 0xffffffff
    4134:	bd08      	pop	{r3, pc}
    4136:	bf00      	nop

00004138 <_ZN4mbed6Stream5closeEv>:
    4138:	2000      	movs	r0, #0
    413a:	4770      	bx	lr

0000413c <_ZN4mbed6Stream5writeEPKvj>:
    413c:	e92d 41f0 	stmdb	sp!, {r4, r5, r6, r7, r8, lr}
    4140:	188e      	adds	r6, r1, r2
    4142:	42b1      	cmp	r1, r6
    4144:	460f      	mov	r7, r1
    4146:	4605      	mov	r5, r0
    4148:	d030      	beq.n	41ac <_ZN4mbed6Stream5writeEPKvj+0x70>
    414a:	6803      	ldr	r3, [r0, #0]
    414c:	1b8a      	subs	r2, r1, r6
    414e:	460c      	mov	r4, r1
    4150:	43d2      	mvns	r2, r2
    4152:	6a5b      	ldr	r3, [r3, #36]	; 0x24
    4154:	f814 1b01 	ldrb.w	r1, [r4], #1
    4158:	f002 0801 	and.w	r8, r2, #1
    415c:	4798      	blx	r3
    415e:	3001      	adds	r0, #1
    4160:	d01e      	beq.n	41a0 <_ZN4mbed6Stream5writeEPKvj+0x64>
    4162:	42a6      	cmp	r6, r4
    4164:	d01f      	beq.n	41a6 <_ZN4mbed6Stream5writeEPKvj+0x6a>
    4166:	f1b8 0f00 	cmp.w	r8, #0
    416a:	d009      	beq.n	4180 <_ZN4mbed6Stream5writeEPKvj+0x44>
    416c:	6829      	ldr	r1, [r5, #0]
    416e:	4628      	mov	r0, r5
    4170:	6a4a      	ldr	r2, [r1, #36]	; 0x24
    4172:	f814 1b01 	ldrb.w	r1, [r4], #1
    4176:	4790      	blx	r2
    4178:	3001      	adds	r0, #1
    417a:	d011      	beq.n	41a0 <_ZN4mbed6Stream5writeEPKvj+0x64>
    417c:	42a6      	cmp	r6, r4
    417e:	d012      	beq.n	41a6 <_ZN4mbed6Stream5writeEPKvj+0x6a>
    4180:	6828      	ldr	r0, [r5, #0]
    4182:	f814 1b01 	ldrb.w	r1, [r4], #1
    4186:	6a43      	ldr	r3, [r0, #36]	; 0x24
    4188:	4628      	mov	r0, r5
    418a:	4798      	blx	r3
    418c:	3001      	adds	r0, #1
    418e:	4628      	mov	r0, r5
    4190:	d006      	beq.n	41a0 <_ZN4mbed6Stream5writeEPKvj+0x64>
    4192:	682a      	ldr	r2, [r5, #0]
    4194:	f814 1b01 	ldrb.w	r1, [r4], #1
    4198:	6a53      	ldr	r3, [r2, #36]	; 0x24
    419a:	4798      	blx	r3
    419c:	3001      	adds	r0, #1
    419e:	d1ed      	bne.n	417c <_ZN4mbed6Stream5writeEPKvj+0x40>
    41a0:	1be0      	subs	r0, r4, r7
    41a2:	e8bd 81f0 	ldmia.w	sp!, {r4, r5, r6, r7, r8, pc}
    41a6:	1bf0      	subs	r0, r6, r7
    41a8:	e8bd 81f0 	ldmia.w	sp!, {r4, r5, r6, r7, r8, pc}
    41ac:	2000      	movs	r0, #0
    41ae:	e8bd 81f0 	ldmia.w	sp!, {r4, r5, r6, r7, r8, pc}
    41b2:	bf00      	nop

000041b4 <_ZN4mbed6Stream4readEPvj>:
    41b4:	e92d 41f0 	stmdb	sp!, {r4, r5, r6, r7, r8, lr}
    41b8:	188e      	adds	r6, r1, r2
    41ba:	42b1      	cmp	r1, r6
    41bc:	460f      	mov	r7, r1
    41be:	4605      	mov	r5, r0
    41c0:	d032      	beq.n	4228 <_ZN4mbed6Stream4readEPvj+0x74>
    41c2:	6803      	ldr	r3, [r0, #0]
    41c4:	1b8a      	subs	r2, r1, r6
    41c6:	43d1      	mvns	r1, r2
    41c8:	6a9c      	ldr	r4, [r3, #40]	; 0x28
    41ca:	f001 0801 	and.w	r8, r1, #1
    41ce:	47a0      	blx	r4
    41d0:	1c43      	adds	r3, r0, #1
    41d2:	463c      	mov	r4, r7
    41d4:	d025      	beq.n	4222 <_ZN4mbed6Stream4readEPvj+0x6e>
    41d6:	463c      	mov	r4, r7
    41d8:	f804 0b01 	strb.w	r0, [r4], #1
    41dc:	42a6      	cmp	r6, r4
    41de:	d01d      	beq.n	421c <_ZN4mbed6Stream4readEPvj+0x68>
    41e0:	f1b8 0f00 	cmp.w	r8, #0
    41e4:	d006      	beq.n	41f4 <_ZN4mbed6Stream4readEPvj+0x40>
    41e6:	682b      	ldr	r3, [r5, #0]
    41e8:	4628      	mov	r0, r5
    41ea:	6a9a      	ldr	r2, [r3, #40]	; 0x28
    41ec:	4790      	blx	r2
    41ee:	1c43      	adds	r3, r0, #1
    41f0:	d110      	bne.n	4214 <_ZN4mbed6Stream4readEPvj+0x60>
    41f2:	e016      	b.n	4222 <_ZN4mbed6Stream4readEPvj+0x6e>
    41f4:	6829      	ldr	r1, [r5, #0]
    41f6:	4628      	mov	r0, r5
    41f8:	6a8b      	ldr	r3, [r1, #40]	; 0x28
    41fa:	4798      	blx	r3
    41fc:	4684      	mov	r12, r0
    41fe:	f11c 0101 	adds.w	r1, r12, #1
    4202:	4628      	mov	r0, r5
    4204:	d00d      	beq.n	4222 <_ZN4mbed6Stream4readEPvj+0x6e>
    4206:	f804 cb01 	strb.w	r12, [r4], #1
    420a:	682a      	ldr	r2, [r5, #0]
    420c:	6a91      	ldr	r1, [r2, #40]	; 0x28
    420e:	4788      	blx	r1
    4210:	1c42      	adds	r2, r0, #1
    4212:	d006      	beq.n	4222 <_ZN4mbed6Stream4readEPvj+0x6e>
    4214:	f804 0b01 	strb.w	r0, [r4], #1
    4218:	42a6      	cmp	r6, r4
    421a:	d1eb      	bne.n	41f4 <_ZN4mbed6Stream4readEPvj+0x40>
    421c:	1bf0      	subs	r0, r6, r7
    421e:	e8bd 81f0 	ldmia.w	sp!, {r4, r5, r6, r7, r8, pc}
    4222:	1be0      	subs	r0, r4, r7
    4224:	e8bd 81f0 	ldmia.w	sp!, {r4, r5, r6, r7, r8, pc}
    4228:	2000      	movs	r0, #0
    422a:	e8bd 81f0 	ldmia.w	sp!, {r4, r5, r6, r7, r8, pc}
    422e:	bf00      	nop

00004230 <_ZN4mbed6Stream5lseekEli>:
    4230:	2000      	movs	r0, #0
    4232:	4770      	bx	lr

00004234 <_ZN4mbed6Stream6isattyEv>:
    4234:	2000      	movs	r0, #0
    4236:	4770      	bx	lr

00004238 <_ZN4mbed6Stream5fsyncEv>:
    4238:	2000      	movs	r0, #0
    423a:	4770      	bx	lr

0000423c <_ZN4mbed6Stream4flenEv>:
    423c:	2000      	movs	r0, #0
    423e:	4770      	bx	lr

00004240 <_ZN4mbed6StreamD1Ev>:
    4240:	f249 23d8 	movw	r3, #37592	; 0x92d8
    4244:	f2c0 0300 	movt	r3, #0
    4248:	f103 0208 	add.w	r2, r3, #8
    424c:	333c      	adds	r3, #60	; 0x3c
    424e:	b510      	push	{r4, lr}
    4250:	4604      	mov	r4, r0
    4252:	e880 000c 	stmia.w	r0, {r2, r3}
    4256:	6940      	ldr	r0, [r0, #20]
    4258:	f002 f854 	bl	6304 <fclose>
    425c:	4620      	mov	r0, r4
    425e:	f000 f9ab 	bl	45b8 <_ZN4mbed8FileLikeD1Ev>
    4262:	4620      	mov	r0, r4
    4264:	bd10      	pop	{r4, pc}
    4266:	bf00      	nop

00004268 <_ZThn4_N4mbed6StreamD1Ev>:
    4268:	f1a0 0004 	sub.w	r0, r0, #4
    426c:	f7ff bfe8 	b.w	4240 <_ZN4mbed6StreamD1Ev>

00004270 <_ZN4mbed6StreamD0Ev>:
    4270:	b510      	push	{r4, lr}
    4272:	4604      	mov	r4, r0
    4274:	f7ff ffe4 	bl	4240 <_ZN4mbed6StreamD1Ev>
    4278:	4620      	mov	r0, r4
    427a:	f000 fb1f 	bl	48bc <_ZdlPv>
    427e:	4620      	mov	r0, r4
    4280:	bd10      	pop	{r4, pc}
    4282:	bf00      	nop

00004284 <_ZThn4_N4mbed6StreamD0Ev>:
    4284:	f1a0 0004 	sub.w	r0, r0, #4
    4288:	f7ff bff2 	b.w	4270 <_ZN4mbed6StreamD0Ev>

0000428c <_ZN4mbed6StreamC1EPKc>:
    428c:	b510      	push	{r4, lr}
    428e:	b084      	sub	sp, #16
    4290:	4604      	mov	r4, r0
    4292:	f000 f9b7 	bl	4604 <_ZN4mbed8FileLikeC1EPKc>
    4296:	f249 23d8 	movw	r3, #37592	; 0x92d8
    429a:	f2c0 0300 	movt	r3, #0
    429e:	f103 0008 	add.w	r0, r3, #8
    42a2:	f249 21c8 	movw	r1, #37576	; 0x92c8
    42a6:	333c      	adds	r3, #60	; 0x3c
    42a8:	e884 0009 	stmia.w	r4, {r0, r3}
    42ac:	4622      	mov	r2, r4
    42ae:	f2c0 0100 	movt	r1, #0
    42b2:	a801      	add	r0, sp, #4
    42b4:	f003 f83a 	bl	732c <siprintf>
    42b8:	f249 312c 	movw	r1, #37676	; 0x932c
    42bc:	f2c0 0100 	movt	r1, #0
    42c0:	a801      	add	r0, sp, #4
    42c2:	f002 fa0f 	bl	66e4 <fopen>
    42c6:	2100      	movs	r1, #0
    42c8:	6160      	str	r0, [r4, #20]
    42ca:	f002 ff95 	bl	71f8 <setbuf>
    42ce:	4620      	mov	r0, r4
    42d0:	b004      	add	sp, #16
    42d2:	bd10      	pop	{r4, pc}

000042d4 <_ZN4mbed6Stream4putcEi>:
    42d4:	b538      	push	{r3, r4, r5, lr}
    42d6:	4604      	mov	r4, r0
    42d8:	6940      	ldr	r0, [r0, #20]
    42da:	460d      	mov	r5, r1
    42dc:	f002 f8be 	bl	645c <fflush>
    42e0:	6961      	ldr	r1, [r4, #20]
    42e2:	4628      	mov	r0, r5
    42e4:	e8bd 4038 	ldmia.w	sp!, {r3, r4, r5, lr}
    42e8:	f002 ba3c 	b.w	6764 <fputc>

000042ec <_ZN4mbed5Timer5startEv>:
    42ec:	b510      	push	{r4, lr}
    42ee:	4604      	mov	r4, r0
    42f0:	f000 f920 	bl	4534 <us_ticker_read>
    42f4:	2301      	movs	r3, #1
    42f6:	6060      	str	r0, [r4, #4]
    42f8:	6023      	str	r3, [r4, #0]
    42fa:	bd10      	pop	{r4, pc}

000042fc <_ZN4mbed5Timer9slicetimeEv>:
    42fc:	6803      	ldr	r3, [r0, #0]
    42fe:	b510      	push	{r4, lr}
    4300:	4604      	mov	r4, r0
    4302:	b90b      	cbnz	r3, 4308 <_ZN4mbed5Timer9slicetimeEv+0xc>
    4304:	4618      	mov	r0, r3
    4306:	bd10      	pop	{r4, pc}
    4308:	f000 f914 	bl	4534 <us_ticker_read>
    430c:	6861      	ldr	r1, [r4, #4]
    430e:	1a40      	subs	r0, r0, r1
    4310:	bd10      	pop	{r4, pc}
    4312:	bf00      	nop

00004314 <_ZN4mbed5Timer7read_usEv>:
    4314:	b510      	push	{r4, lr}
    4316:	6884      	ldr	r4, [r0, #8]
    4318:	f7ff fff0 	bl	42fc <_ZN4mbed5Timer9slicetimeEv>
    431c:	1820      	adds	r0, r4, r0
    431e:	bd10      	pop	{r4, pc}

00004320 <_ZN4mbed5Timer7read_msEv>:
    4320:	b508      	push	{r3, lr}
    4322:	f7ff fff7 	bl	4314 <_ZN4mbed5Timer7read_usEv>
    4326:	f644 53d3 	movw	r3, #19923	; 0x4dd3
    432a:	f2c1 0362 	movt	r3, #4194	; 0x1062
    432e:	fb83 2100 	smull	r2, r1, r3, r0
    4332:	17c0      	asrs	r0, r0, #31
    4334:	ebc0 10a1 	rsb	r0, r0, r1, asr #6
    4338:	bd08      	pop	{r3, pc}
    433a:	bf00      	nop

0000433c <_ZN4mbed5Timer5resetEv>:
    433c:	b510      	push	{r4, lr}
    433e:	4604      	mov	r4, r0
    4340:	f000 f8f8 	bl	4534 <us_ticker_read>
    4344:	2300      	movs	r3, #0
    4346:	6060      	str	r0, [r4, #4]
    4348:	60a3      	str	r3, [r4, #8]
    434a:	bd10      	pop	{r4, pc}

0000434c <_ZN4mbed5TimerC1Ev>:
    434c:	b510      	push	{r4, lr}
    434e:	4604      	mov	r4, r0
    4350:	f7ff fff4 	bl	433c <_ZN4mbed5Timer5resetEv>
    4354:	4620      	mov	r0, r4
    4356:	bd10      	pop	{r4, pc}

00004358 <mbed_die>:
    4358:	b500      	push	{lr}
    435a:	f24c 0132 	movw	r1, #49202	; 0xc032
    435e:	b099      	sub	sp, #100	; 0x64
    4360:	4668      	mov	r0, sp
    4362:	f2c2 0109 	movt	r1, #8201	; 0x2009
    4366:	2201      	movs	r2, #1
    4368:	f000 f856 	bl	4418 <gpio_init>
    436c:	f24c 0134 	movw	r1, #49204	; 0xc034
    4370:	a806      	add	r0, sp, #24
    4372:	f2c2 0109 	movt	r1, #8201	; 0x2009
    4376:	2201      	movs	r2, #1
    4378:	f000 f84e 	bl	4418 <gpio_init>
    437c:	f24c 0135 	movw	r1, #49205	; 0xc035
    4380:	a80c      	add	r0, sp, #48	; 0x30
    4382:	f2c2 0109 	movt	r1, #8201	; 0x2009
    4386:	2201      	movs	r2, #1
    4388:	f000 f846 	bl	4418 <gpio_init>
    438c:	f24c 0137 	movw	r1, #49207	; 0xc037
    4390:	a812      	add	r0, sp, #72	; 0x48
    4392:	f2c2 0109 	movt	r1, #8201	; 0x2009
    4396:	2201      	movs	r2, #1
    4398:	f000 f83e 	bl	4418 <gpio_init>
    439c:	9a01      	ldr	r2, [sp, #4]
    439e:	9b03      	ldr	r3, [sp, #12]
    43a0:	990a      	ldr	r1, [sp, #40]	; 0x28
    43a2:	601a      	str	r2, [r3, #0]
    43a4:	9807      	ldr	r0, [sp, #28]
    43a6:	9b10      	ldr	r3, [sp, #64]	; 0x40
    43a8:	6008      	str	r0, [r1, #0]
    43aa:	9a0d      	ldr	r2, [sp, #52]	; 0x34
    43ac:	2096      	movs	r0, #150	; 0x96
    43ae:	601a      	str	r2, [r3, #0]
    43b0:	9913      	ldr	r1, [sp, #76]	; 0x4c
    43b2:	9a15      	ldr	r2, [sp, #84]	; 0x54
    43b4:	6011      	str	r1, [r2, #0]
    43b6:	f000 f8f9 	bl	45ac <wait_ms>
    43ba:	9801      	ldr	r0, [sp, #4]
    43bc:	9b04      	ldr	r3, [sp, #16]
    43be:	9a09      	ldr	r2, [sp, #36]	; 0x24
    43c0:	6018      	str	r0, [r3, #0]
    43c2:	9907      	ldr	r1, [sp, #28]
    43c4:	9b0f      	ldr	r3, [sp, #60]	; 0x3c
    43c6:	6011      	str	r1, [r2, #0]
    43c8:	980d      	ldr	r0, [sp, #52]	; 0x34
    43ca:	9a16      	ldr	r2, [sp, #88]	; 0x58
    43cc:	6018      	str	r0, [r3, #0]
    43ce:	9913      	ldr	r1, [sp, #76]	; 0x4c
    43d0:	2096      	movs	r0, #150	; 0x96
    43d2:	6011      	str	r1, [r2, #0]
    43d4:	f000 f8ea 	bl	45ac <wait_ms>
    43d8:	e7e0      	b.n	439c <mbed_die+0x44>
    43da:	bf00      	nop

000043dc <gpio_set>:
    43dc:	b510      	push	{r4, lr}
    43de:	2100      	movs	r1, #0
    43e0:	4604      	mov	r4, r0
    43e2:	f004 041f 	and.w	r4, r4, #31
    43e6:	f000 f843 	bl	4470 <pin_function>
    43ea:	2001      	movs	r0, #1
    43ec:	fa00 f004 	lsl.w	r0, r0, r4
    43f0:	bd10      	pop	{r4, pc}
    43f2:	bf00      	nop

000043f4 <gpio_dir>:
    43f4:	b931      	cbnz	r1, 4404 <gpio_dir+0x10>
    43f6:	6883      	ldr	r3, [r0, #8]
    43f8:	6841      	ldr	r1, [r0, #4]
    43fa:	681a      	ldr	r2, [r3, #0]
    43fc:	ea22 0001 	bic.w	r0, r2, r1
    4400:	6018      	str	r0, [r3, #0]
    4402:	4770      	bx	lr
    4404:	2901      	cmp	r1, #1
    4406:	d000      	beq.n	440a <gpio_dir+0x16>
    4408:	4770      	bx	lr
    440a:	6883      	ldr	r3, [r0, #8]
    440c:	6842      	ldr	r2, [r0, #4]
    440e:	6819      	ldr	r1, [r3, #0]
    4410:	ea41 0002 	orr.w	r0, r1, r2
    4414:	6018      	str	r0, [r3, #0]
    4416:	4770      	bx	lr

00004418 <gpio_init>:
    4418:	b5f8      	push	{r3, r4, r5, r6, r7, lr}
    441a:	1c4b      	adds	r3, r1, #1
    441c:	460d      	mov	r5, r1
    441e:	4604      	mov	r4, r0
    4420:	4616      	mov	r6, r2
    4422:	d01d      	beq.n	4460 <gpio_init+0x48>
    4424:	6021      	str	r1, [r4, #0]
    4426:	4608      	mov	r0, r1
    4428:	f7ff ffd8 	bl	43dc <gpio_set>
    442c:	f025 031f 	bic.w	r3, r5, #31
    4430:	f103 011c 	add.w	r1, r3, #28
    4434:	f103 0718 	add.w	r7, r3, #24
    4438:	f103 0214 	add.w	r2, r3, #20
    443c:	6060      	str	r0, [r4, #4]
    443e:	6121      	str	r1, [r4, #16]
    4440:	60e7      	str	r7, [r4, #12]
    4442:	6162      	str	r2, [r4, #20]
    4444:	60a3      	str	r3, [r4, #8]
    4446:	4620      	mov	r0, r4
    4448:	4631      	mov	r1, r6
    444a:	f7ff ffd3 	bl	43f4 <gpio_dir>
    444e:	b92e      	cbnz	r6, 445c <gpio_init+0x44>
    4450:	4628      	mov	r0, r5
    4452:	2103      	movs	r1, #3
    4454:	e8bd 40f8 	ldmia.w	sp!, {r3, r4, r5, r6, r7, lr}
    4458:	f000 b82c 	b.w	44b4 <pin_mode>
    445c:	2e01      	cmp	r6, #1
    445e:	d000      	beq.n	4462 <gpio_init+0x4a>
    4460:	bdf8      	pop	{r3, r4, r5, r6, r7, pc}
    4462:	4628      	mov	r0, r5
    4464:	2102      	movs	r1, #2
    4466:	e8bd 40f8 	ldmia.w	sp!, {r3, r4, r5, r6, r7, lr}
    446a:	f000 b823 	b.w	44b4 <pin_mode>
    446e:	bf00      	nop

00004470 <pin_function>:
    4470:	1c43      	adds	r3, r0, #1
    4472:	b410      	push	{r4}
    4474:	d01b      	beq.n	44ae <pin_function+0x3e>
    4476:	f100 4060 	add.w	r0, r0, #3758096384	; 0xe0000000
    447a:	f5a0 241c 	sub.w	r4, r0, #638976	; 0x9c000
    447e:	f004 030f 	and.w	r3, r4, #15
    4482:	0058      	lsls	r0, r3, #1
    4484:	2203      	movs	r2, #3
    4486:	fa02 fc00 	lsl.w	r12, r2, r0
    448a:	fa01 f100 	lsl.w	r1, r1, r0
    448e:	f44f 4340 	mov.w	r3, #49152	; 0xc000
    4492:	0920      	lsrs	r0, r4, #4
    4494:	f2c4 0302 	movt	r3, #16386	; 0x4002
    4498:	f853 4020 	ldr.w	r4, [r3, r0, lsl #2]
    449c:	ea24 020c 	bic.w	r2, r4, r12
    44a0:	f843 2020 	str.w	r2, [r3, r0, lsl #2]
    44a4:	f853 2020 	ldr.w	r2, [r3, r0, lsl #2]
    44a8:	4311      	orrs	r1, r2
    44aa:	f843 1020 	str.w	r1, [r3, r0, lsl #2]
    44ae:	bc10      	pop	{r4}
    44b0:	4770      	bx	lr
    44b2:	bf00      	nop

000044b4 <pin_mode>:
    44b4:	1c42      	adds	r2, r0, #1
    44b6:	b470      	push	{r4, r5, r6}
    44b8:	d032      	beq.n	4520 <pin_mode+0x6c>
    44ba:	f100 4060 	add.w	r0, r0, #3758096384	; 0xe0000000
    44be:	f5a0 201c 	sub.w	r0, r0, #638976	; 0x9c000
    44c2:	f000 051f 	and.w	r5, r0, #31
    44c6:	f3c1 0480 	ubfx	r4, r1, #2, #1
    44ca:	fa04 fc05 	lsl.w	r12, r4, r5
    44ce:	0942      	lsrs	r2, r0, #5
    44d0:	f44f 4340 	mov.w	r3, #49152	; 0xc000
    44d4:	f2c4 0302 	movt	r3, #16386	; 0x4002
    44d8:	321a      	adds	r2, #26
    44da:	f853 6022 	ldr.w	r6, [r3, r2, lsl #2]
    44de:	ea26 050c 	bic.w	r5, r6, r12
    44e2:	f843 5022 	str.w	r5, [r3, r2, lsl #2]
    44e6:	f853 6022 	ldr.w	r6, [r3, r2, lsl #2]
    44ea:	ea46 050c 	orr.w	r5, r6, r12
    44ee:	f843 5022 	str.w	r5, [r3, r2, lsl #2]
    44f2:	b9ac      	cbnz	r4, 4520 <pin_mode+0x6c>
    44f4:	f000 040f 	and.w	r4, r0, #15
    44f8:	0062      	lsls	r2, r4, #1
    44fa:	2503      	movs	r5, #3
    44fc:	fa05 f502 	lsl.w	r5, r5, r2
    4500:	fa01 fc02 	lsl.w	r12, r1, r2
    4504:	0900      	lsrs	r0, r0, #4
    4506:	3010      	adds	r0, #16
    4508:	f853 1020 	ldr.w	r1, [r3, r0, lsl #2]
    450c:	ea21 0405 	bic.w	r4, r1, r5
    4510:	f843 4020 	str.w	r4, [r3, r0, lsl #2]
    4514:	f853 4020 	ldr.w	r4, [r3, r0, lsl #2]
    4518:	ea4c 0204 	orr.w	r2, r12, r4
    451c:	f843 2020 	str.w	r2, [r3, r0, lsl #2]
    4520:	bc70      	pop	{r4, r5, r6}
    4522:	4770      	bx	lr

00004524 <semihost_connected>:
    4524:	f64e 53f0 	movw	r3, #60912	; 0xedf0
    4528:	f2ce 0300 	movt	r3, #57344	; 0xe000
    452c:	6818      	ldr	r0, [r3, #0]
    452e:	f000 0001 	and.w	r0, r0, #1
    4532:	4770      	bx	lr

00004534 <us_ticker_read>:
    4534:	4915      	ldr	r1, [pc, #84]	; (458c <us_ticker_read+0x58>)
    4536:	b430      	push	{r4, r5}
    4538:	680a      	ldr	r2, [r1, #0]
    453a:	b9fa      	cbnz	r2, 457c <us_ticker_read+0x48>
    453c:	f44f 4040 	mov.w	r0, #49152	; 0xc000
    4540:	f2c4 000f 	movt	r0, #16399	; 0x400f
    4544:	f8d0 50c4 	ldr.w	r5, [r0, #196]	; 0xc4
    4548:	2401      	movs	r4, #1
    454a:	f44f 4380 	mov.w	r3, #16384	; 0x4000
    454e:	600c      	str	r4, [r1, #0]
    4550:	f2c4 0309 	movt	r3, #16393	; 0x4009
    4554:	490e      	ldr	r1, [pc, #56]	; (4590 <us_ticker_read+0x5c>)
    4556:	f445 0500 	orr.w	r5, r5, #8388608	; 0x800000
    455a:	f8c0 50c4 	str.w	r5, [r0, #196]	; 0xc4
    455e:	671a      	str	r2, [r3, #112]	; 0x70
    4560:	6808      	ldr	r0, [r1, #0]
    4562:	f64d 6c83 	movw	r12, #56963	; 0xde83
    4566:	0882      	lsrs	r2, r0, #2
    4568:	f2c4 3c1b 	movt	r12, #17179	; 0x431b
    456c:	fbac 0102 	umull	r0, r1, r12, r2
    4570:	0c88      	lsrs	r0, r1, #18
    4572:	1e42      	subs	r2, r0, #1
    4574:	2102      	movs	r1, #2
    4576:	6059      	str	r1, [r3, #4]
    4578:	60da      	str	r2, [r3, #12]
    457a:	605c      	str	r4, [r3, #4]
    457c:	f44f 4380 	mov.w	r3, #16384	; 0x4000
    4580:	f2c4 0309 	movt	r3, #16393	; 0x4009
    4584:	6898      	ldr	r0, [r3, #8]
    4586:	bc30      	pop	{r4, r5}
    4588:	4770      	bx	lr
    458a:	bf00      	nop
    458c:	1000095c 	.word	0x1000095c
    4590:	100000cc 	.word	0x100000cc

00004594 <wait_us>:
    4594:	b538      	push	{r3, r4, r5, lr}
    4596:	4605      	mov	r5, r0
    4598:	f7ff ffcc 	bl	4534 <us_ticker_read>
    459c:	4604      	mov	r4, r0
    459e:	f7ff ffc9 	bl	4534 <us_ticker_read>
    45a2:	1b00      	subs	r0, r0, r4
    45a4:	42a8      	cmp	r0, r5
    45a6:	d3fa      	bcc.n	459e <wait_us+0xa>
    45a8:	bd38      	pop	{r3, r4, r5, pc}
    45aa:	bf00      	nop

000045ac <wait_ms>:
    45ac:	f44f 737a 	mov.w	r3, #1000	; 0x3e8
    45b0:	fb03 f000 	mul.w	r0, r3, r0
    45b4:	f7ff bfee 	b.w	4594 <wait_us>

000045b8 <_ZN4mbed8FileLikeD1Ev>:
    45b8:	f249 3378 	movw	r3, #37752	; 0x9378
    45bc:	f2c0 0300 	movt	r3, #0
    45c0:	b510      	push	{r4, lr}
    45c2:	f103 0234 	add.w	r2, r3, #52	; 0x34
    45c6:	4604      	mov	r4, r0
    45c8:	3308      	adds	r3, #8
    45ca:	f840 2f04 	str.w	r2, [r0, #4]!
    45ce:	6023      	str	r3, [r4, #0]
    45d0:	f000 f896 	bl	4700 <_ZN4mbed8FileBaseD1Ev>
    45d4:	4620      	mov	r0, r4
    45d6:	f7ff fc3f 	bl	3e58 <_ZN4mbed10FileHandleD1Ev>
    45da:	4620      	mov	r0, r4
    45dc:	bd10      	pop	{r4, pc}
    45de:	bf00      	nop

000045e0 <_ZThn4_N4mbed8FileLikeD1Ev>:
    45e0:	f1a0 0004 	sub.w	r0, r0, #4
    45e4:	f7ff bfe8 	b.w	45b8 <_ZN4mbed8FileLikeD1Ev>

000045e8 <_ZN4mbed8FileLikeD0Ev>:
    45e8:	b510      	push	{r4, lr}
    45ea:	4604      	mov	r4, r0
    45ec:	f7ff ffe4 	bl	45b8 <_ZN4mbed8FileLikeD1Ev>
    45f0:	4620      	mov	r0, r4
    45f2:	f000 f963 	bl	48bc <_ZdlPv>
    45f6:	4620      	mov	r0, r4
    45f8:	bd10      	pop	{r4, pc}
    45fa:	bf00      	nop

000045fc <_ZThn4_N4mbed8FileLikeD0Ev>:
    45fc:	f1a0 0004 	sub.w	r0, r0, #4
    4600:	f7ff bff2 	b.w	45e8 <_ZN4mbed8FileLikeD0Ev>

00004604 <_ZN4mbed8FileLikeC1EPKc>:
    4604:	4b09      	ldr	r3, [pc, #36]	; (462c <_ZN4mbed8FileLikeC1EPKc+0x28>)
    4606:	b510      	push	{r4, lr}
    4608:	2200      	movs	r2, #0
    460a:	4604      	mov	r4, r0
    460c:	f840 3b04 	str.w	r3, [r0], #4
    4610:	f000 f8ac 	bl	476c <_ZN4mbed8FileBaseC1EPKcNS_8PathTypeE>
    4614:	f249 3378 	movw	r3, #37752	; 0x9378
    4618:	f2c0 0300 	movt	r3, #0
    461c:	f103 0208 	add.w	r2, r3, #8
    4620:	3334      	adds	r3, #52	; 0x34
    4622:	e884 000c 	stmia.w	r4, {r2, r3}
    4626:	4620      	mov	r0, r4
    4628:	bd10      	pop	{r4, pc}
    462a:	bf00      	nop
    462c:	000092a0 	.word	0x000092a0

00004630 <_ZN4mbed8FilePathC1EPKc>:
    4630:	b570      	push	{r4, r5, r6, lr}
    4632:	2200      	movs	r2, #0
    4634:	6002      	str	r2, [r0, #0]
    4636:	6042      	str	r2, [r0, #4]
    4638:	780b      	ldrb	r3, [r1, #0]
    463a:	4604      	mov	r4, r0
    463c:	2b2f      	cmp	r3, #47	; 0x2f
    463e:	d001      	beq.n	4644 <_ZN4mbed8FilePathC1EPKc+0x14>
    4640:	4620      	mov	r0, r4
    4642:	bd70      	pop	{r4, r5, r6, pc}
    4644:	7848      	ldrb	r0, [r1, #1]
    4646:	2800      	cmp	r0, #0
    4648:	d0fa      	beq.n	4640 <_ZN4mbed8FilePathC1EPKc+0x10>
    464a:	1c4e      	adds	r6, r1, #1
    464c:	6026      	str	r6, [r4, #0]
    464e:	784d      	ldrb	r5, [r1, #1]
    4650:	2d2f      	cmp	r5, #47	; 0x2f
    4652:	d01b      	beq.n	468c <_ZN4mbed8FilePathC1EPKc+0x5c>
    4654:	b16d      	cbz	r5, 4672 <_ZN4mbed8FilePathC1EPKc+0x42>
    4656:	1c8d      	adds	r5, r1, #2
    4658:	4611      	mov	r1, r2
    465a:	e000      	b.n	465e <_ZN4mbed8FilePathC1EPKc+0x2e>
    465c:	b1a2      	cbz	r2, 4688 <_ZN4mbed8FilePathC1EPKc+0x58>
    465e:	6025      	str	r5, [r4, #0]
    4660:	782a      	ldrb	r2, [r5, #0]
    4662:	462b      	mov	r3, r5
    4664:	3101      	adds	r1, #1
    4666:	3501      	adds	r5, #1
    4668:	2a2f      	cmp	r2, #47	; 0x2f
    466a:	d1f7      	bne.n	465c <_ZN4mbed8FilePathC1EPKc+0x2c>
    466c:	460d      	mov	r5, r1
    466e:	1c58      	adds	r0, r3, #1
    4670:	6020      	str	r0, [r4, #0]
    4672:	4629      	mov	r1, r5
    4674:	4630      	mov	r0, r6
    4676:	f000 f889 	bl	478c <_ZN4mbed8FileBase6lookupEPKcj>
    467a:	4630      	mov	r0, r6
    467c:	4629      	mov	r1, r5
    467e:	f000 f885 	bl	478c <_ZN4mbed8FileBase6lookupEPKcj>
    4682:	6060      	str	r0, [r4, #4]
    4684:	4620      	mov	r0, r4
    4686:	bd70      	pop	{r4, r5, r6, pc}
    4688:	460d      	mov	r5, r1
    468a:	e7f2      	b.n	4672 <_ZN4mbed8FilePathC1EPKc+0x42>
    468c:	4633      	mov	r3, r6
    468e:	4615      	mov	r5, r2
    4690:	e7ed      	b.n	466e <_ZN4mbed8FilePathC1EPKc+0x3e>
    4692:	bf00      	nop

00004694 <_ZN4mbed8FilePath8fileNameEv>:
    4694:	6800      	ldr	r0, [r0, #0]
    4696:	4770      	bx	lr

00004698 <_ZN4mbed8FilePath12isFileSystemEv>:
    4698:	b508      	push	{r3, lr}
    469a:	6840      	ldr	r0, [r0, #4]
    469c:	f000 f896 	bl	47cc <_ZN4mbed8FileBase11getPathTypeEv>
    46a0:	1e43      	subs	r3, r0, #1
    46a2:	4258      	negs	r0, r3
    46a4:	4158      	adcs	r0, r3
    46a6:	bd08      	pop	{r3, pc}

000046a8 <_ZN4mbed8FilePath10fileSystemEv>:
    46a8:	b510      	push	{r4, lr}
    46aa:	4604      	mov	r4, r0
    46ac:	f7ff fff4 	bl	4698 <_ZN4mbed8FilePath12isFileSystemEv>
    46b0:	b100      	cbz	r0, 46b4 <_ZN4mbed8FilePath10fileSystemEv+0xc>
    46b2:	6860      	ldr	r0, [r4, #4]
    46b4:	bd10      	pop	{r4, pc}
    46b6:	bf00      	nop

000046b8 <_ZN4mbed8FilePath6isFileEv>:
    46b8:	b508      	push	{r3, lr}
    46ba:	6840      	ldr	r0, [r0, #4]
    46bc:	f000 f886 	bl	47cc <_ZN4mbed8FileBase11getPathTypeEv>
    46c0:	f1d0 0001 	rsbs	r0, r0, #1
    46c4:	bf38      	it	cc
    46c6:	2000      	movcc	r0, #0
    46c8:	bd08      	pop	{r3, pc}
    46ca:	bf00      	nop

000046cc <_ZN4mbed8FilePath4fileEv>:
    46cc:	b510      	push	{r4, lr}
    46ce:	4604      	mov	r4, r0
    46d0:	f7ff fff2 	bl	46b8 <_ZN4mbed8FilePath6isFileEv>
    46d4:	b110      	cbz	r0, 46dc <_ZN4mbed8FilePath4fileEv+0x10>
    46d6:	6860      	ldr	r0, [r4, #4]
    46d8:	b100      	cbz	r0, 46dc <_ZN4mbed8FilePath4fileEv+0x10>
    46da:	3804      	subs	r0, #4
    46dc:	bd10      	pop	{r4, pc}
    46de:	bf00      	nop

000046e0 <_ZN4mbed15FunctionPointerC1EPFvvE>:
    46e0:	2200      	movs	r2, #0
    46e2:	6001      	str	r1, [r0, #0]
    46e4:	6042      	str	r2, [r0, #4]
    46e6:	4770      	bx	lr

000046e8 <_ZN4mbed15FunctionPointer4callEv>:
    46e8:	b508      	push	{r3, lr}
    46ea:	6803      	ldr	r3, [r0, #0]
    46ec:	4601      	mov	r1, r0
    46ee:	b10b      	cbz	r3, 46f4 <_ZN4mbed15FunctionPointer4callEv+0xc>
    46f0:	4798      	blx	r3
    46f2:	bd08      	pop	{r3, pc}
    46f4:	6840      	ldr	r0, [r0, #4]
    46f6:	b110      	cbz	r0, 46fe <_ZN4mbed15FunctionPointer4callEv+0x16>
    46f8:	698a      	ldr	r2, [r1, #24]
    46fa:	3108      	adds	r1, #8
    46fc:	4790      	blx	r2
    46fe:	bd08      	pop	{r3, pc}

00004700 <_ZN4mbed8FileBaseD1Ev>:
    4700:	4a09      	ldr	r2, [pc, #36]	; (4728 <_ZN4mbed8FileBaseD1Ev+0x28>)
    4702:	6883      	ldr	r3, [r0, #8]
    4704:	6002      	str	r2, [r0, #0]
    4706:	b153      	cbz	r3, 471e <_ZN4mbed8FileBaseD1Ev+0x1e>
    4708:	4908      	ldr	r1, [pc, #32]	; (472c <_ZN4mbed8FileBaseD1Ev+0x2c>)
    470a:	680a      	ldr	r2, [r1, #0]
    470c:	4282      	cmp	r2, r0
    470e:	d101      	bne.n	4714 <_ZN4mbed8FileBaseD1Ev+0x14>
    4710:	e006      	b.n	4720 <_ZN4mbed8FileBaseD1Ev+0x20>
    4712:	461a      	mov	r2, r3
    4714:	6853      	ldr	r3, [r2, #4]
    4716:	4298      	cmp	r0, r3
    4718:	d1fb      	bne.n	4712 <_ZN4mbed8FileBaseD1Ev+0x12>
    471a:	6841      	ldr	r1, [r0, #4]
    471c:	6051      	str	r1, [r2, #4]
    471e:	4770      	bx	lr
    4720:	6843      	ldr	r3, [r0, #4]
    4722:	600b      	str	r3, [r1, #0]
    4724:	4770      	bx	lr
    4726:	bf00      	nop
    4728:	000093d8 	.word	0x000093d8
    472c:	10000960 	.word	0x10000960

00004730 <_ZN4mbed8FileBaseD0Ev>:
    4730:	4a0c      	ldr	r2, [pc, #48]	; (4764 <_ZN4mbed8FileBaseD0Ev+0x34>)
    4732:	6883      	ldr	r3, [r0, #8]
    4734:	b510      	push	{r4, lr}
    4736:	4604      	mov	r4, r0
    4738:	6002      	str	r2, [r0, #0]
    473a:	b153      	cbz	r3, 4752 <_ZN4mbed8FileBaseD0Ev+0x22>
    473c:	480a      	ldr	r0, [pc, #40]	; (4768 <_ZN4mbed8FileBaseD0Ev+0x38>)
    473e:	6802      	ldr	r2, [r0, #0]
    4740:	4294      	cmp	r4, r2
    4742:	d101      	bne.n	4748 <_ZN4mbed8FileBaseD0Ev+0x18>
    4744:	e00a      	b.n	475c <_ZN4mbed8FileBaseD0Ev+0x2c>
    4746:	460a      	mov	r2, r1
    4748:	6851      	ldr	r1, [r2, #4]
    474a:	428c      	cmp	r4, r1
    474c:	d1fb      	bne.n	4746 <_ZN4mbed8FileBaseD0Ev+0x16>
    474e:	6863      	ldr	r3, [r4, #4]
    4750:	6053      	str	r3, [r2, #4]
    4752:	4620      	mov	r0, r4
    4754:	f000 f8b2 	bl	48bc <_ZdlPv>
    4758:	4620      	mov	r0, r4
    475a:	bd10      	pop	{r4, pc}
    475c:	6861      	ldr	r1, [r4, #4]
    475e:	6001      	str	r1, [r0, #0]
    4760:	e7f7      	b.n	4752 <_ZN4mbed8FileBaseD0Ev+0x22>
    4762:	bf00      	nop
    4764:	000093d8 	.word	0x000093d8
    4768:	10000960 	.word	0x10000960

0000476c <_ZN4mbed8FileBaseC1EPKcNS_8PathTypeE>:
    476c:	4b05      	ldr	r3, [pc, #20]	; (4784 <_ZN4mbed8FileBaseC1EPKcNS_8PathTypeE+0x18>)
    476e:	6081      	str	r1, [r0, #8]
    4770:	6003      	str	r3, [r0, #0]
    4772:	7302      	strb	r2, [r0, #12]
    4774:	b121      	cbz	r1, 4780 <_ZN4mbed8FileBaseC1EPKcNS_8PathTypeE+0x14>
    4776:	4904      	ldr	r1, [pc, #16]	; (4788 <_ZN4mbed8FileBaseC1EPKcNS_8PathTypeE+0x1c>)
    4778:	680a      	ldr	r2, [r1, #0]
    477a:	6008      	str	r0, [r1, #0]
    477c:	6042      	str	r2, [r0, #4]
    477e:	4770      	bx	lr
    4780:	6041      	str	r1, [r0, #4]
    4782:	4770      	bx	lr
    4784:	000093d8 	.word	0x000093d8
    4788:	10000960 	.word	0x10000960

0000478c <_ZN4mbed8FileBase6lookupEPKcj>:
    478c:	4b0e      	ldr	r3, [pc, #56]	; (47c8 <_ZN4mbed8FileBase6lookupEPKcj+0x3c>)
    478e:	b570      	push	{r4, r5, r6, lr}
    4790:	681c      	ldr	r4, [r3, #0]
    4792:	4606      	mov	r6, r0
    4794:	460d      	mov	r5, r1
    4796:	b914      	cbnz	r4, 479e <_ZN4mbed8FileBase6lookupEPKcj+0x12>
    4798:	e012      	b.n	47c0 <_ZN4mbed8FileBase6lookupEPKcj+0x34>
    479a:	6864      	ldr	r4, [r4, #4]
    479c:	b184      	cbz	r4, 47c0 <_ZN4mbed8FileBase6lookupEPKcj+0x34>
    479e:	68a3      	ldr	r3, [r4, #8]
    47a0:	4631      	mov	r1, r6
    47a2:	462a      	mov	r2, r5
    47a4:	4618      	mov	r0, r3
    47a6:	2b00      	cmp	r3, #0
    47a8:	d0f7      	beq.n	479a <_ZN4mbed8FileBase6lookupEPKcj+0xe>
    47aa:	f002 fe67 	bl	747c <strncmp>
    47ae:	2800      	cmp	r0, #0
    47b0:	d1f3      	bne.n	479a <_ZN4mbed8FileBase6lookupEPKcj+0xe>
    47b2:	68a0      	ldr	r0, [r4, #8]
    47b4:	f002 fe5a 	bl	746c <strlen>
    47b8:	42a8      	cmp	r0, r5
    47ba:	d1ee      	bne.n	479a <_ZN4mbed8FileBase6lookupEPKcj+0xe>
    47bc:	4620      	mov	r0, r4
    47be:	bd70      	pop	{r4, r5, r6, pc}
    47c0:	2400      	movs	r4, #0
    47c2:	4620      	mov	r0, r4
    47c4:	bd70      	pop	{r4, r5, r6, pc}
    47c6:	bf00      	nop
    47c8:	10000960 	.word	0x10000960

000047cc <_ZN4mbed8FileBase11getPathTypeEv>:
    47cc:	7b00      	ldrb	r0, [r0, #12]
    47ce:	4770      	bx	lr

000047d0 <__aeabi_atexit>:
    47d0:	4603      	mov	r3, r0
    47d2:	4608      	mov	r0, r1
    47d4:	4619      	mov	r1, r3
    47d6:	f001 bd2d 	b.w	6234 <__cxa_atexit>

000047da <_ZNK10__cxxabiv117__class_type_info11__do_upcastEPKS0_PPv>:
    47da:	b57f      	push	{r0, r1, r2, r3, r4, r5, r6, lr}
    47dc:	4615      	mov	r5, r2
    47de:	6802      	ldr	r2, [r0, #0]
    47e0:	2400      	movs	r4, #0
    47e2:	2310      	movs	r3, #16
    47e4:	9302      	str	r3, [sp, #8]
    47e6:	6996      	ldr	r6, [r2, #24]
    47e8:	9400      	str	r4, [sp, #0]
    47ea:	f88d 4004 	strb.w	r4, [sp, #4]
    47ee:	9403      	str	r4, [sp, #12]
    47f0:	682a      	ldr	r2, [r5, #0]
    47f2:	466b      	mov	r3, sp
    47f4:	47b0      	blx	r6
    47f6:	f89d 0004 	ldrb.w	r0, [sp, #4]
    47fa:	f000 0106 	and.w	r1, r0, #6
    47fe:	2906      	cmp	r1, #6
    4800:	d103      	bne.n	480a <_ZNK10__cxxabiv117__class_type_info11__do_upcastEPKS0_PPv+0x30>
    4802:	9b00      	ldr	r3, [sp, #0]
    4804:	2001      	movs	r0, #1
    4806:	602b      	str	r3, [r5, #0]
    4808:	e000      	b.n	480c <_ZNK10__cxxabiv117__class_type_info11__do_upcastEPKS0_PPv+0x32>
    480a:	4620      	mov	r0, r4
    480c:	b004      	add	sp, #16
    480e:	bd70      	pop	{r4, r5, r6, pc}

00004810 <_ZNK10__cxxabiv117__class_type_info20__do_find_public_srcEiPKvPKS0_S2_>:
    4810:	9800      	ldr	r0, [sp, #0]
    4812:	4290      	cmp	r0, r2
    4814:	bf14      	ite	ne
    4816:	2001      	movne	r0, #1
    4818:	2006      	moveq	r0, #6
    481a:	4770      	bx	lr

0000481c <_ZNK10__cxxabiv117__class_type_info11__do_upcastEPKS0_PKvRNS0_15__upcast_resultE>:
    481c:	b538      	push	{r3, r4, r5, lr}
    481e:	4615      	mov	r5, r2
    4820:	461c      	mov	r4, r3
    4822:	f000 f8f5 	bl	4a10 <_ZNKSt9type_infoeqERKS_>
    4826:	b128      	cbz	r0, 4834 <_ZNK10__cxxabiv117__class_type_info11__do_upcastEPKS0_PKvRNS0_15__upcast_resultE+0x18>
    4828:	2006      	movs	r0, #6
    482a:	2308      	movs	r3, #8
    482c:	7120      	strb	r0, [r4, #4]
    482e:	6025      	str	r5, [r4, #0]
    4830:	60e3      	str	r3, [r4, #12]
    4832:	2001      	movs	r0, #1
    4834:	bd38      	pop	{r3, r4, r5, pc}
	...

00004838 <_ZN10__cxxabiv117__class_type_infoD1Ev>:
    4838:	4b03      	ldr	r3, [pc, #12]	; (4848 <_ZN10__cxxabiv117__class_type_infoD1Ev+0x10>)
    483a:	b510      	push	{r4, lr}
    483c:	4604      	mov	r4, r0
    483e:	6003      	str	r3, [r0, #0]
    4840:	f000 f8d0 	bl	49e4 <_ZNSt9type_infoD1Ev>
    4844:	4620      	mov	r0, r4
    4846:	bd10      	pop	{r4, pc}
    4848:	000093f0 	.word	0x000093f0

0000484c <_ZN10__cxxabiv117__class_type_infoD0Ev>:
    484c:	b510      	push	{r4, lr}
    484e:	4604      	mov	r4, r0
    4850:	f7ff fff2 	bl	4838 <_ZN10__cxxabiv117__class_type_infoD1Ev>
    4854:	4620      	mov	r0, r4
    4856:	f000 f831 	bl	48bc <_ZdlPv>
    485a:	4620      	mov	r0, r4
    485c:	bd10      	pop	{r4, pc}

0000485e <_ZNK10__cxxabiv117__class_type_info12__do_dyncastEiNS0_10__sub_kindEPKS0_PKvS3_S5_RNS0_16__dyncast_resultE>:
    485e:	e92d 41f0 	stmdb	sp!, {r4, r5, r6, r7, r8, lr}
    4862:	9e06      	ldr	r6, [sp, #24]
    4864:	4615      	mov	r5, r2
    4866:	9a08      	ldr	r2, [sp, #32]
    4868:	4607      	mov	r7, r0
    486a:	4296      	cmp	r6, r2
    486c:	4698      	mov	r8, r3
    486e:	9c09      	ldr	r4, [sp, #36]	; 0x24
    4870:	d103      	bne.n	487a <_ZNK10__cxxabiv117__class_type_info12__do_dyncastEiNS0_10__sub_kindEPKS0_PKvS3_S5_RNS0_16__dyncast_resultE+0x1c>
    4872:	9907      	ldr	r1, [sp, #28]
    4874:	f000 f8cc 	bl	4a10 <_ZNKSt9type_infoeqERKS_>
    4878:	b948      	cbnz	r0, 488e <_ZNK10__cxxabiv117__class_type_info12__do_dyncastEiNS0_10__sub_kindEPKS0_PKvS3_S5_RNS0_16__dyncast_resultE+0x30>
    487a:	4638      	mov	r0, r7
    487c:	4641      	mov	r1, r8
    487e:	f000 f8c7 	bl	4a10 <_ZNKSt9type_infoeqERKS_>
    4882:	b128      	cbz	r0, 4890 <_ZNK10__cxxabiv117__class_type_info12__do_dyncastEiNS0_10__sub_kindEPKS0_PKvS3_S5_RNS0_16__dyncast_resultE+0x32>
    4884:	2301      	movs	r3, #1
    4886:	6026      	str	r6, [r4, #0]
    4888:	7125      	strb	r5, [r4, #4]
    488a:	71a3      	strb	r3, [r4, #6]
    488c:	e000      	b.n	4890 <_ZNK10__cxxabiv117__class_type_info12__do_dyncastEiNS0_10__sub_kindEPKS0_PKvS3_S5_RNS0_16__dyncast_resultE+0x32>
    488e:	7165      	strb	r5, [r4, #5]
    4890:	2000      	movs	r0, #0
    4892:	e8bd 81f0 	ldmia.w	sp!, {r4, r5, r6, r7, r8, pc}

00004896 <_ZNK10__cxxabiv117__class_type_info10__do_catchEPKSt9type_infoPPvj>:
    4896:	b5f8      	push	{r3, r4, r5, r6, r7, lr}
    4898:	4605      	mov	r5, r0
    489a:	460c      	mov	r4, r1
    489c:	4616      	mov	r6, r2
    489e:	461f      	mov	r7, r3
    48a0:	f000 f8b6 	bl	4a10 <_ZNKSt9type_infoeqERKS_>
    48a4:	b940      	cbnz	r0, 48b8 <_ZNK10__cxxabiv117__class_type_info10__do_catchEPKSt9type_infoPPvj+0x22>
    48a6:	2f03      	cmp	r7, #3
    48a8:	d807      	bhi.n	48ba <_ZNK10__cxxabiv117__class_type_info10__do_catchEPKSt9type_infoPPvj+0x24>
    48aa:	6823      	ldr	r3, [r4, #0]
    48ac:	4620      	mov	r0, r4
    48ae:	695b      	ldr	r3, [r3, #20]
    48b0:	4629      	mov	r1, r5
    48b2:	4632      	mov	r2, r6
    48b4:	4798      	blx	r3
    48b6:	bdf8      	pop	{r3, r4, r5, r6, r7, pc}
    48b8:	2001      	movs	r0, #1
    48ba:	bdf8      	pop	{r3, r4, r5, r6, r7, pc}

000048bc <_ZdlPv>:
    48bc:	b108      	cbz	r0, 48c2 <_ZdlPv+0x6>
    48be:	f002 ba9f 	b.w	6e00 <free>
    48c2:	4770      	bx	lr

000048c4 <_Znwj>:
    48c4:	b510      	push	{r4, lr}
    48c6:	2800      	cmp	r0, #0
    48c8:	bf14      	ite	ne
    48ca:	4604      	movne	r4, r0
    48cc:	2401      	moveq	r4, #1
    48ce:	4620      	mov	r0, r4
    48d0:	f002 fa8e 	bl	6df0 <malloc>
    48d4:	b930      	cbnz	r0, 48e4 <_Znwj+0x20>
    48d6:	4b04      	ldr	r3, [pc, #16]	; (48e8 <_Znwj+0x24>)
    48d8:	6818      	ldr	r0, [r3, #0]
    48da:	b908      	cbnz	r0, 48e0 <_Znwj+0x1c>
    48dc:	f7fe fd42 	bl	3364 <abort>
    48e0:	4780      	blx	r0
    48e2:	e7f4      	b.n	48ce <_Znwj+0xa>
    48e4:	bd10      	pop	{r4, pc}
    48e6:	bf00      	nop
    48e8:	10000974 	.word	0x10000974

000048ec <_ZNK10__cxxabiv120__si_class_type_info12__do_dyncastEiNS_17__class_type_info10__sub_kindEPKS1_PKvS4_S6_RNS1_16__dyncast_resultE>:
    48ec:	e92d 4ff0 	stmdb	sp!, {r4, r5, r6, r7, r8, r9, r10, r11, lr}
    48f0:	460e      	mov	r6, r1
    48f2:	b085      	sub	sp, #20
    48f4:	4619      	mov	r1, r3
    48f6:	4683      	mov	r11, r0
    48f8:	4690      	mov	r8, r2
    48fa:	4699      	mov	r9, r3
    48fc:	9d0e      	ldr	r5, [sp, #56]	; 0x38
    48fe:	9f10      	ldr	r7, [sp, #64]	; 0x40
    4900:	9c11      	ldr	r4, [sp, #68]	; 0x44
    4902:	f000 f885 	bl	4a10 <_ZNKSt9type_infoeqERKS_>
    4906:	4682      	mov	r10, r0
    4908:	b180      	cbz	r0, 492c <_ZNK10__cxxabiv120__si_class_type_info12__do_dyncastEiNS_17__class_type_info10__sub_kindEPKS1_PKvS4_S6_RNS1_16__dyncast_resultE+0x40>
    490a:	2e00      	cmp	r6, #0
    490c:	6025      	str	r5, [r4, #0]
    490e:	f884 8004 	strb.w	r8, [r4, #4]
    4912:	db06      	blt.n	4922 <_ZNK10__cxxabiv120__si_class_type_info12__do_dyncastEiNS_17__class_type_info10__sub_kindEPKS1_PKvS4_S6_RNS1_16__dyncast_resultE+0x36>
    4914:	19ad      	adds	r5, r5, r6
    4916:	42af      	cmp	r7, r5
    4918:	bf14      	ite	ne
    491a:	2701      	movne	r7, #1
    491c:	2706      	moveq	r7, #6
    491e:	71a7      	strb	r7, [r4, #6]
    4920:	e00c      	b.n	493c <_ZNK10__cxxabiv120__si_class_type_info12__do_dyncastEiNS_17__class_type_info10__sub_kindEPKS1_PKvS4_S6_RNS1_16__dyncast_resultE+0x50>
    4922:	1cb3      	adds	r3, r6, #2
    4924:	d10a      	bne.n	493c <_ZNK10__cxxabiv120__si_class_type_info12__do_dyncastEiNS_17__class_type_info10__sub_kindEPKS1_PKvS4_S6_RNS1_16__dyncast_resultE+0x50>
    4926:	2001      	movs	r0, #1
    4928:	71a0      	strb	r0, [r4, #6]
    492a:	e007      	b.n	493c <_ZNK10__cxxabiv120__si_class_type_info12__do_dyncastEiNS_17__class_type_info10__sub_kindEPKS1_PKvS4_S6_RNS1_16__dyncast_resultE+0x50>
    492c:	42bd      	cmp	r5, r7
    492e:	d107      	bne.n	4940 <_ZNK10__cxxabiv120__si_class_type_info12__do_dyncastEiNS_17__class_type_info10__sub_kindEPKS1_PKvS4_S6_RNS1_16__dyncast_resultE+0x54>
    4930:	4658      	mov	r0, r11
    4932:	990f      	ldr	r1, [sp, #60]	; 0x3c
    4934:	f000 f86c 	bl	4a10 <_ZNKSt9type_infoeqERKS_>
    4938:	b980      	cbnz	r0, 495c <_ZNK10__cxxabiv120__si_class_type_info12__do_dyncastEiNS_17__class_type_info10__sub_kindEPKS1_PKvS4_S6_RNS1_16__dyncast_resultE+0x70>
    493a:	e001      	b.n	4940 <_ZNK10__cxxabiv120__si_class_type_info12__do_dyncastEiNS_17__class_type_info10__sub_kindEPKS1_PKvS4_S6_RNS1_16__dyncast_resultE+0x54>
    493c:	2000      	movs	r0, #0
    493e:	e010      	b.n	4962 <_ZNK10__cxxabiv120__si_class_type_info12__do_dyncastEiNS_17__class_type_info10__sub_kindEPKS1_PKvS4_S6_RNS1_16__dyncast_resultE+0x76>
    4940:	f8db 0008 	ldr.w	r0, [r11, #8]
    4944:	9a0f      	ldr	r2, [sp, #60]	; 0x3c
    4946:	6803      	ldr	r3, [r0, #0]
    4948:	9201      	str	r2, [sp, #4]
    494a:	9500      	str	r5, [sp, #0]
    494c:	9702      	str	r7, [sp, #8]
    494e:	9403      	str	r4, [sp, #12]
    4950:	69dc      	ldr	r4, [r3, #28]
    4952:	4631      	mov	r1, r6
    4954:	4642      	mov	r2, r8
    4956:	464b      	mov	r3, r9
    4958:	47a0      	blx	r4
    495a:	e002      	b.n	4962 <_ZNK10__cxxabiv120__si_class_type_info12__do_dyncastEiNS_17__class_type_info10__sub_kindEPKS1_PKvS4_S6_RNS1_16__dyncast_resultE+0x76>
    495c:	f884 8005 	strb.w	r8, [r4, #5]
    4960:	4650      	mov	r0, r10
    4962:	b005      	add	sp, #20
    4964:	e8bd 8ff0 	ldmia.w	sp!, {r4, r5, r6, r7, r8, r9, r10, r11, pc}

00004968 <_ZN10__cxxabiv120__si_class_type_infoD1Ev>:
    4968:	4b03      	ldr	r3, [pc, #12]	; (4978 <_ZN10__cxxabiv120__si_class_type_infoD1Ev+0x10>)
    496a:	b510      	push	{r4, lr}
    496c:	4604      	mov	r4, r0
    496e:	6003      	str	r3, [r0, #0]
    4970:	f7ff ff62 	bl	4838 <_ZN10__cxxabiv117__class_type_infoD1Ev>
    4974:	4620      	mov	r0, r4
    4976:	bd10      	pop	{r4, pc}
    4978:	00009450 	.word	0x00009450

0000497c <_ZN10__cxxabiv120__si_class_type_infoD0Ev>:
    497c:	b510      	push	{r4, lr}
    497e:	4604      	mov	r4, r0
    4980:	f7ff fff2 	bl	4968 <_ZN10__cxxabiv120__si_class_type_infoD1Ev>
    4984:	4620      	mov	r0, r4
    4986:	f7ff ff99 	bl	48bc <_ZdlPv>
    498a:	4620      	mov	r0, r4
    498c:	bd10      	pop	{r4, pc}

0000498e <_ZNK10__cxxabiv120__si_class_type_info11__do_upcastEPKNS_17__class_type_infoEPKvRNS1_15__upcast_resultE>:
    498e:	b5f8      	push	{r3, r4, r5, r6, r7, lr}
    4990:	4604      	mov	r4, r0
    4992:	460f      	mov	r7, r1
    4994:	4616      	mov	r6, r2
    4996:	461d      	mov	r5, r3
    4998:	f7ff ff40 	bl	481c <_ZNK10__cxxabiv117__class_type_info11__do_upcastEPKS0_PKvRNS0_15__upcast_resultE>
    499c:	b938      	cbnz	r0, 49ae <_ZNK10__cxxabiv120__si_class_type_info11__do_upcastEPKNS_17__class_type_infoEPKvRNS1_15__upcast_resultE+0x20>
    499e:	68a0      	ldr	r0, [r4, #8]
    49a0:	4639      	mov	r1, r7
    49a2:	6804      	ldr	r4, [r0, #0]
    49a4:	4632      	mov	r2, r6
    49a6:	69a4      	ldr	r4, [r4, #24]
    49a8:	462b      	mov	r3, r5
    49aa:	47a0      	blx	r4
    49ac:	bdf8      	pop	{r3, r4, r5, r6, r7, pc}
    49ae:	2001      	movs	r0, #1
    49b0:	bdf8      	pop	{r3, r4, r5, r6, r7, pc}

000049b2 <_ZNK10__cxxabiv120__si_class_type_info20__do_find_public_srcEiPKvPKNS_17__class_type_infoES2_>:
    49b2:	e92d 41f3 	stmdb	sp!, {r0, r1, r4, r5, r6, r7, r8, lr}
    49b6:	9c08      	ldr	r4, [sp, #32]
    49b8:	4607      	mov	r7, r0
    49ba:	4294      	cmp	r4, r2
    49bc:	4688      	mov	r8, r1
    49be:	4616      	mov	r6, r2
    49c0:	461d      	mov	r5, r3
    49c2:	d105      	bne.n	49d0 <_ZNK10__cxxabiv120__si_class_type_info20__do_find_public_srcEiPKvPKNS_17__class_type_infoES2_+0x1e>
    49c4:	4619      	mov	r1, r3
    49c6:	f000 f823 	bl	4a10 <_ZNKSt9type_infoeqERKS_>
    49ca:	b108      	cbz	r0, 49d0 <_ZNK10__cxxabiv120__si_class_type_info20__do_find_public_srcEiPKvPKNS_17__class_type_infoES2_+0x1e>
    49cc:	2006      	movs	r0, #6
    49ce:	e007      	b.n	49e0 <_ZNK10__cxxabiv120__si_class_type_info20__do_find_public_srcEiPKvPKNS_17__class_type_infoES2_+0x2e>
    49d0:	68b8      	ldr	r0, [r7, #8]
    49d2:	4641      	mov	r1, r8
    49d4:	6803      	ldr	r3, [r0, #0]
    49d6:	9400      	str	r4, [sp, #0]
    49d8:	6a1c      	ldr	r4, [r3, #32]
    49da:	4632      	mov	r2, r6
    49dc:	462b      	mov	r3, r5
    49de:	47a0      	blx	r4
    49e0:	e8bd 81fc 	ldmia.w	sp!, {r2, r3, r4, r5, r6, r7, r8, pc}

000049e4 <_ZNSt9type_infoD1Ev>:
    49e4:	4b01      	ldr	r3, [pc, #4]	; (49ec <_ZNSt9type_infoD1Ev+0x8>)
    49e6:	6003      	str	r3, [r0, #0]
    49e8:	4770      	bx	lr
    49ea:	bf00      	nop
    49ec:	000094d0 	.word	0x000094d0

000049f0 <_ZNKSt9type_info14__is_pointer_pEv>:
    49f0:	2000      	movs	r0, #0
    49f2:	4770      	bx	lr

000049f4 <_ZNKSt9type_info15__is_function_pEv>:
    49f4:	2000      	movs	r0, #0
    49f6:	4770      	bx	lr

000049f8 <_ZNKSt9type_info11__do_upcastEPKN10__cxxabiv117__class_type_infoEPPv>:
    49f8:	2000      	movs	r0, #0
    49fa:	4770      	bx	lr

000049fc <_ZNSt9type_infoD0Ev>:
    49fc:	4b03      	ldr	r3, [pc, #12]	; (4a0c <_ZNSt9type_infoD0Ev+0x10>)
    49fe:	b510      	push	{r4, lr}
    4a00:	4604      	mov	r4, r0
    4a02:	6003      	str	r3, [r0, #0]
    4a04:	f7ff ff5a 	bl	48bc <_ZdlPv>
    4a08:	4620      	mov	r0, r4
    4a0a:	bd10      	pop	{r4, pc}
    4a0c:	000094d0 	.word	0x000094d0

00004a10 <_ZNKSt9type_infoeqERKS_>:
    4a10:	4281      	cmp	r1, r0
    4a12:	b508      	push	{r3, lr}
    4a14:	d00e      	beq.n	4a34 <_ZNKSt9type_infoeqERKS_+0x24>
    4a16:	6840      	ldr	r0, [r0, #4]
    4a18:	7803      	ldrb	r3, [r0, #0]
    4a1a:	2b2a      	cmp	r3, #42	; 0x2a
    4a1c:	d101      	bne.n	4a22 <_ZNKSt9type_infoeqERKS_+0x12>
    4a1e:	2000      	movs	r0, #0
    4a20:	bd08      	pop	{r3, pc}
    4a22:	6849      	ldr	r1, [r1, #4]
    4a24:	780a      	ldrb	r2, [r1, #0]
    4a26:	2a2a      	cmp	r2, #42	; 0x2a
    4a28:	bf08      	it	eq
    4a2a:	3101      	addeq	r1, #1
    4a2c:	f002 fd13 	bl	7456 <strcmp>
    4a30:	2800      	cmp	r0, #0
    4a32:	d1f4      	bne.n	4a1e <_ZNKSt9type_infoeqERKS_+0xe>
    4a34:	2001      	movs	r0, #1
    4a36:	bd08      	pop	{r3, pc}

00004a38 <_ZNKSt9type_info10__do_catchEPKS_PPvj>:
    4a38:	f7ff bfea 	b.w	4a10 <_ZNKSt9type_infoeqERKS_>

00004a3c <_ZN10__cxxabiv121__vmi_class_type_infoD1Ev>:
    4a3c:	4b03      	ldr	r3, [pc, #12]	; (4a4c <_ZN10__cxxabiv121__vmi_class_type_infoD1Ev+0x10>)
    4a3e:	b510      	push	{r4, lr}
    4a40:	4604      	mov	r4, r0
    4a42:	6003      	str	r3, [r0, #0]
    4a44:	f7ff fef8 	bl	4838 <_ZN10__cxxabiv117__class_type_infoD1Ev>
    4a48:	4620      	mov	r0, r4
    4a4a:	bd10      	pop	{r4, pc}
    4a4c:	00009528 	.word	0x00009528

00004a50 <_ZN10__cxxabiv121__vmi_class_type_infoD0Ev>:
    4a50:	b510      	push	{r4, lr}
    4a52:	4604      	mov	r4, r0
    4a54:	f7ff fff2 	bl	4a3c <_ZN10__cxxabiv121__vmi_class_type_infoD1Ev>
    4a58:	4620      	mov	r0, r4
    4a5a:	f7ff ff2f 	bl	48bc <_ZdlPv>
    4a5e:	4620      	mov	r0, r4
    4a60:	bd10      	pop	{r4, pc}

00004a62 <_ZNK10__cxxabiv121__vmi_class_type_info20__do_find_public_srcEiPKvPKNS_17__class_type_infoES2_>:
    4a62:	e92d 47f3 	stmdb	sp!, {r0, r1, r4, r5, r6, r7, r8, r9, r10, lr}
    4a66:	f8dd 9028 	ldr.w	r9, [sp, #40]	; 0x28
    4a6a:	4605      	mov	r5, r0
    4a6c:	454a      	cmp	r2, r9
    4a6e:	460f      	mov	r7, r1
    4a70:	4616      	mov	r6, r2
    4a72:	4698      	mov	r8, r3
    4a74:	d105      	bne.n	4a82 <_ZNK10__cxxabiv121__vmi_class_type_info20__do_find_public_srcEiPKvPKNS_17__class_type_infoES2_+0x20>
    4a76:	4619      	mov	r1, r3
    4a78:	f7ff ffca 	bl	4a10 <_ZNKSt9type_infoeqERKS_>
    4a7c:	b108      	cbz	r0, 4a82 <_ZNK10__cxxabiv121__vmi_class_type_info20__do_find_public_srcEiPKvPKNS_17__class_type_infoES2_+0x20>
    4a7e:	2006      	movs	r0, #6
    4a80:	e026      	b.n	4ad0 <_ZNK10__cxxabiv121__vmi_class_type_info20__do_find_public_srcEiPKvPKNS_17__class_type_infoES2_+0x6e>
    4a82:	68ec      	ldr	r4, [r5, #12]
    4a84:	f104 3aff 	add.w	r10, r4, #4294967295	; 0xffffffff
    4a88:	b30c      	cbz	r4, 4ace <_ZNK10__cxxabiv121__vmi_class_type_info20__do_find_public_srcEiPKvPKNS_17__class_type_infoES2_+0x6c>
    4a8a:	eb05 04c4 	add.w	r4, r5, r4, lsl #3
    4a8e:	68e0      	ldr	r0, [r4, #12]
    4a90:	0782      	lsls	r2, r0, #30
    4a92:	d51a      	bpl.n	4aca <_ZNK10__cxxabiv121__vmi_class_type_info20__do_find_public_srcEiPKvPKNS_17__class_type_infoES2_+0x68>
    4a94:	1202      	asrs	r2, r0, #8
    4a96:	f010 0401 	ands.w	r4, r0, #1
    4a9a:	d003      	beq.n	4aa4 <_ZNK10__cxxabiv121__vmi_class_type_info20__do_find_public_srcEiPKvPKNS_17__class_type_infoES2_+0x42>
    4a9c:	1cfb      	adds	r3, r7, #3
    4a9e:	d014      	beq.n	4aca <_ZNK10__cxxabiv121__vmi_class_type_info20__do_find_public_srcEiPKvPKNS_17__class_type_infoES2_+0x68>
    4aa0:	6833      	ldr	r3, [r6, #0]
    4aa2:	589a      	ldr	r2, [r3, r2]
    4aa4:	eb05 01ca 	add.w	r1, r5, r10, lsl #3
    4aa8:	6908      	ldr	r0, [r1, #16]
    4aaa:	18b2      	adds	r2, r6, r2
    4aac:	6803      	ldr	r3, [r0, #0]
    4aae:	f8cd 9000 	str.w	r9, [sp]
    4ab2:	f8d3 c020 	ldr.w	r12, [r3, #32]
    4ab6:	4639      	mov	r1, r7
    4ab8:	4643      	mov	r3, r8
    4aba:	47e0      	blx	r12
    4abc:	2803      	cmp	r0, #3
    4abe:	d904      	bls.n	4aca <_ZNK10__cxxabiv121__vmi_class_type_info20__do_find_public_srcEiPKvPKNS_17__class_type_infoES2_+0x68>
    4ac0:	b134      	cbz	r4, 4ad0 <_ZNK10__cxxabiv121__vmi_class_type_info20__do_find_public_srcEiPKvPKNS_17__class_type_infoES2_+0x6e>
    4ac2:	f040 0001 	orr.w	r0, r0, #1
    4ac6:	b2c0      	uxtb	r0, r0
    4ac8:	e002      	b.n	4ad0 <_ZNK10__cxxabiv121__vmi_class_type_info20__do_find_public_srcEiPKvPKNS_17__class_type_infoES2_+0x6e>
    4aca:	4654      	mov	r4, r10
    4acc:	e7da      	b.n	4a84 <_ZNK10__cxxabiv121__vmi_class_type_info20__do_find_public_srcEiPKvPKNS_17__class_type_infoES2_+0x22>
    4ace:	2001      	movs	r0, #1
    4ad0:	e8bd 87fc 	ldmia.w	sp!, {r2, r3, r4, r5, r6, r7, r8, r9, r10, pc}

00004ad4 <_ZNK10__cxxabiv121__vmi_class_type_info11__do_upcastEPKNS_17__class_type_infoEPKvRNS1_15__upcast_resultE>:
    4ad4:	e92d 4ff0 	stmdb	sp!, {r4, r5, r6, r7, r8, r9, r10, r11, lr}
    4ad8:	b087      	sub	sp, #28
    4ada:	4605      	mov	r5, r0
    4adc:	9101      	str	r1, [sp, #4]
    4ade:	4616      	mov	r6, r2
    4ae0:	461c      	mov	r4, r3
    4ae2:	f7ff fe9b 	bl	481c <_ZNK10__cxxabiv117__class_type_info11__do_upcastEPKS0_PKvRNS0_15__upcast_resultE>
    4ae6:	2800      	cmp	r0, #0
    4ae8:	d17d      	bne.n	4be6 <_ZNK10__cxxabiv121__vmi_class_type_info11__do_upcastEPKNS_17__class_type_infoEPKvRNS1_15__upcast_resultE+0x112>
    4aea:	68a7      	ldr	r7, [r4, #8]
    4aec:	68eb      	ldr	r3, [r5, #12]
    4aee:	06fa      	lsls	r2, r7, #27
    4af0:	f103 0802 	add.w	r8, r3, #2
    4af4:	bf48      	it	mi
    4af6:	68af      	ldrmi	r7, [r5, #8]
    4af8:	f103 39ff 	add.w	r9, r3, #4294967295	; 0xffffffff
    4afc:	eb05 08c8 	add.w	r8, r5, r8, lsl #3
    4b00:	f1b9 3fff 	cmp.w	r9, #4294967295	; 0xffffffff
    4b04:	d068      	beq.n	4bd8 <_ZNK10__cxxabiv121__vmi_class_type_info11__do_upcastEPKNS_17__class_type_infoEPKvRNS1_15__upcast_resultE+0x104>
    4b06:	eb05 02c9 	add.w	r2, r5, r9, lsl #3
    4b0a:	6950      	ldr	r0, [r2, #20]
    4b0c:	2100      	movs	r1, #0
    4b0e:	f3c0 0a40 	ubfx	r10, r0, #1, #1
    4b12:	9102      	str	r1, [sp, #8]
    4b14:	f88d 100c 	strb.w	r1, [sp, #12]
    4b18:	9704      	str	r7, [sp, #16]
    4b1a:	9105      	str	r1, [sp, #20]
    4b1c:	f000 0b01 	and.w	r11, r0, #1
    4b20:	f1ba 0f00 	cmp.w	r10, #0
    4b24:	d101      	bne.n	4b2a <_ZNK10__cxxabiv121__vmi_class_type_info11__do_upcastEPKNS_17__class_type_infoEPKvRNS1_15__upcast_resultE+0x56>
    4b26:	07fb      	lsls	r3, r7, #31
    4b28:	d551      	bpl.n	4bce <_ZNK10__cxxabiv121__vmi_class_type_info11__do_upcastEPKNS_17__class_type_infoEPKvRNS1_15__upcast_resultE+0xfa>
    4b2a:	b13e      	cbz	r6, 4b3c <_ZNK10__cxxabiv121__vmi_class_type_info11__do_upcastEPKNS_17__class_type_infoEPKvRNS1_15__upcast_resultE+0x68>
    4b2c:	1201      	asrs	r1, r0, #8
    4b2e:	f1bb 0f00 	cmp.w	r11, #0
    4b32:	d001      	beq.n	4b38 <_ZNK10__cxxabiv121__vmi_class_type_info11__do_upcastEPKNS_17__class_type_infoEPKvRNS1_15__upcast_resultE+0x64>
    4b34:	6833      	ldr	r3, [r6, #0]
    4b36:	5859      	ldr	r1, [r3, r1]
    4b38:	1872      	adds	r2, r6, r1
    4b3a:	e000      	b.n	4b3e <_ZNK10__cxxabiv121__vmi_class_type_info11__do_upcastEPKNS_17__class_type_infoEPKvRNS1_15__upcast_resultE+0x6a>
    4b3c:	4632      	mov	r2, r6
    4b3e:	f858 0c08 	ldr.w	r0, [r8, #-8]
    4b42:	9901      	ldr	r1, [sp, #4]
    4b44:	6803      	ldr	r3, [r0, #0]
    4b46:	f8d3 c018 	ldr.w	r12, [r3, #24]
    4b4a:	ab02      	add	r3, sp, #8
    4b4c:	47e0      	blx	r12
    4b4e:	2800      	cmp	r0, #0
    4b50:	d03d      	beq.n	4bce <_ZNK10__cxxabiv121__vmi_class_type_info11__do_upcastEPKNS_17__class_type_infoEPKvRNS1_15__upcast_resultE+0xfa>
    4b52:	9a05      	ldr	r2, [sp, #20]
    4b54:	2a08      	cmp	r2, #8
    4b56:	d105      	bne.n	4b64 <_ZNK10__cxxabiv121__vmi_class_type_info11__do_upcastEPKNS_17__class_type_infoEPKvRNS1_15__upcast_resultE+0x90>
    4b58:	f1bb 0f00 	cmp.w	r11, #0
    4b5c:	d002      	beq.n	4b64 <_ZNK10__cxxabiv121__vmi_class_type_info11__do_upcastEPKNS_17__class_type_infoEPKvRNS1_15__upcast_resultE+0x90>
    4b5e:	f858 0c08 	ldr.w	r0, [r8, #-8]
    4b62:	9005      	str	r0, [sp, #20]
    4b64:	f89d 100c 	ldrb.w	r1, [sp, #12]
    4b68:	2903      	cmp	r1, #3
    4b6a:	d902      	bls.n	4b72 <_ZNK10__cxxabiv121__vmi_class_type_info11__do_upcastEPKNS_17__class_type_infoEPKvRNS1_15__upcast_resultE+0x9e>
    4b6c:	f1ba 0f00 	cmp.w	r10, #0
    4b70:	d03b      	beq.n	4bea <_ZNK10__cxxabiv121__vmi_class_type_info11__do_upcastEPKNS_17__class_type_infoEPKvRNS1_15__upcast_resultE+0x116>
    4b72:	68e1      	ldr	r1, [r4, #12]
    4b74:	b9a9      	cbnz	r1, 4ba2 <_ZNK10__cxxabiv121__vmi_class_type_info11__do_upcastEPKNS_17__class_type_infoEPKvRNS1_15__upcast_resultE+0xce>
    4b76:	f10d 0e18 	add.w	lr, sp, #24
    4b7a:	e91e 000f 	ldmdb	lr, {r0, r1, r2, r3}
    4b7e:	e884 000f 	stmia.w	r4, {r0, r1, r2, r3}
    4b82:	7923      	ldrb	r3, [r4, #4]
    4b84:	2b03      	cmp	r3, #3
    4b86:	d92e      	bls.n	4be6 <_ZNK10__cxxabiv121__vmi_class_type_info11__do_upcastEPKNS_17__class_type_infoEPKvRNS1_15__upcast_resultE+0x112>
    4b88:	0798      	lsls	r0, r3, #30
    4b8a:	d503      	bpl.n	4b94 <_ZNK10__cxxabiv121__vmi_class_type_info11__do_upcastEPKNS_17__class_type_infoEPKvRNS1_15__upcast_resultE+0xc0>
    4b8c:	68aa      	ldr	r2, [r5, #8]
    4b8e:	f012 0f01 	tst.w	r2, #1
    4b92:	e004      	b.n	4b9e <_ZNK10__cxxabiv121__vmi_class_type_info11__do_upcastEPKNS_17__class_type_infoEPKvRNS1_15__upcast_resultE+0xca>
    4b94:	07d9      	lsls	r1, r3, #31
    4b96:	d526      	bpl.n	4be6 <_ZNK10__cxxabiv121__vmi_class_type_info11__do_upcastEPKNS_17__class_type_infoEPKvRNS1_15__upcast_resultE+0x112>
    4b98:	68a8      	ldr	r0, [r5, #8]
    4b9a:	f010 0f02 	tst.w	r0, #2
    4b9e:	d116      	bne.n	4bce <_ZNK10__cxxabiv121__vmi_class_type_info11__do_upcastEPKNS_17__class_type_infoEPKvRNS1_15__upcast_resultE+0xfa>
    4ba0:	e021      	b.n	4be6 <_ZNK10__cxxabiv121__vmi_class_type_info11__do_upcastEPKNS_17__class_type_infoEPKvRNS1_15__upcast_resultE+0x112>
    4ba2:	6820      	ldr	r0, [r4, #0]
    4ba4:	9a02      	ldr	r2, [sp, #8]
    4ba6:	4290      	cmp	r0, r2
    4ba8:	d002      	beq.n	4bb0 <_ZNK10__cxxabiv121__vmi_class_type_info11__do_upcastEPKNS_17__class_type_infoEPKvRNS1_15__upcast_resultE+0xdc>
    4baa:	2200      	movs	r2, #0
    4bac:	6022      	str	r2, [r4, #0]
    4bae:	e018      	b.n	4be2 <_ZNK10__cxxabiv121__vmi_class_type_info11__do_upcastEPKNS_17__class_type_infoEPKvRNS1_15__upcast_resultE+0x10e>
    4bb0:	b938      	cbnz	r0, 4bc2 <_ZNK10__cxxabiv121__vmi_class_type_info11__do_upcastEPKNS_17__class_type_infoEPKvRNS1_15__upcast_resultE+0xee>
    4bb2:	9805      	ldr	r0, [sp, #20]
    4bb4:	2808      	cmp	r0, #8
    4bb6:	d014      	beq.n	4be2 <_ZNK10__cxxabiv121__vmi_class_type_info11__do_upcastEPKNS_17__class_type_infoEPKvRNS1_15__upcast_resultE+0x10e>
    4bb8:	2908      	cmp	r1, #8
    4bba:	d012      	beq.n	4be2 <_ZNK10__cxxabiv121__vmi_class_type_info11__do_upcastEPKNS_17__class_type_infoEPKvRNS1_15__upcast_resultE+0x10e>
    4bbc:	f7ff ff28 	bl	4a10 <_ZNKSt9type_infoeqERKS_>
    4bc0:	b178      	cbz	r0, 4be2 <_ZNK10__cxxabiv121__vmi_class_type_info11__do_upcastEPKNS_17__class_type_infoEPKvRNS1_15__upcast_resultE+0x10e>
    4bc2:	7923      	ldrb	r3, [r4, #4]
    4bc4:	f89d 100c 	ldrb.w	r1, [sp, #12]
    4bc8:	ea41 0003 	orr.w	r0, r1, r3
    4bcc:	7120      	strb	r0, [r4, #4]
    4bce:	f109 39ff 	add.w	r9, r9, #4294967295	; 0xffffffff
    4bd2:	f1a8 0808 	sub.w	r8, r8, #8
    4bd6:	e793      	b.n	4b00 <_ZNK10__cxxabiv121__vmi_class_type_info11__do_upcastEPKNS_17__class_type_infoEPKvRNS1_15__upcast_resultE+0x2c>
    4bd8:	7920      	ldrb	r0, [r4, #4]
    4bda:	3000      	adds	r0, #0
    4bdc:	bf18      	it	ne
    4bde:	2001      	movne	r0, #1
    4be0:	e008      	b.n	4bf4 <_ZNK10__cxxabiv121__vmi_class_type_info11__do_upcastEPKNS_17__class_type_infoEPKvRNS1_15__upcast_resultE+0x120>
    4be2:	2102      	movs	r1, #2
    4be4:	7121      	strb	r1, [r4, #4]
    4be6:	2001      	movs	r0, #1
    4be8:	e004      	b.n	4bf4 <_ZNK10__cxxabiv121__vmi_class_type_info11__do_upcastEPKNS_17__class_type_infoEPKvRNS1_15__upcast_resultE+0x120>
    4bea:	f021 0302 	bic.w	r3, r1, #2
    4bee:	f88d 300c 	strb.w	r3, [sp, #12]
    4bf2:	e7be      	b.n	4b72 <_ZNK10__cxxabiv121__vmi_class_type_info11__do_upcastEPKNS_17__class_type_infoEPKvRNS1_15__upcast_resultE+0x9e>
    4bf4:	b007      	add	sp, #28
    4bf6:	e8bd 8ff0 	ldmia.w	sp!, {r4, r5, r6, r7, r8, r9, r10, r11, pc}

00004bfa <_ZNK10__cxxabiv121__vmi_class_type_info12__do_dyncastEiNS_17__class_type_info10__sub_kindEPKS1_PKvS4_S6_RNS1_16__dyncast_resultE>:
    4bfa:	e92d 4ff0 	stmdb	sp!, {r4, r5, r6, r7, r8, r9, r10, r11, lr}
    4bfe:	b08f      	sub	sp, #60	; 0x3c
    4c00:	9c1b      	ldr	r4, [sp, #108]	; 0x6c
    4c02:	469a      	mov	r10, r3
    4c04:	68a3      	ldr	r3, [r4, #8]
    4c06:	4688      	mov	r8, r1
    4c08:	06d9      	lsls	r1, r3, #27
    4c0a:	bf48      	it	mi
    4c0c:	6883      	ldrmi	r3, [r0, #8]
    4c0e:	f8dd 9068 	ldr.w	r9, [sp, #104]	; 0x68
    4c12:	9e18      	ldr	r6, [sp, #96]	; 0x60
    4c14:	bf48      	it	mi
    4c16:	60a3      	strmi	r3, [r4, #8]
    4c18:	454e      	cmp	r6, r9
    4c1a:	4683      	mov	r11, r0
    4c1c:	9205      	str	r2, [sp, #20]
    4c1e:	d107      	bne.n	4c30 <_ZNK10__cxxabiv121__vmi_class_type_info12__do_dyncastEiNS_17__class_type_info10__sub_kindEPKS1_PKvS4_S6_RNS1_16__dyncast_resultE+0x36>
    4c20:	9919      	ldr	r1, [sp, #100]	; 0x64
    4c22:	f7ff fef5 	bl	4a10 <_ZNKSt9type_infoeqERKS_>
    4c26:	b118      	cbz	r0, 4c30 <_ZNK10__cxxabiv121__vmi_class_type_info12__do_dyncastEiNS_17__class_type_info10__sub_kindEPKS1_PKvS4_S6_RNS1_16__dyncast_resultE+0x36>
    4c28:	9e05      	ldr	r6, [sp, #20]
    4c2a:	7166      	strb	r6, [r4, #5]
    4c2c:	2700      	movs	r7, #0
    4c2e:	e12f      	b.n	4e90 <_ZNK10__cxxabiv121__vmi_class_type_info12__do_dyncastEiNS_17__class_type_info10__sub_kindEPKS1_PKvS4_S6_RNS1_16__dyncast_resultE+0x296>
    4c30:	4658      	mov	r0, r11
    4c32:	4651      	mov	r1, r10
    4c34:	f7ff feec 	bl	4a10 <_ZNKSt9type_infoeqERKS_>
    4c38:	b1b8      	cbz	r0, 4c6a <_ZNK10__cxxabiv121__vmi_class_type_info12__do_dyncastEiNS_17__class_type_info10__sub_kindEPKS1_PKvS4_S6_RNS1_16__dyncast_resultE+0x70>
    4c3a:	9818      	ldr	r0, [sp, #96]	; 0x60
    4c3c:	9e05      	ldr	r6, [sp, #20]
    4c3e:	f1b8 0f00 	cmp.w	r8, #0
    4c42:	6020      	str	r0, [r4, #0]
    4c44:	7126      	strb	r6, [r4, #4]
    4c46:	db0a      	blt.n	4c5e <_ZNK10__cxxabiv121__vmi_class_type_info12__do_dyncastEiNS_17__class_type_info10__sub_kindEPKS1_PKvS4_S6_RNS1_16__dyncast_resultE+0x64>
    4c48:	9e18      	ldr	r6, [sp, #96]	; 0x60
    4c4a:	44b0      	add	r8, r6
    4c4c:	45c1      	cmp	r9, r8
    4c4e:	bf14      	ite	ne
    4c50:	f04f 0901 	movne.w	r9, #1
    4c54:	f04f 0906 	moveq.w	r9, #6
    4c58:	f884 9006 	strb.w	r9, [r4, #6]
    4c5c:	e7e6      	b.n	4c2c <_ZNK10__cxxabiv121__vmi_class_type_info12__do_dyncastEiNS_17__class_type_info10__sub_kindEPKS1_PKvS4_S6_RNS1_16__dyncast_resultE+0x32>
    4c5e:	f118 0f02 	cmn.w	r8, #2
    4c62:	d1e3      	bne.n	4c2c <_ZNK10__cxxabiv121__vmi_class_type_info12__do_dyncastEiNS_17__class_type_info10__sub_kindEPKS1_PKvS4_S6_RNS1_16__dyncast_resultE+0x32>
    4c64:	2201      	movs	r2, #1
    4c66:	71a2      	strb	r2, [r4, #6]
    4c68:	e7e0      	b.n	4c2c <_ZNK10__cxxabiv121__vmi_class_type_info12__do_dyncastEiNS_17__class_type_info10__sub_kindEPKS1_PKvS4_S6_RNS1_16__dyncast_resultE+0x32>
    4c6a:	f1b8 0f00 	cmp.w	r8, #0
    4c6e:	bfa6      	itte	ge
    4c70:	ebc8 0609 	rsbge	r6, r8, r9
    4c74:	9606      	strge	r6, [sp, #24]
    4c76:	9006      	strlt	r0, [sp, #24]
    4c78:	2700      	movs	r7, #0
    4c7a:	2101      	movs	r1, #1
    4c7c:	9709      	str	r7, [sp, #36]	; 0x24
    4c7e:	9107      	str	r1, [sp, #28]
    4c80:	f8db 300c 	ldr.w	r3, [r11, #12]
    4c84:	1e5a      	subs	r2, r3, #1
    4c86:	9208      	str	r2, [sp, #32]
    4c88:	2b00      	cmp	r3, #0
    4c8a:	f000 80b0 	beq.w	4dee <_ZNK10__cxxabiv121__vmi_class_type_info12__do_dyncastEiNS_17__class_type_info10__sub_kindEPKS1_PKvS4_S6_RNS1_16__dyncast_resultE+0x1f4>
    4c8e:	eb0b 03c3 	add.w	r3, r11, r3, lsl #3
    4c92:	68db      	ldr	r3, [r3, #12]
    4c94:	68a5      	ldr	r5, [r4, #8]
    4c96:	2600      	movs	r6, #0
    4c98:	1219      	asrs	r1, r3, #8
    4c9a:	07da      	lsls	r2, r3, #31
    4c9c:	960b      	str	r6, [sp, #44]	; 0x2c
    4c9e:	f88d 6030 	strb.w	r6, [sp, #48]	; 0x30
    4ca2:	f88d 6031 	strb.w	r6, [sp, #49]	; 0x31
    4ca6:	f88d 6032 	strb.w	r6, [sp, #50]	; 0x32
    4caa:	950d      	str	r5, [sp, #52]	; 0x34
    4cac:	d506      	bpl.n	4cbc <_ZNK10__cxxabiv121__vmi_class_type_info12__do_dyncastEiNS_17__class_type_info10__sub_kindEPKS1_PKvS4_S6_RNS1_16__dyncast_resultE+0xc2>
    4cae:	9805      	ldr	r0, [sp, #20]
    4cb0:	9e18      	ldr	r6, [sp, #96]	; 0x60
    4cb2:	f040 0201 	orr.w	r2, r0, #1
    4cb6:	6830      	ldr	r0, [r6, #0]
    4cb8:	5841      	ldr	r1, [r0, r1]
    4cba:	e000      	b.n	4cbe <_ZNK10__cxxabiv121__vmi_class_type_info12__do_dyncastEiNS_17__class_type_info10__sub_kindEPKS1_PKvS4_S6_RNS1_16__dyncast_resultE+0xc4>
    4cbc:	9a05      	ldr	r2, [sp, #20]
    4cbe:	9e18      	ldr	r6, [sp, #96]	; 0x60
    4cc0:	1871      	adds	r1, r6, r1
    4cc2:	9e06      	ldr	r6, [sp, #24]
    4cc4:	b136      	cbz	r6, 4cd4 <_ZNK10__cxxabiv121__vmi_class_type_info12__do_dyncastEiNS_17__class_type_info10__sub_kindEPKS1_PKvS4_S6_RNS1_16__dyncast_resultE+0xda>
    4cc6:	42b1      	cmp	r1, r6
    4cc8:	9e07      	ldr	r6, [sp, #28]
    4cca:	bf94      	ite	ls
    4ccc:	2000      	movls	r0, #0
    4cce:	2001      	movhi	r0, #1
    4cd0:	42b0      	cmp	r0, r6
    4cd2:	d07b      	beq.n	4dcc <_ZNK10__cxxabiv121__vmi_class_type_info12__do_dyncastEiNS_17__class_type_info10__sub_kindEPKS1_PKvS4_S6_RNS1_16__dyncast_resultE+0x1d2>
    4cd4:	079b      	lsls	r3, r3, #30
    4cd6:	d407      	bmi.n	4ce8 <_ZNK10__cxxabiv121__vmi_class_type_info12__do_dyncastEiNS_17__class_type_info10__sub_kindEPKS1_PKvS4_S6_RNS1_16__dyncast_resultE+0xee>
    4cd8:	f118 0f02 	cmn.w	r8, #2
    4cdc:	d102      	bne.n	4ce4 <_ZNK10__cxxabiv121__vmi_class_type_info12__do_dyncastEiNS_17__class_type_info10__sub_kindEPKS1_PKvS4_S6_RNS1_16__dyncast_resultE+0xea>
    4cde:	07ae      	lsls	r6, r5, #30
    4ce0:	f000 8083 	beq.w	4dea <_ZNK10__cxxabiv121__vmi_class_type_info12__do_dyncastEiNS_17__class_type_info10__sub_kindEPKS1_PKvS4_S6_RNS1_16__dyncast_resultE+0x1f0>
    4ce4:	f002 02fd 	and.w	r2, r2, #253	; 0xfd
    4ce8:	9d08      	ldr	r5, [sp, #32]
    4cea:	ae0b      	add	r6, sp, #44	; 0x2c
    4cec:	eb0b 03c5 	add.w	r3, r11, r5, lsl #3
    4cf0:	6918      	ldr	r0, [r3, #16]
    4cf2:	4653      	mov	r3, r10
    4cf4:	6805      	ldr	r5, [r0, #0]
    4cf6:	9100      	str	r1, [sp, #0]
    4cf8:	9919      	ldr	r1, [sp, #100]	; 0x64
    4cfa:	9603      	str	r6, [sp, #12]
    4cfc:	9101      	str	r1, [sp, #4]
    4cfe:	f8cd 9008 	str.w	r9, [sp, #8]
    4d02:	69ed      	ldr	r5, [r5, #28]
    4d04:	4641      	mov	r1, r8
    4d06:	47a8      	blx	r5
    4d08:	7963      	ldrb	r3, [r4, #5]
    4d0a:	f89d 2031 	ldrb.w	r2, [sp, #49]	; 0x31
    4d0e:	f89d 6032 	ldrb.w	r6, [sp, #50]	; 0x32
    4d12:	4313      	orrs	r3, r2
    4d14:	2e06      	cmp	r6, #6
    4d16:	7163      	strb	r3, [r4, #5]
    4d18:	d001      	beq.n	4d1e <_ZNK10__cxxabiv121__vmi_class_type_info12__do_dyncastEiNS_17__class_type_info10__sub_kindEPKS1_PKvS4_S6_RNS1_16__dyncast_resultE+0x124>
    4d1a:	2e02      	cmp	r6, #2
    4d1c:	d106      	bne.n	4d2c <_ZNK10__cxxabiv121__vmi_class_type_info12__do_dyncastEiNS_17__class_type_info10__sub_kindEPKS1_PKvS4_S6_RNS1_16__dyncast_resultE+0x132>
    4d1e:	9f0b      	ldr	r7, [sp, #44]	; 0x2c
    4d20:	f89d 1030 	ldrb.w	r1, [sp, #48]	; 0x30
    4d24:	6027      	str	r7, [r4, #0]
    4d26:	7121      	strb	r1, [r4, #4]
    4d28:	71a6      	strb	r6, [r4, #6]
    4d2a:	e05c      	b.n	4de6 <_ZNK10__cxxabiv121__vmi_class_type_info12__do_dyncastEiNS_17__class_type_info10__sub_kindEPKS1_PKvS4_S6_RNS1_16__dyncast_resultE+0x1ec>
    4d2c:	6822      	ldr	r2, [r4, #0]
    4d2e:	b977      	cbnz	r7, 4d4e <_ZNK10__cxxabiv121__vmi_class_type_info12__do_dyncastEiNS_17__class_type_info10__sub_kindEPKS1_PKvS4_S6_RNS1_16__dyncast_resultE+0x154>
    4d30:	b96a      	cbnz	r2, 4d4e <_ZNK10__cxxabiv121__vmi_class_type_info12__do_dyncastEiNS_17__class_type_info10__sub_kindEPKS1_PKvS4_S6_RNS1_16__dyncast_resultE+0x154>
    4d32:	9f0b      	ldr	r7, [sp, #44]	; 0x2c
    4d34:	f89d 1030 	ldrb.w	r1, [sp, #48]	; 0x30
    4d38:	6027      	str	r7, [r4, #0]
    4d3a:	7121      	strb	r1, [r4, #4]
    4d3c:	2f00      	cmp	r7, #0
    4d3e:	d040      	beq.n	4dc2 <_ZNK10__cxxabiv121__vmi_class_type_info12__do_dyncastEiNS_17__class_type_info10__sub_kindEPKS1_PKvS4_S6_RNS1_16__dyncast_resultE+0x1c8>
    4d40:	2b00      	cmp	r3, #0
    4d42:	d03e      	beq.n	4dc2 <_ZNK10__cxxabiv121__vmi_class_type_info12__do_dyncastEiNS_17__class_type_info10__sub_kindEPKS1_PKvS4_S6_RNS1_16__dyncast_resultE+0x1c8>
    4d44:	f8db 3008 	ldr.w	r3, [r11, #8]
    4d48:	07da      	lsls	r2, r3, #31
    4d4a:	d43a      	bmi.n	4dc2 <_ZNK10__cxxabiv121__vmi_class_type_info12__do_dyncastEiNS_17__class_type_info10__sub_kindEPKS1_PKvS4_S6_RNS1_16__dyncast_resultE+0x1c8>
    4d4c:	e04b      	b.n	4de6 <_ZNK10__cxxabiv121__vmi_class_type_info12__do_dyncastEiNS_17__class_type_info10__sub_kindEPKS1_PKvS4_S6_RNS1_16__dyncast_resultE+0x1ec>
    4d4e:	b15a      	cbz	r2, 4d68 <_ZNK10__cxxabiv121__vmi_class_type_info12__do_dyncastEiNS_17__class_type_info10__sub_kindEPKS1_PKvS4_S6_RNS1_16__dyncast_resultE+0x16e>
    4d50:	990b      	ldr	r1, [sp, #44]	; 0x2c
    4d52:	428a      	cmp	r2, r1
    4d54:	d106      	bne.n	4d64 <_ZNK10__cxxabiv121__vmi_class_type_info12__do_dyncastEiNS_17__class_type_info10__sub_kindEPKS1_PKvS4_S6_RNS1_16__dyncast_resultE+0x16a>
    4d56:	7922      	ldrb	r2, [r4, #4]
    4d58:	f89d 1030 	ldrb.w	r1, [sp, #48]	; 0x30
    4d5c:	ea41 0002 	orr.w	r0, r1, r2
    4d60:	7120      	strb	r0, [r4, #4]
    4d62:	e02d      	b.n	4dc0 <_ZNK10__cxxabiv121__vmi_class_type_info12__do_dyncastEiNS_17__class_type_info10__sub_kindEPKS1_PKvS4_S6_RNS1_16__dyncast_resultE+0x1c6>
    4d64:	b919      	cbnz	r1, 4d6e <_ZNK10__cxxabiv121__vmi_class_type_info12__do_dyncastEiNS_17__class_type_info10__sub_kindEPKS1_PKvS4_S6_RNS1_16__dyncast_resultE+0x174>
    4d66:	b910      	cbnz	r0, 4d6e <_ZNK10__cxxabiv121__vmi_class_type_info12__do_dyncastEiNS_17__class_type_info10__sub_kindEPKS1_PKvS4_S6_RNS1_16__dyncast_resultE+0x174>
    4d68:	980b      	ldr	r0, [sp, #44]	; 0x2c
    4d6a:	b348      	cbz	r0, 4dc0 <_ZNK10__cxxabiv121__vmi_class_type_info12__do_dyncastEiNS_17__class_type_info10__sub_kindEPKS1_PKvS4_S6_RNS1_16__dyncast_resultE+0x1c6>
    4d6c:	b347      	cbz	r7, 4dc0 <_ZNK10__cxxabiv121__vmi_class_type_info12__do_dyncastEiNS_17__class_type_info10__sub_kindEPKS1_PKvS4_S6_RNS1_16__dyncast_resultE+0x1c6>
    4d6e:	2b03      	cmp	r3, #3
    4d70:	79a5      	ldrb	r5, [r4, #6]
    4d72:	d904      	bls.n	4d7e <_ZNK10__cxxabiv121__vmi_class_type_info12__do_dyncastEiNS_17__class_type_info10__sub_kindEPKS1_PKvS4_S6_RNS1_16__dyncast_resultE+0x184>
    4d74:	07db      	lsls	r3, r3, #31
    4d76:	d542      	bpl.n	4dfe <_ZNK10__cxxabiv121__vmi_class_type_info12__do_dyncastEiNS_17__class_type_info10__sub_kindEPKS1_PKvS4_S6_RNS1_16__dyncast_resultE+0x204>
    4d78:	68a3      	ldr	r3, [r4, #8]
    4d7a:	0798      	lsls	r0, r3, #30
    4d7c:	d53f      	bpl.n	4dfe <_ZNK10__cxxabiv121__vmi_class_type_info12__do_dyncastEiNS_17__class_type_info10__sub_kindEPKS1_PKvS4_S6_RNS1_16__dyncast_resultE+0x204>
    4d7e:	b94d      	cbnz	r5, 4d94 <_ZNK10__cxxabiv121__vmi_class_type_info12__do_dyncastEiNS_17__class_type_info10__sub_kindEPKS1_PKvS4_S6_RNS1_16__dyncast_resultE+0x19a>
    4d80:	2e03      	cmp	r6, #3
    4d82:	d848      	bhi.n	4e16 <_ZNK10__cxxabiv121__vmi_class_type_info12__do_dyncastEiNS_17__class_type_info10__sub_kindEPKS1_PKvS4_S6_RNS1_16__dyncast_resultE+0x21c>
    4d84:	f1b8 0f00 	cmp.w	r8, #0
    4d88:	db59      	blt.n	4e3e <_ZNK10__cxxabiv121__vmi_class_type_info12__do_dyncastEiNS_17__class_type_info10__sub_kindEPKS1_PKvS4_S6_RNS1_16__dyncast_resultE+0x244>
    4d8a:	4442      	add	r2, r8
    4d8c:	4591      	cmp	r9, r2
    4d8e:	bf0c      	ite	eq
    4d90:	2506      	moveq	r5, #6
    4d92:	2501      	movne	r5, #1
    4d94:	2e00      	cmp	r6, #0
    4d96:	d045      	beq.n	4e24 <_ZNK10__cxxabiv121__vmi_class_type_info12__do_dyncastEiNS_17__class_type_info10__sub_kindEPKS1_PKvS4_S6_RNS1_16__dyncast_resultE+0x22a>
    4d98:	ea85 0106 	eor.w	r1, r5, r6
    4d9c:	b2ca      	uxtb	r2, r1
    4d9e:	2a03      	cmp	r2, #3
    4da0:	d917      	bls.n	4dd2 <_ZNK10__cxxabiv121__vmi_class_type_info12__do_dyncastEiNS_17__class_type_info10__sub_kindEPKS1_PKvS4_S6_RNS1_16__dyncast_resultE+0x1d8>
    4da2:	2e03      	cmp	r6, #3
    4da4:	d906      	bls.n	4db4 <_ZNK10__cxxabiv121__vmi_class_type_info12__do_dyncastEiNS_17__class_type_info10__sub_kindEPKS1_PKvS4_S6_RNS1_16__dyncast_resultE+0x1ba>
    4da6:	9d0b      	ldr	r5, [sp, #44]	; 0x2c
    4da8:	f89d 3030 	ldrb.w	r3, [sp, #48]	; 0x30
    4dac:	6025      	str	r5, [r4, #0]
    4dae:	7123      	strb	r3, [r4, #4]
    4db0:	4635      	mov	r5, r6
    4db2:	2700      	movs	r7, #0
    4db4:	07a9      	lsls	r1, r5, #30
    4db6:	71a5      	strb	r5, [r4, #6]
    4db8:	d42b      	bmi.n	4e12 <_ZNK10__cxxabiv121__vmi_class_type_info12__do_dyncastEiNS_17__class_type_info10__sub_kindEPKS1_PKvS4_S6_RNS1_16__dyncast_resultE+0x218>
    4dba:	f015 0001 	ands.w	r0, r5, #1
    4dbe:	d012      	beq.n	4de6 <_ZNK10__cxxabiv121__vmi_class_type_info12__do_dyncastEiNS_17__class_type_info10__sub_kindEPKS1_PKvS4_S6_RNS1_16__dyncast_resultE+0x1ec>
    4dc0:	4638      	mov	r0, r7
    4dc2:	7962      	ldrb	r2, [r4, #5]
    4dc4:	2a04      	cmp	r2, #4
    4dc6:	d00e      	beq.n	4de6 <_ZNK10__cxxabiv121__vmi_class_type_info12__do_dyncastEiNS_17__class_type_info10__sub_kindEPKS1_PKvS4_S6_RNS1_16__dyncast_resultE+0x1ec>
    4dc8:	4607      	mov	r7, r0
    4dca:	e00e      	b.n	4dea <_ZNK10__cxxabiv121__vmi_class_type_info12__do_dyncastEiNS_17__class_type_info10__sub_kindEPKS1_PKvS4_S6_RNS1_16__dyncast_resultE+0x1f0>
    4dcc:	2601      	movs	r6, #1
    4dce:	9609      	str	r6, [sp, #36]	; 0x24
    4dd0:	e00b      	b.n	4dea <_ZNK10__cxxabiv121__vmi_class_type_info12__do_dyncastEiNS_17__class_type_info10__sub_kindEPKS1_PKvS4_S6_RNS1_16__dyncast_resultE+0x1f0>
    4dd2:	4035      	ands	r5, r6
    4dd4:	b2ed      	uxtb	r5, r5
    4dd6:	f04f 0700 	mov.w	r7, #0
    4dda:	2d03      	cmp	r5, #3
    4ddc:	6027      	str	r7, [r4, #0]
    4dde:	d915      	bls.n	4e0c <_ZNK10__cxxabiv121__vmi_class_type_info12__do_dyncastEiNS_17__class_type_info10__sub_kindEPKS1_PKvS4_S6_RNS1_16__dyncast_resultE+0x212>
    4de0:	2002      	movs	r0, #2
    4de2:	71a0      	strb	r0, [r4, #6]
    4de4:	2001      	movs	r0, #1
    4de6:	4607      	mov	r7, r0
    4de8:	e052      	b.n	4e90 <_ZNK10__cxxabiv121__vmi_class_type_info12__do_dyncastEiNS_17__class_type_info10__sub_kindEPKS1_PKvS4_S6_RNS1_16__dyncast_resultE+0x296>
    4dea:	9b08      	ldr	r3, [sp, #32]
    4dec:	e74a      	b.n	4c84 <_ZNK10__cxxabiv121__vmi_class_type_info12__do_dyncastEiNS_17__class_type_info10__sub_kindEPKS1_PKvS4_S6_RNS1_16__dyncast_resultE+0x8a>
    4dee:	9e09      	ldr	r6, [sp, #36]	; 0x24
    4df0:	2e00      	cmp	r6, #0
    4df2:	d04d      	beq.n	4e90 <_ZNK10__cxxabiv121__vmi_class_type_info12__do_dyncastEiNS_17__class_type_info10__sub_kindEPKS1_PKvS4_S6_RNS1_16__dyncast_resultE+0x296>
    4df4:	9e07      	ldr	r6, [sp, #28]
    4df6:	2e00      	cmp	r6, #0
    4df8:	d04a      	beq.n	4e90 <_ZNK10__cxxabiv121__vmi_class_type_info12__do_dyncastEiNS_17__class_type_info10__sub_kindEPKS1_PKvS4_S6_RNS1_16__dyncast_resultE+0x296>
    4dfa:	9307      	str	r3, [sp, #28]
    4dfc:	e740      	b.n	4c80 <_ZNK10__cxxabiv121__vmi_class_type_info12__do_dyncastEiNS_17__class_type_info10__sub_kindEPKS1_PKvS4_S6_RNS1_16__dyncast_resultE+0x86>
    4dfe:	2d00      	cmp	r5, #0
    4e00:	bf08      	it	eq
    4e02:	2501      	moveq	r5, #1
    4e04:	2e00      	cmp	r6, #0
    4e06:	bf08      	it	eq
    4e08:	2601      	moveq	r6, #1
    4e0a:	e7c5      	b.n	4d98 <_ZNK10__cxxabiv121__vmi_class_type_info12__do_dyncastEiNS_17__class_type_info10__sub_kindEPKS1_PKvS4_S6_RNS1_16__dyncast_resultE+0x19e>
    4e0c:	2001      	movs	r0, #1
    4e0e:	71a0      	strb	r0, [r4, #6]
    4e10:	e7d7      	b.n	4dc2 <_ZNK10__cxxabiv121__vmi_class_type_info12__do_dyncastEiNS_17__class_type_info10__sub_kindEPKS1_PKvS4_S6_RNS1_16__dyncast_resultE+0x1c8>
    4e12:	2000      	movs	r0, #0
    4e14:	e7e7      	b.n	4de6 <_ZNK10__cxxabiv121__vmi_class_type_info12__do_dyncastEiNS_17__class_type_info10__sub_kindEPKS1_PKvS4_S6_RNS1_16__dyncast_resultE+0x1ec>
    4e16:	07f1      	lsls	r1, r6, #31
    4e18:	d50d      	bpl.n	4e36 <_ZNK10__cxxabiv121__vmi_class_type_info12__do_dyncastEiNS_17__class_type_info10__sub_kindEPKS1_PKvS4_S6_RNS1_16__dyncast_resultE+0x23c>
    4e1a:	f8db 5008 	ldr.w	r5, [r11, #8]
    4e1e:	07ab      	lsls	r3, r5, #30
    4e20:	d509      	bpl.n	4e36 <_ZNK10__cxxabiv121__vmi_class_type_info12__do_dyncastEiNS_17__class_type_info10__sub_kindEPKS1_PKvS4_S6_RNS1_16__dyncast_resultE+0x23c>
    4e22:	e7af      	b.n	4d84 <_ZNK10__cxxabiv121__vmi_class_type_info12__do_dyncastEiNS_17__class_type_info10__sub_kindEPKS1_PKvS4_S6_RNS1_16__dyncast_resultE+0x18a>
    4e24:	2d03      	cmp	r5, #3
    4e26:	d91a      	bls.n	4e5e <_ZNK10__cxxabiv121__vmi_class_type_info12__do_dyncastEiNS_17__class_type_info10__sub_kindEPKS1_PKvS4_S6_RNS1_16__dyncast_resultE+0x264>
    4e28:	07ee      	lsls	r6, r5, #31
    4e2a:	d506      	bpl.n	4e3a <_ZNK10__cxxabiv121__vmi_class_type_info12__do_dyncastEiNS_17__class_type_info10__sub_kindEPKS1_PKvS4_S6_RNS1_16__dyncast_resultE+0x240>
    4e2c:	f8db 6008 	ldr.w	r6, [r11, #8]
    4e30:	07b0      	lsls	r0, r6, #30
    4e32:	d502      	bpl.n	4e3a <_ZNK10__cxxabiv121__vmi_class_type_info12__do_dyncastEiNS_17__class_type_info10__sub_kindEPKS1_PKvS4_S6_RNS1_16__dyncast_resultE+0x240>
    4e34:	e013      	b.n	4e5e <_ZNK10__cxxabiv121__vmi_class_type_info12__do_dyncastEiNS_17__class_type_info10__sub_kindEPKS1_PKvS4_S6_RNS1_16__dyncast_resultE+0x264>
    4e36:	2501      	movs	r5, #1
    4e38:	e7ae      	b.n	4d98 <_ZNK10__cxxabiv121__vmi_class_type_info12__do_dyncastEiNS_17__class_type_info10__sub_kindEPKS1_PKvS4_S6_RNS1_16__dyncast_resultE+0x19e>
    4e3a:	2601      	movs	r6, #1
    4e3c:	e7ac      	b.n	4d98 <_ZNK10__cxxabiv121__vmi_class_type_info12__do_dyncastEiNS_17__class_type_info10__sub_kindEPKS1_PKvS4_S6_RNS1_16__dyncast_resultE+0x19e>
    4e3e:	f118 0f02 	cmn.w	r8, #2
    4e42:	d00a      	beq.n	4e5a <_ZNK10__cxxabiv121__vmi_class_type_info12__do_dyncastEiNS_17__class_type_info10__sub_kindEPKS1_PKvS4_S6_RNS1_16__dyncast_resultE+0x260>
    4e44:	f8da 1000 	ldr.w	r1, [r10]
    4e48:	f8cd 9000 	str.w	r9, [sp]
    4e4c:	6a0d      	ldr	r5, [r1, #32]
    4e4e:	4650      	mov	r0, r10
    4e50:	4641      	mov	r1, r8
    4e52:	9b19      	ldr	r3, [sp, #100]	; 0x64
    4e54:	47a8      	blx	r5
    4e56:	4605      	mov	r5, r0
    4e58:	e79c      	b.n	4d94 <_ZNK10__cxxabiv121__vmi_class_type_info12__do_dyncastEiNS_17__class_type_info10__sub_kindEPKS1_PKvS4_S6_RNS1_16__dyncast_resultE+0x19a>
    4e5a:	2501      	movs	r5, #1
    4e5c:	e79a      	b.n	4d94 <_ZNK10__cxxabiv121__vmi_class_type_info12__do_dyncastEiNS_17__class_type_info10__sub_kindEPKS1_PKvS4_S6_RNS1_16__dyncast_resultE+0x19a>
    4e5e:	f1b8 0f00 	cmp.w	r8, #0
    4e62:	9a0b      	ldr	r2, [sp, #44]	; 0x2c
    4e64:	db06      	blt.n	4e74 <_ZNK10__cxxabiv121__vmi_class_type_info12__do_dyncastEiNS_17__class_type_info10__sub_kindEPKS1_PKvS4_S6_RNS1_16__dyncast_resultE+0x27a>
    4e66:	eb02 0308 	add.w	r3, r2, r8
    4e6a:	4599      	cmp	r9, r3
    4e6c:	bf14      	ite	ne
    4e6e:	2601      	movne	r6, #1
    4e70:	2606      	moveq	r6, #6
    4e72:	e791      	b.n	4d98 <_ZNK10__cxxabiv121__vmi_class_type_info12__do_dyncastEiNS_17__class_type_info10__sub_kindEPKS1_PKvS4_S6_RNS1_16__dyncast_resultE+0x19e>
    4e74:	f118 0f02 	cmn.w	r8, #2
    4e78:	d0df      	beq.n	4e3a <_ZNK10__cxxabiv121__vmi_class_type_info12__do_dyncastEiNS_17__class_type_info10__sub_kindEPKS1_PKvS4_S6_RNS1_16__dyncast_resultE+0x240>
    4e7a:	f8da 0000 	ldr.w	r0, [r10]
    4e7e:	f8cd 9000 	str.w	r9, [sp]
    4e82:	6a06      	ldr	r6, [r0, #32]
    4e84:	4641      	mov	r1, r8
    4e86:	4650      	mov	r0, r10
    4e88:	9b19      	ldr	r3, [sp, #100]	; 0x64
    4e8a:	47b0      	blx	r6
    4e8c:	4606      	mov	r6, r0
    4e8e:	e783      	b.n	4d98 <_ZNK10__cxxabiv121__vmi_class_type_info12__do_dyncastEiNS_17__class_type_info10__sub_kindEPKS1_PKvS4_S6_RNS1_16__dyncast_resultE+0x19e>
    4e90:	4638      	mov	r0, r7
    4e92:	b00f      	add	sp, #60	; 0x3c
    4e94:	e8bd 8ff0 	ldmia.w	sp!, {r4, r5, r6, r7, r8, r9, r10, r11, pc}

00004e98 <_ZSt17__throw_bad_allocv>:
    4e98:	b508      	push	{r3, lr}
    4e9a:	f7fe fa63 	bl	3364 <abort>

00004e9e <_ZSt19__throw_logic_errorPKc>:
    4e9e:	b508      	push	{r3, lr}
    4ea0:	f7fe fa60 	bl	3364 <abort>

00004ea4 <_ZSt20__throw_length_errorPKc>:
    4ea4:	b508      	push	{r3, lr}
    4ea6:	f7fe fa5d 	bl	3364 <abort>

00004eaa <_ZSt20__throw_out_of_rangePKc>:
    4eaa:	b508      	push	{r3, lr}
    4eac:	f7fe fa5a 	bl	3364 <abort>

00004eb0 <_ZNKSs8_M_checkEjPKc>:
    4eb0:	b508      	push	{r3, lr}
    4eb2:	6803      	ldr	r3, [r0, #0]
    4eb4:	f853 0c0c 	ldr.w	r0, [r3, #-12]
    4eb8:	4281      	cmp	r1, r0
    4eba:	d902      	bls.n	4ec2 <_ZNKSs8_M_checkEjPKc+0x12>
    4ebc:	4610      	mov	r0, r2
    4ebe:	f7ff fff4 	bl	4eaa <_ZSt20__throw_out_of_rangePKc>
    4ec2:	4608      	mov	r0, r1
    4ec4:	bd08      	pop	{r3, pc}
	...

00004ec8 <_ZNKSs15_M_check_lengthEjjPKc>:
    4ec8:	6800      	ldr	r0, [r0, #0]
    4eca:	b510      	push	{r4, lr}
    4ecc:	f850 0c0c 	ldr.w	r0, [r0, #-12]
    4ed0:	4c04      	ldr	r4, [pc, #16]	; (4ee4 <_ZNKSs15_M_check_lengthEjjPKc+0x1c>)
    4ed2:	1a24      	subs	r4, r4, r0
    4ed4:	1861      	adds	r1, r4, r1
    4ed6:	4291      	cmp	r1, r2
    4ed8:	d202      	bcs.n	4ee0 <_ZNKSs15_M_check_lengthEjjPKc+0x18>
    4eda:	4618      	mov	r0, r3
    4edc:	f7ff ffe2 	bl	4ea4 <_ZSt20__throw_length_errorPKc>
    4ee0:	bd10      	pop	{r4, pc}
    4ee2:	bf00      	nop
    4ee4:	3ffffffc 	.word	0x3ffffffc

00004ee8 <_ZNKSs11_M_disjunctEPKc>:
    4ee8:	6803      	ldr	r3, [r0, #0]
    4eea:	4299      	cmp	r1, r3
    4eec:	d307      	bcc.n	4efe <_ZNKSs11_M_disjunctEPKc+0x16>
    4eee:	f853 0c0c 	ldr.w	r0, [r3, #-12]
    4ef2:	1818      	adds	r0, r3, r0
    4ef4:	4281      	cmp	r1, r0
    4ef6:	bf94      	ite	ls
    4ef8:	2000      	movls	r0, #0
    4efa:	2001      	movhi	r0, #1
    4efc:	4770      	bx	lr
    4efe:	2001      	movs	r0, #1
    4f00:	4770      	bx	lr

00004f02 <_ZNSs7_M_copyEPcPKcj>:
    4f02:	2a01      	cmp	r2, #1
    4f04:	b510      	push	{r4, lr}
    4f06:	460c      	mov	r4, r1
    4f08:	d102      	bne.n	4f10 <_ZNSs7_M_copyEPcPKcj+0xe>
    4f0a:	780a      	ldrb	r2, [r1, #0]
    4f0c:	7002      	strb	r2, [r0, #0]
    4f0e:	bd10      	pop	{r4, pc}
    4f10:	e8bd 4010 	ldmia.w	sp!, {r4, lr}
    4f14:	f001 bfe3 	b.w	6ede <memcpy>

00004f18 <_ZNSs7_M_moveEPcPKcj>:
    4f18:	2a01      	cmp	r2, #1
    4f1a:	b510      	push	{r4, lr}
    4f1c:	460c      	mov	r4, r1
    4f1e:	d102      	bne.n	4f26 <_ZNSs7_M_moveEPcPKcj+0xe>
    4f20:	780a      	ldrb	r2, [r1, #0]
    4f22:	7002      	strb	r2, [r0, #0]
    4f24:	bd10      	pop	{r4, pc}
    4f26:	e8bd 4010 	ldmia.w	sp!, {r4, lr}
    4f2a:	f001 bfe1 	b.w	6ef0 <memmove>

00004f2e <_ZNSs13_S_copy_charsEPcS_S_>:
    4f2e:	b508      	push	{r3, lr}
    4f30:	1a52      	subs	r2, r2, r1
    4f32:	f7ff ffe6 	bl	4f02 <_ZNSs7_M_copyEPcPKcj>
    4f36:	bd08      	pop	{r3, pc}

00004f38 <_ZNSs13_S_copy_charsEPcPKcS1_>:
    4f38:	b508      	push	{r3, lr}
    4f3a:	1a52      	subs	r2, r2, r1
    4f3c:	f7ff ffe1 	bl	4f02 <_ZNSs7_M_copyEPcPKcj>
    4f40:	bd08      	pop	{r3, pc}

00004f42 <_ZNKSs13find_first_ofEPKcjj>:
    4f42:	e92d 41f0 	stmdb	sp!, {r4, r5, r6, r7, r8, lr}
    4f46:	460f      	mov	r7, r1
    4f48:	4614      	mov	r4, r2
    4f4a:	461d      	mov	r5, r3
    4f4c:	b123      	cbz	r3, 4f58 <_ZNKSs13find_first_ofEPKcjj+0x16>
    4f4e:	6806      	ldr	r6, [r0, #0]
    4f50:	f856 8c0c 	ldr.w	r8, [r6, #-12]
    4f54:	4544      	cmp	r4, r8
    4f56:	d302      	bcc.n	4f5e <_ZNKSs13find_first_ofEPKcjj+0x1c>
    4f58:	f04f 34ff 	mov.w	r4, #4294967295	; 0xffffffff
    4f5c:	e007      	b.n	4f6e <_ZNKSs13find_first_ofEPKcjj+0x2c>
    4f5e:	4638      	mov	r0, r7
    4f60:	5d31      	ldrb	r1, [r6, r4]
    4f62:	462a      	mov	r2, r5
    4f64:	f001 ff9e 	bl	6ea4 <memchr>
    4f68:	b908      	cbnz	r0, 4f6e <_ZNKSs13find_first_ofEPKcjj+0x2c>
    4f6a:	3401      	adds	r4, #1
    4f6c:	e7f2      	b.n	4f54 <_ZNKSs13find_first_ofEPKcjj+0x12>
    4f6e:	4620      	mov	r0, r4
    4f70:	e8bd 81f0 	ldmia.w	sp!, {r4, r5, r6, r7, r8, pc}

00004f74 <_ZNKSs17find_first_not_ofEPKcjj>:
    4f74:	e92d 41f0 	stmdb	sp!, {r4, r5, r6, r7, r8, lr}
    4f78:	6805      	ldr	r5, [r0, #0]
    4f7a:	460f      	mov	r7, r1
    4f7c:	f855 6c0c 	ldr.w	r6, [r5, #-12]
    4f80:	4614      	mov	r4, r2
    4f82:	4698      	mov	r8, r3
    4f84:	42b4      	cmp	r4, r6
    4f86:	d207      	bcs.n	4f98 <_ZNKSs17find_first_not_ofEPKcjj+0x24>
    4f88:	4638      	mov	r0, r7
    4f8a:	5d29      	ldrb	r1, [r5, r4]
    4f8c:	4642      	mov	r2, r8
    4f8e:	f001 ff89 	bl	6ea4 <memchr>
    4f92:	b118      	cbz	r0, 4f9c <_ZNKSs17find_first_not_ofEPKcjj+0x28>
    4f94:	3401      	adds	r4, #1
    4f96:	e7f5      	b.n	4f84 <_ZNKSs17find_first_not_ofEPKcjj+0x10>
    4f98:	f04f 34ff 	mov.w	r4, #4294967295	; 0xffffffff
    4f9c:	4620      	mov	r0, r4
    4f9e:	e8bd 81f0 	ldmia.w	sp!, {r4, r5, r6, r7, r8, pc}
	...

00004fa4 <_ZNSs4_Rep26_M_set_length_and_sharableEj>:
    4fa4:	4b04      	ldr	r3, [pc, #16]	; (4fb8 <_ZNSs4_Rep26_M_set_length_and_sharableEj+0x14>)
    4fa6:	4298      	cmp	r0, r3
    4fa8:	d004      	beq.n	4fb4 <_ZNSs4_Rep26_M_set_length_and_sharableEj+0x10>
    4faa:	2200      	movs	r2, #0
    4fac:	6082      	str	r2, [r0, #8]
    4fae:	6001      	str	r1, [r0, #0]
    4fb0:	1840      	adds	r0, r0, r1
    4fb2:	7302      	strb	r2, [r0, #12]
    4fb4:	4770      	bx	lr
    4fb6:	bf00      	nop
    4fb8:	10000964 	.word	0x10000964

00004fbc <_ZNSs4_Rep9_S_createEjjRKSaIcE>:
    4fbc:	4b13      	ldr	r3, [pc, #76]	; (500c <_ZNSs4_Rep9_S_createEjjRKSaIcE+0x50>)
    4fbe:	b510      	push	{r4, lr}
    4fc0:	4298      	cmp	r0, r3
    4fc2:	4604      	mov	r4, r0
    4fc4:	d902      	bls.n	4fcc <_ZNSs4_Rep9_S_createEjjRKSaIcE+0x10>
    4fc6:	4812      	ldr	r0, [pc, #72]	; (5010 <_ZNSs4_Rep9_S_createEjjRKSaIcE+0x54>)
    4fc8:	f7ff ff6c 	bl	4ea4 <_ZSt20__throw_length_errorPKc>
    4fcc:	4288      	cmp	r0, r1
    4fce:	d903      	bls.n	4fd8 <_ZNSs4_Rep9_S_createEjjRKSaIcE+0x1c>
    4fd0:	0048      	lsls	r0, r1, #1
    4fd2:	4284      	cmp	r4, r0
    4fd4:	bf38      	it	cc
    4fd6:	4604      	movcc	r4, r0
    4fd8:	f104 021d 	add.w	r2, r4, #29
    4fdc:	f5b2 5f80 	cmp.w	r2, #4096	; 0x1000
    4fe0:	f104 000d 	add.w	r0, r4, #13
    4fe4:	d90c      	bls.n	5000 <_ZNSs4_Rep9_S_createEjjRKSaIcE+0x44>
    4fe6:	428c      	cmp	r4, r1
    4fe8:	d90a      	bls.n	5000 <_ZNSs4_Rep9_S_createEjjRKSaIcE+0x44>
    4fea:	f504 5480 	add.w	r4, r4, #4096	; 0x1000
    4fee:	0511      	lsls	r1, r2, #20
    4ff0:	4b06      	ldr	r3, [pc, #24]	; (500c <_ZNSs4_Rep9_S_createEjjRKSaIcE+0x50>)
    4ff2:	eba4 5411 	sub.w	r4, r4, r1, lsr #20
    4ff6:	429c      	cmp	r4, r3
    4ff8:	bf28      	it	cs
    4ffa:	461c      	movcs	r4, r3
    4ffc:	f104 000d 	add.w	r0, r4, #13
    5000:	f7ff fc60 	bl	48c4 <_Znwj>
    5004:	2200      	movs	r2, #0
    5006:	6044      	str	r4, [r0, #4]
    5008:	6082      	str	r2, [r0, #8]
    500a:	bd10      	pop	{r4, pc}
    500c:	3ffffffc 	.word	0x3ffffffc
    5010:	0000958a 	.word	0x0000958a

00005014 <_ZNSs4_Rep10_M_destroyERKSaIcE>:
    5014:	f7ff bc52 	b.w	48bc <_ZdlPv>

00005018 <_ZNSs4_Rep10_M_disposeERKSaIcE>:
    5018:	4a05      	ldr	r2, [pc, #20]	; (5030 <_ZNSs4_Rep10_M_disposeERKSaIcE+0x18>)
    501a:	b510      	push	{r4, lr}
    501c:	4290      	cmp	r0, r2
    501e:	d006      	beq.n	502e <_ZNSs4_Rep10_M_disposeERKSaIcE+0x16>
    5020:	6882      	ldr	r2, [r0, #8]
    5022:	1e54      	subs	r4, r2, #1
    5024:	2a00      	cmp	r2, #0
    5026:	6084      	str	r4, [r0, #8]
    5028:	dc01      	bgt.n	502e <_ZNSs4_Rep10_M_disposeERKSaIcE+0x16>
    502a:	f7ff fff3 	bl	5014 <_ZNSs4_Rep10_M_destroyERKSaIcE>
    502e:	bd10      	pop	{r4, pc}
    5030:	10000964 	.word	0x10000964

00005034 <_ZNSs9_M_mutateEjjj>:
    5034:	e92d 47f3 	stmdb	sp!, {r0, r1, r4, r5, r6, r7, r8, r9, r10, lr}
    5038:	6807      	ldr	r7, [r0, #0]
    503a:	4699      	mov	r9, r3
    503c:	f857 3c0c 	ldr.w	r3, [r7, #-12]
    5040:	460c      	mov	r4, r1
    5042:	ebc1 0803 	rsb	r8, r1, r3
    5046:	ebc2 0a09 	rsb	r10, r2, r9
    504a:	f857 1c08 	ldr.w	r1, [r7, #-8]
    504e:	449a      	add	r10, r3
    5050:	458a      	cmp	r10, r1
    5052:	4605      	mov	r5, r0
    5054:	4616      	mov	r6, r2
    5056:	ebc2 0808 	rsb	r8, r2, r8
    505a:	d817      	bhi.n	508c <_ZNSs9_M_mutateEjjj+0x58>
    505c:	f857 0c04 	ldr.w	r0, [r7, #-4]
    5060:	2800      	cmp	r0, #0
    5062:	dc13      	bgt.n	508c <_ZNSs9_M_mutateEjjj+0x58>
    5064:	f1b8 0f00 	cmp.w	r8, #0
    5068:	d009      	beq.n	507e <_ZNSs9_M_mutateEjjj+0x4a>
    506a:	454e      	cmp	r6, r9
    506c:	d007      	beq.n	507e <_ZNSs9_M_mutateEjjj+0x4a>
    506e:	eb09 0204 	add.w	r2, r9, r4
    5072:	1931      	adds	r1, r6, r4
    5074:	18b8      	adds	r0, r7, r2
    5076:	1879      	adds	r1, r7, r1
    5078:	4642      	mov	r2, r8
    507a:	f7ff ff4d 	bl	4f18 <_ZNSs7_M_moveEPcPKcj>
    507e:	6828      	ldr	r0, [r5, #0]
    5080:	4651      	mov	r1, r10
    5082:	380c      	subs	r0, #12
    5084:	f7ff ff8e 	bl	4fa4 <_ZNSs4_Rep26_M_set_length_and_sharableEj>
    5088:	e8bd 87fc 	ldmia.w	sp!, {r2, r3, r4, r5, r6, r7, r8, r9, r10, pc}
    508c:	4650      	mov	r0, r10
    508e:	aa01      	add	r2, sp, #4
    5090:	f7ff ff94 	bl	4fbc <_ZNSs4_Rep9_S_createEjjRKSaIcE>
    5094:	4607      	mov	r7, r0
    5096:	b12c      	cbz	r4, 50a4 <_ZNSs9_M_mutateEjjj+0x70>
    5098:	f107 000c 	add.w	r0, r7, #12
    509c:	6829      	ldr	r1, [r5, #0]
    509e:	4622      	mov	r2, r4
    50a0:	f7ff ff2f 	bl	4f02 <_ZNSs7_M_copyEPcPKcj>
    50a4:	f1b8 0f00 	cmp.w	r8, #0
    50a8:	d009      	beq.n	50be <_ZNSs9_M_mutateEjjj+0x8a>
    50aa:	682b      	ldr	r3, [r5, #0]
    50ac:	1932      	adds	r2, r6, r4
    50ae:	f107 000c 	add.w	r0, r7, #12
    50b2:	44a1      	add	r9, r4
    50b4:	1899      	adds	r1, r3, r2
    50b6:	4448      	add	r0, r9
    50b8:	4642      	mov	r2, r8
    50ba:	f7ff ff22 	bl	4f02 <_ZNSs7_M_copyEPcPKcj>
    50be:	6828      	ldr	r0, [r5, #0]
    50c0:	a901      	add	r1, sp, #4
    50c2:	380c      	subs	r0, #12
    50c4:	370c      	adds	r7, #12
    50c6:	f7ff ffa7 	bl	5018 <_ZNSs4_Rep10_M_disposeERKSaIcE>
    50ca:	602f      	str	r7, [r5, #0]
    50cc:	e7d7      	b.n	507e <_ZNSs9_M_mutateEjjj+0x4a>
	...

000050d0 <_ZNSs12_M_leak_hardEv>:
    50d0:	6803      	ldr	r3, [r0, #0]
    50d2:	4a0a      	ldr	r2, [pc, #40]	; (50fc <_ZNSs12_M_leak_hardEv+0x2c>)
    50d4:	b510      	push	{r4, lr}
    50d6:	4293      	cmp	r3, r2
    50d8:	4604      	mov	r4, r0
    50da:	d00d      	beq.n	50f8 <_ZNSs12_M_leak_hardEv+0x28>
    50dc:	f853 1c04 	ldr.w	r1, [r3, #-4]
    50e0:	2900      	cmp	r1, #0
    50e2:	dd04      	ble.n	50ee <_ZNSs12_M_leak_hardEv+0x1e>
    50e4:	2100      	movs	r1, #0
    50e6:	460a      	mov	r2, r1
    50e8:	460b      	mov	r3, r1
    50ea:	f7ff ffa3 	bl	5034 <_ZNSs9_M_mutateEjjj>
    50ee:	6820      	ldr	r0, [r4, #0]
    50f0:	f04f 33ff 	mov.w	r3, #4294967295	; 0xffffffff
    50f4:	f840 3c04 	str.w	r3, [r0, #-4]
    50f8:	bd10      	pop	{r4, pc}
    50fa:	bf00      	nop
    50fc:	10000970 	.word	0x10000970

00005100 <_ZNSs4_Rep10_M_refcopyEv>:
    5100:	4b03      	ldr	r3, [pc, #12]	; (5110 <_ZNSs4_Rep10_M_refcopyEv+0x10>)
    5102:	4298      	cmp	r0, r3
    5104:	d002      	beq.n	510c <_ZNSs4_Rep10_M_refcopyEv+0xc>
    5106:	6881      	ldr	r1, [r0, #8]
    5108:	1c4a      	adds	r2, r1, #1
    510a:	6082      	str	r2, [r0, #8]
    510c:	300c      	adds	r0, #12
    510e:	4770      	bx	lr
    5110:	10000964 	.word	0x10000964

00005114 <_ZNSs4_Rep8_M_cloneERKSaIcEj>:
    5114:	b538      	push	{r3, r4, r5, lr}
    5116:	4604      	mov	r4, r0
    5118:	6800      	ldr	r0, [r0, #0]
    511a:	460b      	mov	r3, r1
    511c:	1810      	adds	r0, r2, r0
    511e:	6861      	ldr	r1, [r4, #4]
    5120:	461a      	mov	r2, r3
    5122:	f7ff ff4b 	bl	4fbc <_ZNSs4_Rep9_S_createEjjRKSaIcE>
    5126:	6822      	ldr	r2, [r4, #0]
    5128:	4605      	mov	r5, r0
    512a:	b12a      	cbz	r2, 5138 <_ZNSs4_Rep8_M_cloneERKSaIcEj+0x24>
    512c:	f100 000c 	add.w	r0, r0, #12
    5130:	f104 010c 	add.w	r1, r4, #12
    5134:	f7ff fee5 	bl	4f02 <_ZNSs7_M_copyEPcPKcj>
    5138:	4628      	mov	r0, r5
    513a:	6821      	ldr	r1, [r4, #0]
    513c:	f7ff ff32 	bl	4fa4 <_ZNSs4_Rep26_M_set_length_and_sharableEj>
    5140:	f105 000c 	add.w	r0, r5, #12
    5144:	bd38      	pop	{r3, r4, r5, pc}

00005146 <_ZNSs4_Rep7_M_grabERKSaIcES2_>:
    5146:	b508      	push	{r3, lr}
    5148:	6883      	ldr	r3, [r0, #8]
    514a:	2b00      	cmp	r3, #0
    514c:	db02      	blt.n	5154 <_ZNSs4_Rep7_M_grabERKSaIcES2_+0xe>
    514e:	f7ff ffd7 	bl	5100 <_ZNSs4_Rep10_M_refcopyEv>
    5152:	bd08      	pop	{r3, pc}
    5154:	2200      	movs	r2, #0
    5156:	f7ff ffdd 	bl	5114 <_ZNSs4_Rep8_M_cloneERKSaIcEj>
    515a:	bd08      	pop	{r3, pc}

0000515c <_ZNSs6assignERKSs>:
    515c:	b537      	push	{r0, r1, r2, r4, r5, lr}
    515e:	4604      	mov	r4, r0
    5160:	6823      	ldr	r3, [r4, #0]
    5162:	6808      	ldr	r0, [r1, #0]
    5164:	3b0c      	subs	r3, #12
    5166:	380c      	subs	r0, #12
    5168:	4298      	cmp	r0, r3
    516a:	d00a      	beq.n	5182 <_ZNSs6assignERKSs+0x26>
    516c:	4669      	mov	r1, sp
    516e:	aa01      	add	r2, sp, #4
    5170:	f7ff ffe9 	bl	5146 <_ZNSs4_Rep7_M_grabERKSaIcES2_>
    5174:	4605      	mov	r5, r0
    5176:	6820      	ldr	r0, [r4, #0]
    5178:	4669      	mov	r1, sp
    517a:	380c      	subs	r0, #12
    517c:	f7ff ff4c 	bl	5018 <_ZNSs4_Rep10_M_disposeERKSaIcE>
    5180:	6025      	str	r5, [r4, #0]
    5182:	4620      	mov	r0, r4
    5184:	bd3e      	pop	{r1, r2, r3, r4, r5, pc}

00005186 <_ZNSsC1ERKSs>:
    5186:	b513      	push	{r0, r1, r4, lr}
    5188:	4604      	mov	r4, r0
    518a:	6808      	ldr	r0, [r1, #0]
    518c:	aa01      	add	r2, sp, #4
    518e:	380c      	subs	r0, #12
    5190:	4669      	mov	r1, sp
    5192:	f7ff ffd8 	bl	5146 <_ZNSs4_Rep7_M_grabERKSaIcES2_>
    5196:	6020      	str	r0, [r4, #0]
    5198:	4620      	mov	r0, r4
    519a:	bd1c      	pop	{r2, r3, r4, pc}

0000519c <_ZNSs7reserveEj>:
    519c:	b537      	push	{r0, r1, r2, r4, r5, lr}
    519e:	4604      	mov	r4, r0
    51a0:	6800      	ldr	r0, [r0, #0]
    51a2:	460b      	mov	r3, r1
    51a4:	f850 2c08 	ldr.w	r2, [r0, #-8]
    51a8:	4291      	cmp	r1, r2
    51aa:	d103      	bne.n	51b4 <_ZNSs7reserveEj+0x18>
    51ac:	f850 1c04 	ldr.w	r1, [r0, #-4]
    51b0:	2900      	cmp	r1, #0
    51b2:	dd11      	ble.n	51d8 <_ZNSs7reserveEj+0x3c>
    51b4:	f850 2d0c 	ldr.w	r2, [r0, #-12]!
    51b8:	a901      	add	r1, sp, #4
    51ba:	4293      	cmp	r3, r2
    51bc:	bf2c      	ite	cs
    51be:	ebc2 0203 	rsbcs	r2, r2, r3
    51c2:	ebc2 0202 	rsbcc	r2, r2, r2
    51c6:	f7ff ffa5 	bl	5114 <_ZNSs4_Rep8_M_cloneERKSaIcEj>
    51ca:	4605      	mov	r5, r0
    51cc:	6820      	ldr	r0, [r4, #0]
    51ce:	a901      	add	r1, sp, #4
    51d0:	380c      	subs	r0, #12
    51d2:	f7ff ff21 	bl	5018 <_ZNSs4_Rep10_M_disposeERKSaIcE>
    51d6:	6025      	str	r5, [r4, #0]
    51d8:	bd3e      	pop	{r1, r2, r3, r4, r5, pc}
	...

000051dc <_ZNSs6appendEPKcj>:
    51dc:	e92d 41f0 	stmdb	sp!, {r4, r5, r6, r7, r8, lr}
    51e0:	4604      	mov	r4, r0
    51e2:	460e      	mov	r6, r1
    51e4:	4690      	mov	r8, r2
    51e6:	b372      	cbz	r2, 5246 <_ZNSs6appendEPKcj+0x6a>
    51e8:	2100      	movs	r1, #0
    51ea:	4b18      	ldr	r3, [pc, #96]	; (524c <_ZNSs6appendEPKcj+0x70>)
    51ec:	f7ff fe6c 	bl	4ec8 <_ZNKSs15_M_check_lengthEjjPKc>
    51f0:	6827      	ldr	r7, [r4, #0]
    51f2:	f857 5c0c 	ldr.w	r5, [r7, #-12]
    51f6:	f857 3c08 	ldr.w	r3, [r7, #-8]
    51fa:	4445      	add	r5, r8
    51fc:	429d      	cmp	r5, r3
    51fe:	d803      	bhi.n	5208 <_ZNSs6appendEPKcj+0x2c>
    5200:	f857 0c04 	ldr.w	r0, [r7, #-4]
    5204:	2800      	cmp	r0, #0
    5206:	dd08      	ble.n	521a <_ZNSs6appendEPKcj+0x3e>
    5208:	4620      	mov	r0, r4
    520a:	4631      	mov	r1, r6
    520c:	f7ff fe6c 	bl	4ee8 <_ZNKSs11_M_disjunctEPKc>
    5210:	b188      	cbz	r0, 5236 <_ZNSs6appendEPKcj+0x5a>
    5212:	4620      	mov	r0, r4
    5214:	4629      	mov	r1, r5
    5216:	f7ff ffc1 	bl	519c <_ZNSs7reserveEj>
    521a:	6822      	ldr	r2, [r4, #0]
    521c:	4631      	mov	r1, r6
    521e:	f852 3c0c 	ldr.w	r3, [r2, #-12]
    5222:	18d0      	adds	r0, r2, r3
    5224:	4642      	mov	r2, r8
    5226:	f7ff fe6c 	bl	4f02 <_ZNSs7_M_copyEPcPKcj>
    522a:	6820      	ldr	r0, [r4, #0]
    522c:	4629      	mov	r1, r5
    522e:	380c      	subs	r0, #12
    5230:	f7ff feb8 	bl	4fa4 <_ZNSs4_Rep26_M_set_length_and_sharableEj>
    5234:	e007      	b.n	5246 <_ZNSs6appendEPKcj+0x6a>
    5236:	4629      	mov	r1, r5
    5238:	4620      	mov	r0, r4
    523a:	f7ff ffaf 	bl	519c <_ZNSs7reserveEj>
    523e:	6821      	ldr	r1, [r4, #0]
    5240:	1bf6      	subs	r6, r6, r7
    5242:	198e      	adds	r6, r1, r6
    5244:	e7e9      	b.n	521a <_ZNSs6appendEPKcj+0x3e>
    5246:	4620      	mov	r0, r4
    5248:	e8bd 81f0 	ldmia.w	sp!, {r4, r5, r6, r7, r8, pc}
    524c:	00009613 	.word	0x00009613

00005250 <_ZNSs12_S_constructIPcEES0_T_S1_RKSaIcESt20forward_iterator_tag>:
    5250:	4288      	cmp	r0, r1
    5252:	e92d 41f0 	stmdb	sp!, {r4, r5, r6, r7, r8, lr}
    5256:	4605      	mov	r5, r0
    5258:	460c      	mov	r4, r1
    525a:	d101      	bne.n	5260 <_ZNSs12_S_constructIPcEES0_T_S1_RKSaIcESt20forward_iterator_tag+0x10>
    525c:	4e0d      	ldr	r6, [pc, #52]	; (5294 <_ZNSs12_S_constructIPcEES0_T_S1_RKSaIcESt20forward_iterator_tag+0x44>)
    525e:	e015      	b.n	528c <_ZNSs12_S_constructIPcEES0_T_S1_RKSaIcESt20forward_iterator_tag+0x3c>
    5260:	b918      	cbnz	r0, 526a <_ZNSs12_S_constructIPcEES0_T_S1_RKSaIcESt20forward_iterator_tag+0x1a>
    5262:	b114      	cbz	r4, 526a <_ZNSs12_S_constructIPcEES0_T_S1_RKSaIcESt20forward_iterator_tag+0x1a>
    5264:	480c      	ldr	r0, [pc, #48]	; (5298 <_ZNSs12_S_constructIPcEES0_T_S1_RKSaIcESt20forward_iterator_tag+0x48>)
    5266:	f7ff fe1a 	bl	4e9e <_ZSt19__throw_logic_errorPKc>
    526a:	1b67      	subs	r7, r4, r5
    526c:	2100      	movs	r1, #0
    526e:	4638      	mov	r0, r7
    5270:	f7ff fea4 	bl	4fbc <_ZNSs4_Rep9_S_createEjjRKSaIcE>
    5274:	f100 060c 	add.w	r6, r0, #12
    5278:	4680      	mov	r8, r0
    527a:	4629      	mov	r1, r5
    527c:	4630      	mov	r0, r6
    527e:	4622      	mov	r2, r4
    5280:	f7ff fe55 	bl	4f2e <_ZNSs13_S_copy_charsEPcS_S_>
    5284:	4640      	mov	r0, r8
    5286:	4639      	mov	r1, r7
    5288:	f7ff fe8c 	bl	4fa4 <_ZNSs4_Rep26_M_set_length_and_sharableEj>
    528c:	4630      	mov	r0, r6
    528e:	e8bd 81f0 	ldmia.w	sp!, {r4, r5, r6, r7, r8, pc}
    5292:	bf00      	nop
    5294:	10000970 	.word	0x10000970
    5298:	0000963d 	.word	0x0000963d

0000529c <_ZNSsC1ERKSsjj>:
    529c:	b5f7      	push	{r0, r1, r2, r4, r5, r6, r7, lr}
    529e:	680d      	ldr	r5, [r1, #0]
    52a0:	4606      	mov	r6, r0
    52a2:	4614      	mov	r4, r2
    52a4:	4608      	mov	r0, r1
    52a6:	4611      	mov	r1, r2
    52a8:	4a09      	ldr	r2, [pc, #36]	; (52d0 <_ZNSsC1ERKSsjj+0x34>)
    52aa:	461f      	mov	r7, r3
    52ac:	f7ff fe00 	bl	4eb0 <_ZNKSs8_M_checkEjPKc>
    52b0:	f855 2c0c 	ldr.w	r2, [r5, #-12]
    52b4:	1828      	adds	r0, r5, r0
    52b6:	1b11      	subs	r1, r2, r4
    52b8:	42b9      	cmp	r1, r7
    52ba:	bf94      	ite	ls
    52bc:	1863      	addls	r3, r4, r1
    52be:	19e3      	addhi	r3, r4, r7
    52c0:	18e9      	adds	r1, r5, r3
    52c2:	aa01      	add	r2, sp, #4
    52c4:	2300      	movs	r3, #0
    52c6:	f7ff ffc3 	bl	5250 <_ZNSs12_S_constructIPcEES0_T_S1_RKSaIcESt20forward_iterator_tag>
    52ca:	6030      	str	r0, [r6, #0]
    52cc:	4630      	mov	r0, r6
    52ce:	bdfe      	pop	{r1, r2, r3, r4, r5, r6, r7, pc}
    52d0:	00009667 	.word	0x00009667

000052d4 <_ZNSs12_S_constructIPKcEEPcT_S3_RKSaIcESt20forward_iterator_tag>:
    52d4:	4288      	cmp	r0, r1
    52d6:	e92d 41f0 	stmdb	sp!, {r4, r5, r6, r7, r8, lr}
    52da:	4605      	mov	r5, r0
    52dc:	460c      	mov	r4, r1
    52de:	d101      	bne.n	52e4 <_ZNSs12_S_constructIPKcEEPcT_S3_RKSaIcESt20forward_iterator_tag+0x10>
    52e0:	4e0d      	ldr	r6, [pc, #52]	; (5318 <_ZNSs12_S_constructIPKcEEPcT_S3_RKSaIcESt20forward_iterator_tag+0x44>)
    52e2:	e015      	b.n	5310 <_ZNSs12_S_constructIPKcEEPcT_S3_RKSaIcESt20forward_iterator_tag+0x3c>
    52e4:	b918      	cbnz	r0, 52ee <_ZNSs12_S_constructIPKcEEPcT_S3_RKSaIcESt20forward_iterator_tag+0x1a>
    52e6:	b114      	cbz	r4, 52ee <_ZNSs12_S_constructIPKcEEPcT_S3_RKSaIcESt20forward_iterator_tag+0x1a>
    52e8:	480c      	ldr	r0, [pc, #48]	; (531c <_ZNSs12_S_constructIPKcEEPcT_S3_RKSaIcESt20forward_iterator_tag+0x48>)
    52ea:	f7ff fdd8 	bl	4e9e <_ZSt19__throw_logic_errorPKc>
    52ee:	1b67      	subs	r7, r4, r5
    52f0:	2100      	movs	r1, #0
    52f2:	4638      	mov	r0, r7
    52f4:	f7ff fe62 	bl	4fbc <_ZNSs4_Rep9_S_createEjjRKSaIcE>
    52f8:	f100 060c 	add.w	r6, r0, #12
    52fc:	4680      	mov	r8, r0
    52fe:	4629      	mov	r1, r5
    5300:	4630      	mov	r0, r6
    5302:	4622      	mov	r2, r4
    5304:	f7ff fe18 	bl	4f38 <_ZNSs13_S_copy_charsEPcPKcS1_>
    5308:	4640      	mov	r0, r8
    530a:	4639      	mov	r1, r7
    530c:	f7ff fe4a 	bl	4fa4 <_ZNSs4_Rep26_M_set_length_and_sharableEj>
    5310:	4630      	mov	r0, r6
    5312:	e8bd 81f0 	ldmia.w	sp!, {r4, r5, r6, r7, r8, pc}
    5316:	bf00      	nop
    5318:	10000970 	.word	0x10000970
    531c:	0000963d 	.word	0x0000963d

00005320 <_ZNSsC1EPKcRKSaIcE>:
    5320:	b570      	push	{r4, r5, r6, lr}
    5322:	4605      	mov	r5, r0
    5324:	4616      	mov	r6, r2
    5326:	460c      	mov	r4, r1
    5328:	b121      	cbz	r1, 5334 <_ZNSsC1EPKcRKSaIcE+0x14>
    532a:	4608      	mov	r0, r1
    532c:	f002 f89e 	bl	746c <strlen>
    5330:	1821      	adds	r1, r4, r0
    5332:	e001      	b.n	5338 <_ZNSsC1EPKcRKSaIcE+0x18>
    5334:	f04f 31ff 	mov.w	r1, #4294967295	; 0xffffffff
    5338:	4620      	mov	r0, r4
    533a:	4632      	mov	r2, r6
    533c:	2300      	movs	r3, #0
    533e:	f7ff ffc9 	bl	52d4 <_ZNSs12_S_constructIPKcEEPcT_S3_RKSaIcESt20forward_iterator_tag>
    5342:	6028      	str	r0, [r5, #0]
    5344:	4628      	mov	r0, r5
    5346:	bd70      	pop	{r4, r5, r6, pc}

00005348 <__aeabi_drsub>:
    5348:	f081 4100 	eor.w	r1, r1, #2147483648	; 0x80000000
    534c:	e002      	b.n	5354 <__adddf3>
    534e:	bf00      	nop

00005350 <__aeabi_dsub>:
    5350:	f083 4300 	eor.w	r3, r3, #2147483648	; 0x80000000

00005354 <__adddf3>:
    5354:	b530      	push	{r4, r5, lr}
    5356:	ea4f 0441 	mov.w	r4, r1, lsl #1
    535a:	ea4f 0543 	mov.w	r5, r3, lsl #1
    535e:	ea94 0f05 	teq	r4, r5
    5362:	bf08      	it	eq
    5364:	ea90 0f02 	teqeq	r0, r2
    5368:	bf1f      	itttt	ne
    536a:	ea54 0c00 	orrsne.w	r12, r4, r0
    536e:	ea55 0c02 	orrsne.w	r12, r5, r2
    5372:	ea7f 5c64 	mvnsne.w	r12, r4, asr #21
    5376:	ea7f 5c65 	mvnsne.w	r12, r5, asr #21
    537a:	f000 80e2 	beq.w	5542 <__adddf3+0x1ee>
    537e:	ea4f 5454 	mov.w	r4, r4, lsr #21
    5382:	ebd4 5555 	rsbs	r5, r4, r5, lsr #21
    5386:	bfb8      	it	lt
    5388:	426d      	neglt	r5, r5
    538a:	dd0c      	ble.n	53a6 <__adddf3+0x52>
    538c:	442c      	add	r4, r5
    538e:	ea80 0202 	eor.w	r2, r0, r2
    5392:	ea81 0303 	eor.w	r3, r1, r3
    5396:	ea82 0000 	eor.w	r0, r2, r0
    539a:	ea83 0101 	eor.w	r1, r3, r1
    539e:	ea80 0202 	eor.w	r2, r0, r2
    53a2:	ea81 0303 	eor.w	r3, r1, r3
    53a6:	2d36      	cmp	r5, #54	; 0x36
    53a8:	bf88      	it	hi
    53aa:	bd30      	pophi	{r4, r5, pc}
    53ac:	f011 4f00 	tst.w	r1, #2147483648	; 0x80000000
    53b0:	ea4f 3101 	mov.w	r1, r1, lsl #12
    53b4:	f44f 1c80 	mov.w	r12, #1048576	; 0x100000
    53b8:	ea4c 3111 	orr.w	r1, r12, r1, lsr #12
    53bc:	d002      	beq.n	53c4 <__adddf3+0x70>
    53be:	4240      	negs	r0, r0
    53c0:	eb61 0141 	sbc.w	r1, r1, r1, lsl #1
    53c4:	f013 4f00 	tst.w	r3, #2147483648	; 0x80000000
    53c8:	ea4f 3303 	mov.w	r3, r3, lsl #12
    53cc:	ea4c 3313 	orr.w	r3, r12, r3, lsr #12
    53d0:	d002      	beq.n	53d8 <__adddf3+0x84>
    53d2:	4252      	negs	r2, r2
    53d4:	eb63 0343 	sbc.w	r3, r3, r3, lsl #1
    53d8:	ea94 0f05 	teq	r4, r5
    53dc:	f000 80a7 	beq.w	552e <__adddf3+0x1da>
    53e0:	f1a4 0401 	sub.w	r4, r4, #1
    53e4:	f1d5 0e20 	rsbs	lr, r5, #32
    53e8:	db0d      	blt.n	5406 <__adddf3+0xb2>
    53ea:	fa02 fc0e 	lsl.w	r12, r2, lr
    53ee:	fa22 f205 	lsr.w	r2, r2, r5
    53f2:	1880      	adds	r0, r0, r2
    53f4:	f141 0100 	adc.w	r1, r1, #0
    53f8:	fa03 f20e 	lsl.w	r2, r3, lr
    53fc:	1880      	adds	r0, r0, r2
    53fe:	fa43 f305 	asr.w	r3, r3, r5
    5402:	4159      	adcs	r1, r3
    5404:	e00e      	b.n	5424 <__adddf3+0xd0>
    5406:	f1a5 0520 	sub.w	r5, r5, #32
    540a:	f10e 0e20 	add.w	lr, lr, #32
    540e:	2a01      	cmp	r2, #1
    5410:	fa03 fc0e 	lsl.w	r12, r3, lr
    5414:	bf28      	it	cs
    5416:	f04c 0c02 	orrcs.w	r12, r12, #2
    541a:	fa43 f305 	asr.w	r3, r3, r5
    541e:	18c0      	adds	r0, r0, r3
    5420:	eb51 71e3 	adcs.w	r1, r1, r3, asr #31
    5424:	f001 4500 	and.w	r5, r1, #2147483648	; 0x80000000
    5428:	d507      	bpl.n	543a <__adddf3+0xe6>
    542a:	f04f 0e00 	mov.w	lr, #0
    542e:	f1dc 0c00 	rsbs	r12, r12, #0
    5432:	eb7e 0000 	sbcs.w	r0, lr, r0
    5436:	eb6e 0101 	sbc.w	r1, lr, r1
    543a:	f5b1 1f80 	cmp.w	r1, #1048576	; 0x100000
    543e:	d31b      	bcc.n	5478 <__adddf3+0x124>
    5440:	f5b1 1f00 	cmp.w	r1, #2097152	; 0x200000
    5444:	d30c      	bcc.n	5460 <__adddf3+0x10c>
    5446:	0849      	lsrs	r1, r1, #1
    5448:	ea5f 0030 	movs.w	r0, r0, rrx
    544c:	ea4f 0c3c 	mov.w	r12, r12, rrx
    5450:	f104 0401 	add.w	r4, r4, #1
    5454:	ea4f 5244 	mov.w	r2, r4, lsl #21
    5458:	f512 0f80 	cmn.w	r2, #4194304	; 0x400000
    545c:	f080 809a 	bcs.w	5594 <__adddf3+0x240>
    5460:	f1bc 4f00 	cmp.w	r12, #2147483648	; 0x80000000
    5464:	bf08      	it	eq
    5466:	ea5f 0c50 	movseq.w	r12, r0, lsr #1
    546a:	f150 0000 	adcs.w	r0, r0, #0
    546e:	eb41 5104 	adc.w	r1, r1, r4, lsl #20
    5472:	ea41 0105 	orr.w	r1, r1, r5
    5476:	bd30      	pop	{r4, r5, pc}
    5478:	ea5f 0c4c 	movs.w	r12, r12, lsl #1
    547c:	4140      	adcs	r0, r0
    547e:	eb41 0101 	adc.w	r1, r1, r1
    5482:	f411 1f80 	tst.w	r1, #1048576	; 0x100000
    5486:	f1a4 0401 	sub.w	r4, r4, #1
    548a:	d1e9      	bne.n	5460 <__adddf3+0x10c>
    548c:	f091 0f00 	teq	r1, #0
    5490:	bf04      	itt	eq
    5492:	4601      	moveq	r1, r0
    5494:	2000      	moveq	r0, #0
    5496:	fab1 f381 	clz	r3, r1
    549a:	bf08      	it	eq
    549c:	3320      	addeq	r3, #32
    549e:	f1a3 030b 	sub.w	r3, r3, #11
    54a2:	f1b3 0220 	subs.w	r2, r3, #32
    54a6:	da0c      	bge.n	54c2 <__adddf3+0x16e>
    54a8:	320c      	adds	r2, #12
    54aa:	dd08      	ble.n	54be <__adddf3+0x16a>
    54ac:	f102 0c14 	add.w	r12, r2, #20
    54b0:	f1c2 020c 	rsb	r2, r2, #12
    54b4:	fa01 f00c 	lsl.w	r0, r1, r12
    54b8:	fa21 f102 	lsr.w	r1, r1, r2
    54bc:	e00c      	b.n	54d8 <__adddf3+0x184>
    54be:	f102 0214 	add.w	r2, r2, #20
    54c2:	bfd8      	it	le
    54c4:	f1c2 0c20 	rsble	r12, r2, #32
    54c8:	fa01 f102 	lsl.w	r1, r1, r2
    54cc:	fa20 fc0c 	lsr.w	r12, r0, r12
    54d0:	bfdc      	itt	le
    54d2:	ea41 010c 	orrle.w	r1, r1, r12
    54d6:	4090      	lslle	r0, r2
    54d8:	1ae4      	subs	r4, r4, r3
    54da:	bfa2      	ittt	ge
    54dc:	eb01 5104 	addge.w	r1, r1, r4, lsl #20
    54e0:	4329      	orrge	r1, r5
    54e2:	bd30      	popge	{r4, r5, pc}
    54e4:	ea6f 0404 	mvn.w	r4, r4
    54e8:	3c1f      	subs	r4, #31
    54ea:	da1c      	bge.n	5526 <__adddf3+0x1d2>
    54ec:	340c      	adds	r4, #12
    54ee:	dc0e      	bgt.n	550e <__adddf3+0x1ba>
    54f0:	f104 0414 	add.w	r4, r4, #20
    54f4:	f1c4 0220 	rsb	r2, r4, #32
    54f8:	fa20 f004 	lsr.w	r0, r0, r4
    54fc:	fa01 f302 	lsl.w	r3, r1, r2
    5500:	ea40 0003 	orr.w	r0, r0, r3
    5504:	fa21 f304 	lsr.w	r3, r1, r4
    5508:	ea45 0103 	orr.w	r1, r5, r3
    550c:	bd30      	pop	{r4, r5, pc}
    550e:	f1c4 040c 	rsb	r4, r4, #12
    5512:	f1c4 0220 	rsb	r2, r4, #32
    5516:	fa20 f002 	lsr.w	r0, r0, r2
    551a:	fa01 f304 	lsl.w	r3, r1, r4
    551e:	ea40 0003 	orr.w	r0, r0, r3
    5522:	4629      	mov	r1, r5
    5524:	bd30      	pop	{r4, r5, pc}
    5526:	fa21 f004 	lsr.w	r0, r1, r4
    552a:	4629      	mov	r1, r5
    552c:	bd30      	pop	{r4, r5, pc}
    552e:	f094 0f00 	teq	r4, #0
    5532:	f483 1380 	eor.w	r3, r3, #1048576	; 0x100000
    5536:	bf06      	itte	eq
    5538:	f481 1180 	eoreq.w	r1, r1, #1048576	; 0x100000
    553c:	3401      	addeq	r4, #1
    553e:	3d01      	subne	r5, #1
    5540:	e74e      	b.n	53e0 <__adddf3+0x8c>
    5542:	ea7f 5c64 	mvns.w	r12, r4, asr #21
    5546:	bf18      	it	ne
    5548:	ea7f 5c65 	mvnsne.w	r12, r5, asr #21
    554c:	d029      	beq.n	55a2 <__adddf3+0x24e>
    554e:	ea94 0f05 	teq	r4, r5
    5552:	bf08      	it	eq
    5554:	ea90 0f02 	teqeq	r0, r2
    5558:	d005      	beq.n	5566 <__adddf3+0x212>
    555a:	ea54 0c00 	orrs.w	r12, r4, r0
    555e:	bf04      	itt	eq
    5560:	4619      	moveq	r1, r3
    5562:	4610      	moveq	r0, r2
    5564:	bd30      	pop	{r4, r5, pc}
    5566:	ea91 0f03 	teq	r1, r3
    556a:	bf1e      	ittt	ne
    556c:	2100      	movne	r1, #0
    556e:	2000      	movne	r0, #0
    5570:	bd30      	popne	{r4, r5, pc}
    5572:	ea5f 5c54 	movs.w	r12, r4, lsr #21
    5576:	d105      	bne.n	5584 <__adddf3+0x230>
    5578:	0040      	lsls	r0, r0, #1
    557a:	4149      	adcs	r1, r1
    557c:	bf28      	it	cs
    557e:	f041 4100 	orrcs.w	r1, r1, #2147483648	; 0x80000000
    5582:	bd30      	pop	{r4, r5, pc}
    5584:	f514 0480 	adds.w	r4, r4, #4194304	; 0x400000
    5588:	bf3c      	itt	cc
    558a:	f501 1180 	addcc.w	r1, r1, #1048576	; 0x100000
    558e:	bd30      	popcc	{r4, r5, pc}
    5590:	f001 4500 	and.w	r5, r1, #2147483648	; 0x80000000
    5594:	f045 41fe 	orr.w	r1, r5, #2130706432	; 0x7f000000
    5598:	f441 0170 	orr.w	r1, r1, #15728640	; 0xf00000
    559c:	f04f 0000 	mov.w	r0, #0
    55a0:	bd30      	pop	{r4, r5, pc}
    55a2:	ea7f 5c64 	mvns.w	r12, r4, asr #21
    55a6:	bf1a      	itte	ne
    55a8:	4619      	movne	r1, r3
    55aa:	4610      	movne	r0, r2
    55ac:	ea7f 5c65 	mvnseq.w	r12, r5, asr #21
    55b0:	bf1c      	itt	ne
    55b2:	460b      	movne	r3, r1
    55b4:	4602      	movne	r2, r0
    55b6:	ea50 3401 	orrs.w	r4, r0, r1, lsl #12
    55ba:	bf06      	itte	eq
    55bc:	ea52 3503 	orrseq.w	r5, r2, r3, lsl #12
    55c0:	ea91 0f03 	teqeq	r1, r3
    55c4:	f441 2100 	orrne.w	r1, r1, #524288	; 0x80000
    55c8:	bd30      	pop	{r4, r5, pc}
    55ca:	bf00      	nop

000055cc <__aeabi_ui2d>:
    55cc:	f090 0f00 	teq	r0, #0
    55d0:	bf04      	itt	eq
    55d2:	2100      	moveq	r1, #0
    55d4:	4770      	bxeq	lr
    55d6:	b530      	push	{r4, r5, lr}
    55d8:	f44f 6480 	mov.w	r4, #1024	; 0x400
    55dc:	f104 0432 	add.w	r4, r4, #50	; 0x32
    55e0:	f04f 0500 	mov.w	r5, #0
    55e4:	f04f 0100 	mov.w	r1, #0
    55e8:	e750      	b.n	548c <__adddf3+0x138>
    55ea:	bf00      	nop

000055ec <__aeabi_i2d>:
    55ec:	f090 0f00 	teq	r0, #0
    55f0:	bf04      	itt	eq
    55f2:	2100      	moveq	r1, #0
    55f4:	4770      	bxeq	lr
    55f6:	b530      	push	{r4, r5, lr}
    55f8:	f44f 6480 	mov.w	r4, #1024	; 0x400
    55fc:	f104 0432 	add.w	r4, r4, #50	; 0x32
    5600:	f010 4500 	ands.w	r5, r0, #2147483648	; 0x80000000
    5604:	bf48      	it	mi
    5606:	4240      	negmi	r0, r0
    5608:	f04f 0100 	mov.w	r1, #0
    560c:	e73e      	b.n	548c <__adddf3+0x138>
    560e:	bf00      	nop

00005610 <__aeabi_f2d>:
    5610:	0042      	lsls	r2, r0, #1
    5612:	ea4f 01e2 	mov.w	r1, r2, asr #3
    5616:	ea4f 0131 	mov.w	r1, r1, rrx
    561a:	ea4f 7002 	mov.w	r0, r2, lsl #28
    561e:	bf1f      	itttt	ne
    5620:	f012 437f 	andsne.w	r3, r2, #4278190080	; 0xff000000
    5624:	f093 4f7f 	teqne	r3, #4278190080	; 0xff000000
    5628:	f081 5160 	eorne.w	r1, r1, #939524096	; 0x38000000
    562c:	4770      	bxne	lr
    562e:	f092 0f00 	teq	r2, #0
    5632:	bf14      	ite	ne
    5634:	f093 4f7f 	teqne	r3, #4278190080	; 0xff000000
    5638:	4770      	bxeq	lr
    563a:	b530      	push	{r4, r5, lr}
    563c:	f44f 7460 	mov.w	r4, #896	; 0x380
    5640:	f001 4500 	and.w	r5, r1, #2147483648	; 0x80000000
    5644:	f021 4100 	bic.w	r1, r1, #2147483648	; 0x80000000
    5648:	e720      	b.n	548c <__adddf3+0x138>
    564a:	bf00      	nop

0000564c <__aeabi_ul2d>:
    564c:	ea50 0201 	orrs.w	r2, r0, r1
    5650:	bf08      	it	eq
    5652:	4770      	bxeq	lr
    5654:	b530      	push	{r4, r5, lr}
    5656:	f04f 0500 	mov.w	r5, #0
    565a:	e00a      	b.n	5672 <__aeabi_l2d+0x16>

0000565c <__aeabi_l2d>:
    565c:	ea50 0201 	orrs.w	r2, r0, r1
    5660:	bf08      	it	eq
    5662:	4770      	bxeq	lr
    5664:	b530      	push	{r4, r5, lr}
    5666:	f011 4500 	ands.w	r5, r1, #2147483648	; 0x80000000
    566a:	d502      	bpl.n	5672 <__aeabi_l2d+0x16>
    566c:	4240      	negs	r0, r0
    566e:	eb61 0141 	sbc.w	r1, r1, r1, lsl #1
    5672:	f44f 6480 	mov.w	r4, #1024	; 0x400
    5676:	f104 0432 	add.w	r4, r4, #50	; 0x32
    567a:	ea5f 5c91 	movs.w	r12, r1, lsr #22
    567e:	f43f aedc 	beq.w	543a <__adddf3+0xe6>
    5682:	f04f 0203 	mov.w	r2, #3
    5686:	ea5f 0cdc 	movs.w	r12, r12, lsr #3
    568a:	bf18      	it	ne
    568c:	3203      	addne	r2, #3
    568e:	ea5f 0cdc 	movs.w	r12, r12, lsr #3
    5692:	bf18      	it	ne
    5694:	3203      	addne	r2, #3
    5696:	eb02 02dc 	add.w	r2, r2, r12, lsr #3
    569a:	f1c2 0320 	rsb	r3, r2, #32
    569e:	fa00 fc03 	lsl.w	r12, r0, r3
    56a2:	fa20 f002 	lsr.w	r0, r0, r2
    56a6:	fa01 fe03 	lsl.w	lr, r1, r3
    56aa:	ea40 000e 	orr.w	r0, r0, lr
    56ae:	fa21 f102 	lsr.w	r1, r1, r2
    56b2:	4414      	add	r4, r2
    56b4:	e6c1      	b.n	543a <__adddf3+0xe6>
    56b6:	bf00      	nop

000056b8 <__aeabi_dmul>:
    56b8:	b570      	push	{r4, r5, r6, lr}
    56ba:	f04f 0cff 	mov.w	r12, #255	; 0xff
    56be:	f44c 6ce0 	orr.w	r12, r12, #1792	; 0x700
    56c2:	ea1c 5411 	ands.w	r4, r12, r1, lsr #20
    56c6:	bf1d      	ittte	ne
    56c8:	ea1c 5513 	andsne.w	r5, r12, r3, lsr #20
    56cc:	ea94 0f0c 	teqne	r4, r12
    56d0:	ea95 0f0c 	teqne	r5, r12
    56d4:	f000 f8de 	bleq	5894 <__aeabi_dmul+0x1dc>
    56d8:	442c      	add	r4, r5
    56da:	ea81 0603 	eor.w	r6, r1, r3
    56de:	ea21 514c 	bic.w	r1, r1, r12, lsl #21
    56e2:	ea23 534c 	bic.w	r3, r3, r12, lsl #21
    56e6:	ea50 3501 	orrs.w	r5, r0, r1, lsl #12
    56ea:	bf18      	it	ne
    56ec:	ea52 3503 	orrsne.w	r5, r2, r3, lsl #12
    56f0:	f441 1180 	orr.w	r1, r1, #1048576	; 0x100000
    56f4:	f443 1380 	orr.w	r3, r3, #1048576	; 0x100000
    56f8:	d038      	beq.n	576c <__aeabi_dmul+0xb4>
    56fa:	fba0 ce02 	umull	r12, lr, r0, r2
    56fe:	f04f 0500 	mov.w	r5, #0
    5702:	fbe1 e502 	umlal	lr, r5, r1, r2
    5706:	f006 4200 	and.w	r2, r6, #2147483648	; 0x80000000
    570a:	fbe0 e503 	umlal	lr, r5, r0, r3
    570e:	f04f 0600 	mov.w	r6, #0
    5712:	fbe1 5603 	umlal	r5, r6, r1, r3
    5716:	f09c 0f00 	teq	r12, #0
    571a:	bf18      	it	ne
    571c:	f04e 0e01 	orrne.w	lr, lr, #1
    5720:	f1a4 04ff 	sub.w	r4, r4, #255	; 0xff
    5724:	f5b6 7f00 	cmp.w	r6, #512	; 0x200
    5728:	f564 7440 	sbc.w	r4, r4, #768	; 0x300
    572c:	d204      	bcs.n	5738 <__aeabi_dmul+0x80>
    572e:	ea5f 0e4e 	movs.w	lr, lr, lsl #1
    5732:	416d      	adcs	r5, r5
    5734:	eb46 0606 	adc.w	r6, r6, r6
    5738:	ea42 21c6 	orr.w	r1, r2, r6, lsl #11
    573c:	ea41 5155 	orr.w	r1, r1, r5, lsr #21
    5740:	ea4f 20c5 	mov.w	r0, r5, lsl #11
    5744:	ea40 505e 	orr.w	r0, r0, lr, lsr #21
    5748:	ea4f 2ece 	mov.w	lr, lr, lsl #11
    574c:	f1b4 0cfd 	subs.w	r12, r4, #253	; 0xfd
    5750:	bf88      	it	hi
    5752:	f5bc 6fe0 	cmphi.w	r12, #1792	; 0x700
    5756:	d81e      	bhi.n	5796 <__aeabi_dmul+0xde>
    5758:	f1be 4f00 	cmp.w	lr, #2147483648	; 0x80000000
    575c:	bf08      	it	eq
    575e:	ea5f 0e50 	movseq.w	lr, r0, lsr #1
    5762:	f150 0000 	adcs.w	r0, r0, #0
    5766:	eb41 5104 	adc.w	r1, r1, r4, lsl #20
    576a:	bd70      	pop	{r4, r5, r6, pc}
    576c:	f006 4600 	and.w	r6, r6, #2147483648	; 0x80000000
    5770:	ea46 0101 	orr.w	r1, r6, r1
    5774:	ea40 0002 	orr.w	r0, r0, r2
    5778:	ea81 0103 	eor.w	r1, r1, r3
    577c:	ebb4 045c 	subs.w	r4, r4, r12, lsr #1
    5780:	bfc2      	ittt	gt
    5782:	ebd4 050c 	rsbsgt	r5, r4, r12
    5786:	ea41 5104 	orrgt.w	r1, r1, r4, lsl #20
    578a:	bd70      	popgt	{r4, r5, r6, pc}
    578c:	f441 1180 	orr.w	r1, r1, #1048576	; 0x100000
    5790:	f04f 0e00 	mov.w	lr, #0
    5794:	3c01      	subs	r4, #1
    5796:	f300 80ab 	bgt.w	58f0 <__aeabi_dmul+0x238>
    579a:	f114 0f36 	cmn.w	r4, #54	; 0x36
    579e:	bfde      	ittt	le
    57a0:	2000      	movle	r0, #0
    57a2:	f001 4100 	andle.w	r1, r1, #2147483648	; 0x80000000
    57a6:	bd70      	pople	{r4, r5, r6, pc}
    57a8:	f1c4 0400 	rsb	r4, r4, #0
    57ac:	3c20      	subs	r4, #32
    57ae:	da35      	bge.n	581c <__aeabi_dmul+0x164>
    57b0:	340c      	adds	r4, #12
    57b2:	dc1b      	bgt.n	57ec <__aeabi_dmul+0x134>
    57b4:	f104 0414 	add.w	r4, r4, #20
    57b8:	f1c4 0520 	rsb	r5, r4, #32
    57bc:	fa00 f305 	lsl.w	r3, r0, r5
    57c0:	fa20 f004 	lsr.w	r0, r0, r4
    57c4:	fa01 f205 	lsl.w	r2, r1, r5
    57c8:	ea40 0002 	orr.w	r0, r0, r2
    57cc:	f001 4200 	and.w	r2, r1, #2147483648	; 0x80000000
    57d0:	f021 4100 	bic.w	r1, r1, #2147483648	; 0x80000000
    57d4:	eb10 70d3 	adds.w	r0, r0, r3, lsr #31
    57d8:	fa21 f604 	lsr.w	r6, r1, r4
    57dc:	eb42 0106 	adc.w	r1, r2, r6
    57e0:	ea5e 0e43 	orrs.w	lr, lr, r3, lsl #1
    57e4:	bf08      	it	eq
    57e6:	ea20 70d3 	biceq.w	r0, r0, r3, lsr #31
    57ea:	bd70      	pop	{r4, r5, r6, pc}
    57ec:	f1c4 040c 	rsb	r4, r4, #12
    57f0:	f1c4 0520 	rsb	r5, r4, #32
    57f4:	fa00 f304 	lsl.w	r3, r0, r4
    57f8:	fa20 f005 	lsr.w	r0, r0, r5
    57fc:	fa01 f204 	lsl.w	r2, r1, r4
    5800:	ea40 0002 	orr.w	r0, r0, r2
    5804:	f001 4100 	and.w	r1, r1, #2147483648	; 0x80000000
    5808:	eb10 70d3 	adds.w	r0, r0, r3, lsr #31
    580c:	f141 0100 	adc.w	r1, r1, #0
    5810:	ea5e 0e43 	orrs.w	lr, lr, r3, lsl #1
    5814:	bf08      	it	eq
    5816:	ea20 70d3 	biceq.w	r0, r0, r3, lsr #31
    581a:	bd70      	pop	{r4, r5, r6, pc}
    581c:	f1c4 0520 	rsb	r5, r4, #32
    5820:	fa00 f205 	lsl.w	r2, r0, r5
    5824:	ea4e 0e02 	orr.w	lr, lr, r2
    5828:	fa20 f304 	lsr.w	r3, r0, r4
    582c:	fa01 f205 	lsl.w	r2, r1, r5
    5830:	ea43 0302 	orr.w	r3, r3, r2
    5834:	fa21 f004 	lsr.w	r0, r1, r4
    5838:	f001 4100 	and.w	r1, r1, #2147483648	; 0x80000000
    583c:	fa21 f204 	lsr.w	r2, r1, r4
    5840:	ea20 0002 	bic.w	r0, r0, r2
    5844:	eb00 70d3 	add.w	r0, r0, r3, lsr #31
    5848:	ea5e 0e43 	orrs.w	lr, lr, r3, lsl #1
    584c:	bf08      	it	eq
    584e:	ea20 70d3 	biceq.w	r0, r0, r3, lsr #31
    5852:	bd70      	pop	{r4, r5, r6, pc}
    5854:	f094 0f00 	teq	r4, #0
    5858:	d10f      	bne.n	587a <__aeabi_dmul+0x1c2>
    585a:	f001 4600 	and.w	r6, r1, #2147483648	; 0x80000000
    585e:	0040      	lsls	r0, r0, #1
    5860:	eb41 0101 	adc.w	r1, r1, r1
    5864:	f411 1f80 	tst.w	r1, #1048576	; 0x100000
    5868:	bf08      	it	eq
    586a:	3c01      	subeq	r4, #1
    586c:	d0f7      	beq.n	585e <__aeabi_dmul+0x1a6>
    586e:	ea41 0106 	orr.w	r1, r1, r6
    5872:	f095 0f00 	teq	r5, #0
    5876:	bf18      	it	ne
    5878:	4770      	bxne	lr
    587a:	f003 4600 	and.w	r6, r3, #2147483648	; 0x80000000
    587e:	0052      	lsls	r2, r2, #1
    5880:	eb43 0303 	adc.w	r3, r3, r3
    5884:	f413 1f80 	tst.w	r3, #1048576	; 0x100000
    5888:	bf08      	it	eq
    588a:	3d01      	subeq	r5, #1
    588c:	d0f7      	beq.n	587e <__aeabi_dmul+0x1c6>
    588e:	ea43 0306 	orr.w	r3, r3, r6
    5892:	4770      	bx	lr
    5894:	ea94 0f0c 	teq	r4, r12
    5898:	ea0c 5513 	and.w	r5, r12, r3, lsr #20
    589c:	bf18      	it	ne
    589e:	ea95 0f0c 	teqne	r5, r12
    58a2:	d00c      	beq.n	58be <__aeabi_dmul+0x206>
    58a4:	ea50 0641 	orrs.w	r6, r0, r1, lsl #1
    58a8:	bf18      	it	ne
    58aa:	ea52 0643 	orrsne.w	r6, r2, r3, lsl #1
    58ae:	d1d1      	bne.n	5854 <__aeabi_dmul+0x19c>
    58b0:	ea81 0103 	eor.w	r1, r1, r3
    58b4:	f001 4100 	and.w	r1, r1, #2147483648	; 0x80000000
    58b8:	f04f 0000 	mov.w	r0, #0
    58bc:	bd70      	pop	{r4, r5, r6, pc}
    58be:	ea50 0641 	orrs.w	r6, r0, r1, lsl #1
    58c2:	bf06      	itte	eq
    58c4:	4610      	moveq	r0, r2
    58c6:	4619      	moveq	r1, r3
    58c8:	ea52 0643 	orrsne.w	r6, r2, r3, lsl #1
    58cc:	d019      	beq.n	5902 <__aeabi_dmul+0x24a>
    58ce:	ea94 0f0c 	teq	r4, r12
    58d2:	d102      	bne.n	58da <__aeabi_dmul+0x222>
    58d4:	ea50 3601 	orrs.w	r6, r0, r1, lsl #12
    58d8:	d113      	bne.n	5902 <__aeabi_dmul+0x24a>
    58da:	ea95 0f0c 	teq	r5, r12
    58de:	d105      	bne.n	58ec <__aeabi_dmul+0x234>
    58e0:	ea52 3603 	orrs.w	r6, r2, r3, lsl #12
    58e4:	bf1c      	itt	ne
    58e6:	4610      	movne	r0, r2
    58e8:	4619      	movne	r1, r3
    58ea:	d10a      	bne.n	5902 <__aeabi_dmul+0x24a>
    58ec:	ea81 0103 	eor.w	r1, r1, r3
    58f0:	f001 4100 	and.w	r1, r1, #2147483648	; 0x80000000
    58f4:	f041 41fe 	orr.w	r1, r1, #2130706432	; 0x7f000000
    58f8:	f441 0170 	orr.w	r1, r1, #15728640	; 0xf00000
    58fc:	f04f 0000 	mov.w	r0, #0
    5900:	bd70      	pop	{r4, r5, r6, pc}
    5902:	f041 41fe 	orr.w	r1, r1, #2130706432	; 0x7f000000
    5906:	f441 0178 	orr.w	r1, r1, #16252928	; 0xf80000
    590a:	bd70      	pop	{r4, r5, r6, pc}

0000590c <__aeabi_ddiv>:
    590c:	b570      	push	{r4, r5, r6, lr}
    590e:	f04f 0cff 	mov.w	r12, #255	; 0xff
    5912:	f44c 6ce0 	orr.w	r12, r12, #1792	; 0x700
    5916:	ea1c 5411 	ands.w	r4, r12, r1, lsr #20
    591a:	bf1d      	ittte	ne
    591c:	ea1c 5513 	andsne.w	r5, r12, r3, lsr #20
    5920:	ea94 0f0c 	teqne	r4, r12
    5924:	ea95 0f0c 	teqne	r5, r12
    5928:	f000 f8a7 	bleq	5a7a <__aeabi_ddiv+0x16e>
    592c:	eba4 0405 	sub.w	r4, r4, r5
    5930:	ea81 0e03 	eor.w	lr, r1, r3
    5934:	ea52 3503 	orrs.w	r5, r2, r3, lsl #12
    5938:	ea4f 3101 	mov.w	r1, r1, lsl #12
    593c:	f000 8088 	beq.w	5a50 <__aeabi_ddiv+0x144>
    5940:	ea4f 3303 	mov.w	r3, r3, lsl #12
    5944:	f04f 5580 	mov.w	r5, #268435456	; 0x10000000
    5948:	ea45 1313 	orr.w	r3, r5, r3, lsr #4
    594c:	ea43 6312 	orr.w	r3, r3, r2, lsr #24
    5950:	ea4f 2202 	mov.w	r2, r2, lsl #8
    5954:	ea45 1511 	orr.w	r5, r5, r1, lsr #4
    5958:	ea45 6510 	orr.w	r5, r5, r0, lsr #24
    595c:	ea4f 2600 	mov.w	r6, r0, lsl #8
    5960:	f00e 4100 	and.w	r1, lr, #2147483648	; 0x80000000
    5964:	429d      	cmp	r5, r3
    5966:	bf08      	it	eq
    5968:	4296      	cmpeq	r6, r2
    596a:	f144 04fd 	adc.w	r4, r4, #253	; 0xfd
    596e:	f504 7440 	add.w	r4, r4, #768	; 0x300
    5972:	d202      	bcs.n	597a <__aeabi_ddiv+0x6e>
    5974:	085b      	lsrs	r3, r3, #1
    5976:	ea4f 0232 	mov.w	r2, r2, rrx
    597a:	1ab6      	subs	r6, r6, r2
    597c:	eb65 0503 	sbc.w	r5, r5, r3
    5980:	085b      	lsrs	r3, r3, #1
    5982:	ea4f 0232 	mov.w	r2, r2, rrx
    5986:	f44f 1080 	mov.w	r0, #1048576	; 0x100000
    598a:	f44f 2c00 	mov.w	r12, #524288	; 0x80000
    598e:	ebb6 0e02 	subs.w	lr, r6, r2
    5992:	eb75 0e03 	sbcs.w	lr, r5, r3
    5996:	bf22      	ittt	cs
    5998:	1ab6      	subcs	r6, r6, r2
    599a:	4675      	movcs	r5, lr
    599c:	ea40 000c 	orrcs.w	r0, r0, r12
    59a0:	085b      	lsrs	r3, r3, #1
    59a2:	ea4f 0232 	mov.w	r2, r2, rrx
    59a6:	ebb6 0e02 	subs.w	lr, r6, r2
    59aa:	eb75 0e03 	sbcs.w	lr, r5, r3
    59ae:	bf22      	ittt	cs
    59b0:	1ab6      	subcs	r6, r6, r2
    59b2:	4675      	movcs	r5, lr
    59b4:	ea40 005c 	orrcs.w	r0, r0, r12, lsr #1
    59b8:	085b      	lsrs	r3, r3, #1
    59ba:	ea4f 0232 	mov.w	r2, r2, rrx
    59be:	ebb6 0e02 	subs.w	lr, r6, r2
    59c2:	eb75 0e03 	sbcs.w	lr, r5, r3
    59c6:	bf22      	ittt	cs
    59c8:	1ab6      	subcs	r6, r6, r2
    59ca:	4675      	movcs	r5, lr
    59cc:	ea40 009c 	orrcs.w	r0, r0, r12, lsr #2
    59d0:	085b      	lsrs	r3, r3, #1
    59d2:	ea4f 0232 	mov.w	r2, r2, rrx
    59d6:	ebb6 0e02 	subs.w	lr, r6, r2
    59da:	eb75 0e03 	sbcs.w	lr, r5, r3
    59de:	bf22      	ittt	cs
    59e0:	1ab6      	subcs	r6, r6, r2
    59e2:	4675      	movcs	r5, lr
    59e4:	ea40 00dc 	orrcs.w	r0, r0, r12, lsr #3
    59e8:	ea55 0e06 	orrs.w	lr, r5, r6
    59ec:	d018      	beq.n	5a20 <__aeabi_ddiv+0x114>
    59ee:	ea4f 1505 	mov.w	r5, r5, lsl #4
    59f2:	ea45 7516 	orr.w	r5, r5, r6, lsr #28
    59f6:	ea4f 1606 	mov.w	r6, r6, lsl #4
    59fa:	ea4f 03c3 	mov.w	r3, r3, lsl #3
    59fe:	ea43 7352 	orr.w	r3, r3, r2, lsr #29
    5a02:	ea4f 02c2 	mov.w	r2, r2, lsl #3
    5a06:	ea5f 1c1c 	movs.w	r12, r12, lsr #4
    5a0a:	d1c0      	bne.n	598e <__aeabi_ddiv+0x82>
    5a0c:	f411 1f80 	tst.w	r1, #1048576	; 0x100000
    5a10:	d10b      	bne.n	5a2a <__aeabi_ddiv+0x11e>
    5a12:	ea41 0100 	orr.w	r1, r1, r0
    5a16:	f04f 0000 	mov.w	r0, #0
    5a1a:	f04f 4c00 	mov.w	r12, #2147483648	; 0x80000000
    5a1e:	e7b6      	b.n	598e <__aeabi_ddiv+0x82>
    5a20:	f411 1f80 	tst.w	r1, #1048576	; 0x100000
    5a24:	bf04      	itt	eq
    5a26:	4301      	orreq	r1, r0
    5a28:	2000      	moveq	r0, #0
    5a2a:	f1b4 0cfd 	subs.w	r12, r4, #253	; 0xfd
    5a2e:	bf88      	it	hi
    5a30:	f5bc 6fe0 	cmphi.w	r12, #1792	; 0x700
    5a34:	f63f aeaf 	bhi.w	5796 <__aeabi_dmul+0xde>
    5a38:	ebb5 0c03 	subs.w	r12, r5, r3
    5a3c:	bf04      	itt	eq
    5a3e:	ebb6 0c02 	subseq.w	r12, r6, r2
    5a42:	ea5f 0c50 	movseq.w	r12, r0, lsr #1
    5a46:	f150 0000 	adcs.w	r0, r0, #0
    5a4a:	eb41 5104 	adc.w	r1, r1, r4, lsl #20
    5a4e:	bd70      	pop	{r4, r5, r6, pc}
    5a50:	f00e 4e00 	and.w	lr, lr, #2147483648	; 0x80000000
    5a54:	ea4e 3111 	orr.w	r1, lr, r1, lsr #12
    5a58:	eb14 045c 	adds.w	r4, r4, r12, lsr #1
    5a5c:	bfc2      	ittt	gt
    5a5e:	ebd4 050c 	rsbsgt	r5, r4, r12
    5a62:	ea41 5104 	orrgt.w	r1, r1, r4, lsl #20
    5a66:	bd70      	popgt	{r4, r5, r6, pc}
    5a68:	f441 1180 	orr.w	r1, r1, #1048576	; 0x100000
    5a6c:	f04f 0e00 	mov.w	lr, #0
    5a70:	3c01      	subs	r4, #1
    5a72:	e690      	b.n	5796 <__aeabi_dmul+0xde>
    5a74:	ea45 0e06 	orr.w	lr, r5, r6
    5a78:	e68d      	b.n	5796 <__aeabi_dmul+0xde>
    5a7a:	ea0c 5513 	and.w	r5, r12, r3, lsr #20
    5a7e:	ea94 0f0c 	teq	r4, r12
    5a82:	bf08      	it	eq
    5a84:	ea95 0f0c 	teqeq	r5, r12
    5a88:	f43f af3b 	beq.w	5902 <__aeabi_dmul+0x24a>
    5a8c:	ea94 0f0c 	teq	r4, r12
    5a90:	d10a      	bne.n	5aa8 <__aeabi_ddiv+0x19c>
    5a92:	ea50 3401 	orrs.w	r4, r0, r1, lsl #12
    5a96:	f47f af34 	bne.w	5902 <__aeabi_dmul+0x24a>
    5a9a:	ea95 0f0c 	teq	r5, r12
    5a9e:	f47f af25 	bne.w	58ec <__aeabi_dmul+0x234>
    5aa2:	4610      	mov	r0, r2
    5aa4:	4619      	mov	r1, r3
    5aa6:	e72c      	b.n	5902 <__aeabi_dmul+0x24a>
    5aa8:	ea95 0f0c 	teq	r5, r12
    5aac:	d106      	bne.n	5abc <__aeabi_ddiv+0x1b0>
    5aae:	ea52 3503 	orrs.w	r5, r2, r3, lsl #12
    5ab2:	f43f aefd 	beq.w	58b0 <__aeabi_dmul+0x1f8>
    5ab6:	4610      	mov	r0, r2
    5ab8:	4619      	mov	r1, r3
    5aba:	e722      	b.n	5902 <__aeabi_dmul+0x24a>
    5abc:	ea50 0641 	orrs.w	r6, r0, r1, lsl #1
    5ac0:	bf18      	it	ne
    5ac2:	ea52 0643 	orrsne.w	r6, r2, r3, lsl #1
    5ac6:	f47f aec5 	bne.w	5854 <__aeabi_dmul+0x19c>
    5aca:	ea50 0441 	orrs.w	r4, r0, r1, lsl #1
    5ace:	f47f af0d 	bne.w	58ec <__aeabi_dmul+0x234>
    5ad2:	ea52 0543 	orrs.w	r5, r2, r3, lsl #1
    5ad6:	f47f aeeb 	bne.w	58b0 <__aeabi_dmul+0x1f8>
    5ada:	e712      	b.n	5902 <__aeabi_dmul+0x24a>

00005adc <__gedf2>:
    5adc:	f04f 3cff 	mov.w	r12, #4294967295	; 0xffffffff
    5ae0:	e006      	b.n	5af0 <__cmpdf2+0x4>
    5ae2:	bf00      	nop

00005ae4 <__ledf2>:
    5ae4:	f04f 0c01 	mov.w	r12, #1
    5ae8:	e002      	b.n	5af0 <__cmpdf2+0x4>
    5aea:	bf00      	nop

00005aec <__cmpdf2>:
    5aec:	f04f 0c01 	mov.w	r12, #1
    5af0:	f84d cd04 	str.w	r12, [sp, #-4]!
    5af4:	ea4f 0c41 	mov.w	r12, r1, lsl #1
    5af8:	ea7f 5c6c 	mvns.w	r12, r12, asr #21
    5afc:	ea4f 0c43 	mov.w	r12, r3, lsl #1
    5b00:	bf18      	it	ne
    5b02:	ea7f 5c6c 	mvnsne.w	r12, r12, asr #21
    5b06:	d01b      	beq.n	5b40 <__cmpdf2+0x54>
    5b08:	b001      	add	sp, #4
    5b0a:	ea50 0c41 	orrs.w	r12, r0, r1, lsl #1
    5b0e:	bf0c      	ite	eq
    5b10:	ea52 0c43 	orrseq.w	r12, r2, r3, lsl #1
    5b14:	ea91 0f03 	teqne	r1, r3
    5b18:	bf02      	ittt	eq
    5b1a:	ea90 0f02 	teqeq	r0, r2
    5b1e:	2000      	moveq	r0, #0
    5b20:	4770      	bxeq	lr
    5b22:	f110 0f00 	cmn.w	r0, #0
    5b26:	ea91 0f03 	teq	r1, r3
    5b2a:	bf58      	it	pl
    5b2c:	4299      	cmppl	r1, r3
    5b2e:	bf08      	it	eq
    5b30:	4290      	cmpeq	r0, r2
    5b32:	bf2c      	ite	cs
    5b34:	17d8      	asrcs	r0, r3, #31
    5b36:	ea6f 70e3 	mvncc.w	r0, r3, asr #31
    5b3a:	f040 0001 	orr.w	r0, r0, #1
    5b3e:	4770      	bx	lr
    5b40:	ea4f 0c41 	mov.w	r12, r1, lsl #1
    5b44:	ea7f 5c6c 	mvns.w	r12, r12, asr #21
    5b48:	d102      	bne.n	5b50 <__cmpdf2+0x64>
    5b4a:	ea50 3c01 	orrs.w	r12, r0, r1, lsl #12
    5b4e:	d107      	bne.n	5b60 <__cmpdf2+0x74>
    5b50:	ea4f 0c43 	mov.w	r12, r3, lsl #1
    5b54:	ea7f 5c6c 	mvns.w	r12, r12, asr #21
    5b58:	d1d6      	bne.n	5b08 <__cmpdf2+0x1c>
    5b5a:	ea52 3c03 	orrs.w	r12, r2, r3, lsl #12
    5b5e:	d0d3      	beq.n	5b08 <__cmpdf2+0x1c>
    5b60:	f85d 0b04 	ldr.w	r0, [sp], #4
    5b64:	4770      	bx	lr
    5b66:	bf00      	nop

00005b68 <__aeabi_cdrcmple>:
    5b68:	4684      	mov	r12, r0
    5b6a:	4610      	mov	r0, r2
    5b6c:	4662      	mov	r2, r12
    5b6e:	468c      	mov	r12, r1
    5b70:	4619      	mov	r1, r3
    5b72:	4663      	mov	r3, r12
    5b74:	e000      	b.n	5b78 <__aeabi_cdcmpeq>
    5b76:	bf00      	nop

00005b78 <__aeabi_cdcmpeq>:
    5b78:	b501      	push	{r0, lr}
    5b7a:	f7ff ffb7 	bl	5aec <__cmpdf2>
    5b7e:	2800      	cmp	r0, #0
    5b80:	bf48      	it	mi
    5b82:	f110 0f00 	cmnmi.w	r0, #0
    5b86:	bd01      	pop	{r0, pc}

00005b88 <__aeabi_dcmpeq>:
    5b88:	f84d ed08 	str.w	lr, [sp, #-8]!
    5b8c:	f7ff fff4 	bl	5b78 <__aeabi_cdcmpeq>
    5b90:	bf0c      	ite	eq
    5b92:	2001      	moveq	r0, #1
    5b94:	2000      	movne	r0, #0
    5b96:	f85d fb08 	ldr.w	pc, [sp], #8
    5b9a:	bf00      	nop

00005b9c <__aeabi_dcmplt>:
    5b9c:	f84d ed08 	str.w	lr, [sp, #-8]!
    5ba0:	f7ff ffea 	bl	5b78 <__aeabi_cdcmpeq>
    5ba4:	bf34      	ite	cc
    5ba6:	2001      	movcc	r0, #1
    5ba8:	2000      	movcs	r0, #0
    5baa:	f85d fb08 	ldr.w	pc, [sp], #8
    5bae:	bf00      	nop

00005bb0 <__aeabi_dcmple>:
    5bb0:	f84d ed08 	str.w	lr, [sp, #-8]!
    5bb4:	f7ff ffe0 	bl	5b78 <__aeabi_cdcmpeq>
    5bb8:	bf94      	ite	ls
    5bba:	2001      	movls	r0, #1
    5bbc:	2000      	movhi	r0, #0
    5bbe:	f85d fb08 	ldr.w	pc, [sp], #8
    5bc2:	bf00      	nop

00005bc4 <__aeabi_dcmpge>:
    5bc4:	f84d ed08 	str.w	lr, [sp, #-8]!
    5bc8:	f7ff ffce 	bl	5b68 <__aeabi_cdrcmple>
    5bcc:	bf94      	ite	ls
    5bce:	2001      	movls	r0, #1
    5bd0:	2000      	movhi	r0, #0
    5bd2:	f85d fb08 	ldr.w	pc, [sp], #8
    5bd6:	bf00      	nop

00005bd8 <__aeabi_dcmpgt>:
    5bd8:	f84d ed08 	str.w	lr, [sp, #-8]!
    5bdc:	f7ff ffc4 	bl	5b68 <__aeabi_cdrcmple>
    5be0:	bf34      	ite	cc
    5be2:	2001      	movcc	r0, #1
    5be4:	2000      	movcs	r0, #0
    5be6:	f85d fb08 	ldr.w	pc, [sp], #8
    5bea:	bf00      	nop

00005bec <__aeabi_d2f>:
    5bec:	ea4f 0241 	mov.w	r2, r1, lsl #1
    5bf0:	f1b2 43e0 	subs.w	r3, r2, #1879048192	; 0x70000000
    5bf4:	bf24      	itt	cs
    5bf6:	f5b3 1c00 	subscs.w	r12, r3, #2097152	; 0x200000
    5bfa:	f1dc 5cfe 	rsbscs	r12, r12, #532676608	; 0x1fc00000
    5bfe:	d90d      	bls.n	5c1c <__aeabi_d2f+0x30>
    5c00:	f001 4c00 	and.w	r12, r1, #2147483648	; 0x80000000
    5c04:	ea4f 02c0 	mov.w	r2, r0, lsl #3
    5c08:	ea4c 7050 	orr.w	r0, r12, r0, lsr #29
    5c0c:	f1b2 4f00 	cmp.w	r2, #2147483648	; 0x80000000
    5c10:	eb40 0083 	adc.w	r0, r0, r3, lsl #2
    5c14:	bf08      	it	eq
    5c16:	f020 0001 	biceq.w	r0, r0, #1
    5c1a:	4770      	bx	lr
    5c1c:	f011 4f80 	tst.w	r1, #1073741824	; 0x40000000
    5c20:	d121      	bne.n	5c66 <__aeabi_d2f+0x7a>
    5c22:	f113 7238 	adds.w	r2, r3, #48234496	; 0x2e00000
    5c26:	bfbc      	itt	lt
    5c28:	f001 4000 	andlt.w	r0, r1, #2147483648	; 0x80000000
    5c2c:	4770      	bxlt	lr
    5c2e:	f441 1180 	orr.w	r1, r1, #1048576	; 0x100000
    5c32:	ea4f 5252 	mov.w	r2, r2, lsr #21
    5c36:	f1c2 0218 	rsb	r2, r2, #24
    5c3a:	f1c2 0c20 	rsb	r12, r2, #32
    5c3e:	fa10 f30c 	lsls.w	r3, r0, r12
    5c42:	fa20 f002 	lsr.w	r0, r0, r2
    5c46:	bf18      	it	ne
    5c48:	f040 0001 	orrne.w	r0, r0, #1
    5c4c:	ea4f 23c1 	mov.w	r3, r1, lsl #11
    5c50:	ea4f 23d3 	mov.w	r3, r3, lsr #11
    5c54:	fa03 fc0c 	lsl.w	r12, r3, r12
    5c58:	ea40 000c 	orr.w	r0, r0, r12
    5c5c:	fa23 f302 	lsr.w	r3, r3, r2
    5c60:	ea4f 0343 	mov.w	r3, r3, lsl #1
    5c64:	e7cc      	b.n	5c00 <__aeabi_d2f+0x14>
    5c66:	ea7f 5362 	mvns.w	r3, r2, asr #21
    5c6a:	d107      	bne.n	5c7c <__aeabi_d2f+0x90>
    5c6c:	ea50 3301 	orrs.w	r3, r0, r1, lsl #12
    5c70:	bf1e      	ittt	ne
    5c72:	f04f 40fe 	movne.w	r0, #2130706432	; 0x7f000000
    5c76:	f440 0040 	orrne.w	r0, r0, #12582912	; 0xc00000
    5c7a:	4770      	bxne	lr
    5c7c:	f001 4000 	and.w	r0, r1, #2147483648	; 0x80000000
    5c80:	f040 40fe 	orr.w	r0, r0, #2130706432	; 0x7f000000
    5c84:	f440 0000 	orr.w	r0, r0, #8388608	; 0x800000
    5c88:	4770      	bx	lr
    5c8a:	bf00      	nop

00005c8c <__aeabi_frsub>:
    5c8c:	f080 4000 	eor.w	r0, r0, #2147483648	; 0x80000000
    5c90:	e002      	b.n	5c98 <__addsf3>
    5c92:	bf00      	nop

00005c94 <__aeabi_fsub>:
    5c94:	f081 4100 	eor.w	r1, r1, #2147483648	; 0x80000000

00005c98 <__addsf3>:
    5c98:	0042      	lsls	r2, r0, #1
    5c9a:	bf1f      	itttt	ne
    5c9c:	ea5f 0341 	movsne.w	r3, r1, lsl #1
    5ca0:	ea92 0f03 	teqne	r2, r3
    5ca4:	ea7f 6c22 	mvnsne.w	r12, r2, asr #24
    5ca8:	ea7f 6c23 	mvnsne.w	r12, r3, asr #24
    5cac:	d06a      	beq.n	5d84 <__addsf3+0xec>
    5cae:	ea4f 6212 	mov.w	r2, r2, lsr #24
    5cb2:	ebd2 6313 	rsbs	r3, r2, r3, lsr #24
    5cb6:	bfc1      	itttt	gt
    5cb8:	18d2      	addgt	r2, r2, r3
    5cba:	4041      	eorgt	r1, r0
    5cbc:	4048      	eorgt	r0, r1
    5cbe:	4041      	eorgt	r1, r0
    5cc0:	bfb8      	it	lt
    5cc2:	425b      	neglt	r3, r3
    5cc4:	2b19      	cmp	r3, #25
    5cc6:	bf88      	it	hi
    5cc8:	4770      	bxhi	lr
    5cca:	f010 4f00 	tst.w	r0, #2147483648	; 0x80000000
    5cce:	f440 0000 	orr.w	r0, r0, #8388608	; 0x800000
    5cd2:	f020 407f 	bic.w	r0, r0, #4278190080	; 0xff000000
    5cd6:	bf18      	it	ne
    5cd8:	4240      	negne	r0, r0
    5cda:	f011 4f00 	tst.w	r1, #2147483648	; 0x80000000
    5cde:	f441 0100 	orr.w	r1, r1, #8388608	; 0x800000
    5ce2:	f021 417f 	bic.w	r1, r1, #4278190080	; 0xff000000
    5ce6:	bf18      	it	ne
    5ce8:	4249      	negne	r1, r1
    5cea:	ea92 0f03 	teq	r2, r3
    5cee:	d03f      	beq.n	5d70 <__addsf3+0xd8>
    5cf0:	f1a2 0201 	sub.w	r2, r2, #1
    5cf4:	fa41 fc03 	asr.w	r12, r1, r3
    5cf8:	eb10 000c 	adds.w	r0, r0, r12
    5cfc:	f1c3 0320 	rsb	r3, r3, #32
    5d00:	fa01 f103 	lsl.w	r1, r1, r3
    5d04:	f000 4300 	and.w	r3, r0, #2147483648	; 0x80000000
    5d08:	d502      	bpl.n	5d10 <__addsf3+0x78>
    5d0a:	4249      	negs	r1, r1
    5d0c:	eb60 0040 	sbc.w	r0, r0, r0, lsl #1
    5d10:	f5b0 0f00 	cmp.w	r0, #8388608	; 0x800000
    5d14:	d313      	bcc.n	5d3e <__addsf3+0xa6>
    5d16:	f1b0 7f80 	cmp.w	r0, #16777216	; 0x1000000
    5d1a:	d306      	bcc.n	5d2a <__addsf3+0x92>
    5d1c:	0840      	lsrs	r0, r0, #1
    5d1e:	ea4f 0131 	mov.w	r1, r1, rrx
    5d22:	f102 0201 	add.w	r2, r2, #1
    5d26:	2afe      	cmp	r2, #254	; 0xfe
    5d28:	d251      	bcs.n	5dce <__addsf3+0x136>
    5d2a:	f1b1 4f00 	cmp.w	r1, #2147483648	; 0x80000000
    5d2e:	eb40 50c2 	adc.w	r0, r0, r2, lsl #23
    5d32:	bf08      	it	eq
    5d34:	f020 0001 	biceq.w	r0, r0, #1
    5d38:	ea40 0003 	orr.w	r0, r0, r3
    5d3c:	4770      	bx	lr
    5d3e:	0049      	lsls	r1, r1, #1
    5d40:	eb40 0000 	adc.w	r0, r0, r0
    5d44:	f410 0f00 	tst.w	r0, #8388608	; 0x800000
    5d48:	f1a2 0201 	sub.w	r2, r2, #1
    5d4c:	d1ed      	bne.n	5d2a <__addsf3+0x92>
    5d4e:	fab0 fc80 	clz	r12, r0
    5d52:	f1ac 0c08 	sub.w	r12, r12, #8
    5d56:	ebb2 020c 	subs.w	r2, r2, r12
    5d5a:	fa00 f00c 	lsl.w	r0, r0, r12
    5d5e:	bfaa      	itet	ge
    5d60:	eb00 50c2 	addge.w	r0, r0, r2, lsl #23
    5d64:	4252      	neglt	r2, r2
    5d66:	4318      	orrge	r0, r3
    5d68:	bfbc      	itt	lt
    5d6a:	40d0      	lsrlt	r0, r2
    5d6c:	4318      	orrlt	r0, r3
    5d6e:	4770      	bx	lr
    5d70:	f092 0f00 	teq	r2, #0
    5d74:	f481 0100 	eor.w	r1, r1, #8388608	; 0x800000
    5d78:	bf06      	itte	eq
    5d7a:	f480 0000 	eoreq.w	r0, r0, #8388608	; 0x800000
    5d7e:	3201      	addeq	r2, #1
    5d80:	3b01      	subne	r3, #1
    5d82:	e7b5      	b.n	5cf0 <__addsf3+0x58>
    5d84:	ea4f 0341 	mov.w	r3, r1, lsl #1
    5d88:	ea7f 6c22 	mvns.w	r12, r2, asr #24
    5d8c:	bf18      	it	ne
    5d8e:	ea7f 6c23 	mvnsne.w	r12, r3, asr #24
    5d92:	d021      	beq.n	5dd8 <__addsf3+0x140>
    5d94:	ea92 0f03 	teq	r2, r3
    5d98:	d004      	beq.n	5da4 <__addsf3+0x10c>
    5d9a:	f092 0f00 	teq	r2, #0
    5d9e:	bf08      	it	eq
    5da0:	4608      	moveq	r0, r1
    5da2:	4770      	bx	lr
    5da4:	ea90 0f01 	teq	r0, r1
    5da8:	bf1c      	itt	ne
    5daa:	2000      	movne	r0, #0
    5dac:	4770      	bxne	lr
    5dae:	f012 4f7f 	tst.w	r2, #4278190080	; 0xff000000
    5db2:	d104      	bne.n	5dbe <__addsf3+0x126>
    5db4:	0040      	lsls	r0, r0, #1
    5db6:	bf28      	it	cs
    5db8:	f040 4000 	orrcs.w	r0, r0, #2147483648	; 0x80000000
    5dbc:	4770      	bx	lr
    5dbe:	f112 7200 	adds.w	r2, r2, #33554432	; 0x2000000
    5dc2:	bf3c      	itt	cc
    5dc4:	f500 0000 	addcc.w	r0, r0, #8388608	; 0x800000
    5dc8:	4770      	bxcc	lr
    5dca:	f000 4300 	and.w	r3, r0, #2147483648	; 0x80000000
    5dce:	f043 40fe 	orr.w	r0, r3, #2130706432	; 0x7f000000
    5dd2:	f440 0000 	orr.w	r0, r0, #8388608	; 0x800000
    5dd6:	4770      	bx	lr
    5dd8:	ea7f 6222 	mvns.w	r2, r2, asr #24
    5ddc:	bf16      	itet	ne
    5dde:	4608      	movne	r0, r1
    5de0:	ea7f 6323 	mvnseq.w	r3, r3, asr #24
    5de4:	4601      	movne	r1, r0
    5de6:	0242      	lsls	r2, r0, #9
    5de8:	bf06      	itte	eq
    5dea:	ea5f 2341 	movseq.w	r3, r1, lsl #9
    5dee:	ea90 0f01 	teqeq	r0, r1
    5df2:	f440 0080 	orrne.w	r0, r0, #4194304	; 0x400000
    5df6:	4770      	bx	lr

00005df8 <__aeabi_ui2f>:
    5df8:	f04f 0300 	mov.w	r3, #0
    5dfc:	e004      	b.n	5e08 <__aeabi_i2f+0x8>
    5dfe:	bf00      	nop

00005e00 <__aeabi_i2f>:
    5e00:	f010 4300 	ands.w	r3, r0, #2147483648	; 0x80000000
    5e04:	bf48      	it	mi
    5e06:	4240      	negmi	r0, r0
    5e08:	ea5f 0c00 	movs.w	r12, r0
    5e0c:	bf08      	it	eq
    5e0e:	4770      	bxeq	lr
    5e10:	f043 4396 	orr.w	r3, r3, #1258291200	; 0x4b000000
    5e14:	4601      	mov	r1, r0
    5e16:	f04f 0000 	mov.w	r0, #0
    5e1a:	e01c      	b.n	5e56 <__aeabi_l2f+0x2a>

00005e1c <__aeabi_ul2f>:
    5e1c:	ea50 0201 	orrs.w	r2, r0, r1
    5e20:	bf08      	it	eq
    5e22:	4770      	bxeq	lr
    5e24:	f04f 0300 	mov.w	r3, #0
    5e28:	e00a      	b.n	5e40 <__aeabi_l2f+0x14>
    5e2a:	bf00      	nop

00005e2c <__aeabi_l2f>:
    5e2c:	ea50 0201 	orrs.w	r2, r0, r1
    5e30:	bf08      	it	eq
    5e32:	4770      	bxeq	lr
    5e34:	f011 4300 	ands.w	r3, r1, #2147483648	; 0x80000000
    5e38:	d502      	bpl.n	5e40 <__aeabi_l2f+0x14>
    5e3a:	4240      	negs	r0, r0
    5e3c:	eb61 0141 	sbc.w	r1, r1, r1, lsl #1
    5e40:	ea5f 0c01 	movs.w	r12, r1
    5e44:	bf02      	ittt	eq
    5e46:	4684      	moveq	r12, r0
    5e48:	4601      	moveq	r1, r0
    5e4a:	2000      	moveq	r0, #0
    5e4c:	f043 43b6 	orr.w	r3, r3, #1526726656	; 0x5b000000
    5e50:	bf08      	it	eq
    5e52:	f1a3 5380 	subeq.w	r3, r3, #268435456	; 0x10000000
    5e56:	f5a3 0300 	sub.w	r3, r3, #8388608	; 0x800000
    5e5a:	fabc f28c 	clz	r2, r12
    5e5e:	3a08      	subs	r2, #8
    5e60:	eba3 53c2 	sub.w	r3, r3, r2, lsl #23
    5e64:	db10      	blt.n	5e88 <__aeabi_l2f+0x5c>
    5e66:	fa01 fc02 	lsl.w	r12, r1, r2
    5e6a:	4463      	add	r3, r12
    5e6c:	fa00 fc02 	lsl.w	r12, r0, r2
    5e70:	f1c2 0220 	rsb	r2, r2, #32
    5e74:	f1bc 4f00 	cmp.w	r12, #2147483648	; 0x80000000
    5e78:	fa20 f202 	lsr.w	r2, r0, r2
    5e7c:	eb43 0002 	adc.w	r0, r3, r2
    5e80:	bf08      	it	eq
    5e82:	f020 0001 	biceq.w	r0, r0, #1
    5e86:	4770      	bx	lr
    5e88:	f102 0220 	add.w	r2, r2, #32
    5e8c:	fa01 fc02 	lsl.w	r12, r1, r2
    5e90:	f1c2 0220 	rsb	r2, r2, #32
    5e94:	ea50 004c 	orrs.w	r0, r0, r12, lsl #1
    5e98:	fa21 f202 	lsr.w	r2, r1, r2
    5e9c:	eb43 0002 	adc.w	r0, r3, r2
    5ea0:	bf08      	it	eq
    5ea2:	ea20 70dc 	biceq.w	r0, r0, r12, lsr #31
    5ea6:	4770      	bx	lr

00005ea8 <__aeabi_fmul>:
    5ea8:	f04f 0cff 	mov.w	r12, #255	; 0xff
    5eac:	ea1c 52d0 	ands.w	r2, r12, r0, lsr #23
    5eb0:	bf1e      	ittt	ne
    5eb2:	ea1c 53d1 	andsne.w	r3, r12, r1, lsr #23
    5eb6:	ea92 0f0c 	teqne	r2, r12
    5eba:	ea93 0f0c 	teqne	r3, r12
    5ebe:	d06f      	beq.n	5fa0 <__aeabi_fmul+0xf8>
    5ec0:	441a      	add	r2, r3
    5ec2:	ea80 0c01 	eor.w	r12, r0, r1
    5ec6:	0240      	lsls	r0, r0, #9
    5ec8:	bf18      	it	ne
    5eca:	ea5f 2141 	movsne.w	r1, r1, lsl #9
    5ece:	d01e      	beq.n	5f0e <__aeabi_fmul+0x66>
    5ed0:	f04f 6300 	mov.w	r3, #134217728	; 0x8000000
    5ed4:	ea43 1050 	orr.w	r0, r3, r0, lsr #5
    5ed8:	ea43 1151 	orr.w	r1, r3, r1, lsr #5
    5edc:	fba0 3101 	umull	r3, r1, r0, r1
    5ee0:	f00c 4000 	and.w	r0, r12, #2147483648	; 0x80000000
    5ee4:	f5b1 0f00 	cmp.w	r1, #8388608	; 0x800000
    5ee8:	bf3e      	ittt	cc
    5eea:	0049      	lslcc	r1, r1, #1
    5eec:	ea41 71d3 	orrcc.w	r1, r1, r3, lsr #31
    5ef0:	005b      	lslcc	r3, r3, #1
    5ef2:	ea40 0001 	orr.w	r0, r0, r1
    5ef6:	f162 027f 	sbc.w	r2, r2, #127	; 0x7f
    5efa:	2afd      	cmp	r2, #253	; 0xfd
    5efc:	d81d      	bhi.n	5f3a <__aeabi_fmul+0x92>
    5efe:	f1b3 4f00 	cmp.w	r3, #2147483648	; 0x80000000
    5f02:	eb40 50c2 	adc.w	r0, r0, r2, lsl #23
    5f06:	bf08      	it	eq
    5f08:	f020 0001 	biceq.w	r0, r0, #1
    5f0c:	4770      	bx	lr
    5f0e:	f090 0f00 	teq	r0, #0
    5f12:	f00c 4c00 	and.w	r12, r12, #2147483648	; 0x80000000
    5f16:	bf08      	it	eq
    5f18:	0249      	lsleq	r1, r1, #9
    5f1a:	ea4c 2050 	orr.w	r0, r12, r0, lsr #9
    5f1e:	ea40 2051 	orr.w	r0, r0, r1, lsr #9
    5f22:	3a7f      	subs	r2, #127	; 0x7f
    5f24:	bfc2      	ittt	gt
    5f26:	f1d2 03ff 	rsbsgt	r3, r2, #255	; 0xff
    5f2a:	ea40 50c2 	orrgt.w	r0, r0, r2, lsl #23
    5f2e:	4770      	bxgt	lr
    5f30:	f440 0000 	orr.w	r0, r0, #8388608	; 0x800000
    5f34:	f04f 0300 	mov.w	r3, #0
    5f38:	3a01      	subs	r2, #1
    5f3a:	dc5d      	bgt.n	5ff8 <__aeabi_fmul+0x150>
    5f3c:	f112 0f19 	cmn.w	r2, #25
    5f40:	bfdc      	itt	le
    5f42:	f000 4000 	andle.w	r0, r0, #2147483648	; 0x80000000
    5f46:	4770      	bxle	lr
    5f48:	f1c2 0200 	rsb	r2, r2, #0
    5f4c:	0041      	lsls	r1, r0, #1
    5f4e:	fa21 f102 	lsr.w	r1, r1, r2
    5f52:	f1c2 0220 	rsb	r2, r2, #32
    5f56:	fa00 fc02 	lsl.w	r12, r0, r2
    5f5a:	ea5f 0031 	movs.w	r0, r1, rrx
    5f5e:	f140 0000 	adc.w	r0, r0, #0
    5f62:	ea53 034c 	orrs.w	r3, r3, r12, lsl #1
    5f66:	bf08      	it	eq
    5f68:	ea20 70dc 	biceq.w	r0, r0, r12, lsr #31
    5f6c:	4770      	bx	lr
    5f6e:	f092 0f00 	teq	r2, #0
    5f72:	f000 4c00 	and.w	r12, r0, #2147483648	; 0x80000000
    5f76:	bf02      	ittt	eq
    5f78:	0040      	lsleq	r0, r0, #1
    5f7a:	f410 0f00 	tsteq.w	r0, #8388608	; 0x800000
    5f7e:	3a01      	subeq	r2, #1
    5f80:	d0f9      	beq.n	5f76 <__aeabi_fmul+0xce>
    5f82:	ea40 000c 	orr.w	r0, r0, r12
    5f86:	f093 0f00 	teq	r3, #0
    5f8a:	f001 4c00 	and.w	r12, r1, #2147483648	; 0x80000000
    5f8e:	bf02      	ittt	eq
    5f90:	0049      	lsleq	r1, r1, #1
    5f92:	f411 0f00 	tsteq.w	r1, #8388608	; 0x800000
    5f96:	3b01      	subeq	r3, #1
    5f98:	d0f9      	beq.n	5f8e <__aeabi_fmul+0xe6>
    5f9a:	ea41 010c 	orr.w	r1, r1, r12
    5f9e:	e78f      	b.n	5ec0 <__aeabi_fmul+0x18>
    5fa0:	ea0c 53d1 	and.w	r3, r12, r1, lsr #23
    5fa4:	ea92 0f0c 	teq	r2, r12
    5fa8:	bf18      	it	ne
    5faa:	ea93 0f0c 	teqne	r3, r12
    5fae:	d00a      	beq.n	5fc6 <__aeabi_fmul+0x11e>
    5fb0:	f030 4c00 	bics.w	r12, r0, #2147483648	; 0x80000000
    5fb4:	bf18      	it	ne
    5fb6:	f031 4c00 	bicsne.w	r12, r1, #2147483648	; 0x80000000
    5fba:	d1d8      	bne.n	5f6e <__aeabi_fmul+0xc6>
    5fbc:	ea80 0001 	eor.w	r0, r0, r1
    5fc0:	f000 4000 	and.w	r0, r0, #2147483648	; 0x80000000
    5fc4:	4770      	bx	lr
    5fc6:	f090 0f00 	teq	r0, #0
    5fca:	bf17      	itett	ne
    5fcc:	f090 4f00 	teqne	r0, #2147483648	; 0x80000000
    5fd0:	4608      	moveq	r0, r1
    5fd2:	f091 0f00 	teqne	r1, #0
    5fd6:	f091 4f00 	teqne	r1, #2147483648	; 0x80000000
    5fda:	d014      	beq.n	6006 <__aeabi_fmul+0x15e>
    5fdc:	ea92 0f0c 	teq	r2, r12
    5fe0:	d101      	bne.n	5fe6 <__aeabi_fmul+0x13e>
    5fe2:	0242      	lsls	r2, r0, #9
    5fe4:	d10f      	bne.n	6006 <__aeabi_fmul+0x15e>
    5fe6:	ea93 0f0c 	teq	r3, r12
    5fea:	d103      	bne.n	5ff4 <__aeabi_fmul+0x14c>
    5fec:	024b      	lsls	r3, r1, #9
    5fee:	bf18      	it	ne
    5ff0:	4608      	movne	r0, r1
    5ff2:	d108      	bne.n	6006 <__aeabi_fmul+0x15e>
    5ff4:	ea80 0001 	eor.w	r0, r0, r1
    5ff8:	f000 4000 	and.w	r0, r0, #2147483648	; 0x80000000
    5ffc:	f040 40fe 	orr.w	r0, r0, #2130706432	; 0x7f000000
    6000:	f440 0000 	orr.w	r0, r0, #8388608	; 0x800000
    6004:	4770      	bx	lr
    6006:	f040 40fe 	orr.w	r0, r0, #2130706432	; 0x7f000000
    600a:	f440 0040 	orr.w	r0, r0, #12582912	; 0xc00000
    600e:	4770      	bx	lr

00006010 <__aeabi_fdiv>:
    6010:	f04f 0cff 	mov.w	r12, #255	; 0xff
    6014:	ea1c 52d0 	ands.w	r2, r12, r0, lsr #23
    6018:	bf1e      	ittt	ne
    601a:	ea1c 53d1 	andsne.w	r3, r12, r1, lsr #23
    601e:	ea92 0f0c 	teqne	r2, r12
    6022:	ea93 0f0c 	teqne	r3, r12
    6026:	d069      	beq.n	60fc <__aeabi_fdiv+0xec>
    6028:	eba2 0203 	sub.w	r2, r2, r3
    602c:	ea80 0c01 	eor.w	r12, r0, r1
    6030:	0249      	lsls	r1, r1, #9
    6032:	ea4f 2040 	mov.w	r0, r0, lsl #9
    6036:	d037      	beq.n	60a8 <__aeabi_fdiv+0x98>
    6038:	f04f 5380 	mov.w	r3, #268435456	; 0x10000000
    603c:	ea43 1111 	orr.w	r1, r3, r1, lsr #4
    6040:	ea43 1310 	orr.w	r3, r3, r0, lsr #4
    6044:	f00c 4000 	and.w	r0, r12, #2147483648	; 0x80000000
    6048:	428b      	cmp	r3, r1
    604a:	bf38      	it	cc
    604c:	005b      	lslcc	r3, r3, #1
    604e:	f142 027d 	adc.w	r2, r2, #125	; 0x7d
    6052:	f44f 0c00 	mov.w	r12, #8388608	; 0x800000
    6056:	428b      	cmp	r3, r1
    6058:	bf24      	itt	cs
    605a:	1a5b      	subcs	r3, r3, r1
    605c:	ea40 000c 	orrcs.w	r0, r0, r12
    6060:	ebb3 0f51 	cmp.w	r3, r1, lsr #1
    6064:	bf24      	itt	cs
    6066:	eba3 0351 	subcs.w	r3, r3, r1, lsr #1
    606a:	ea40 005c 	orrcs.w	r0, r0, r12, lsr #1
    606e:	ebb3 0f91 	cmp.w	r3, r1, lsr #2
    6072:	bf24      	itt	cs
    6074:	eba3 0391 	subcs.w	r3, r3, r1, lsr #2
    6078:	ea40 009c 	orrcs.w	r0, r0, r12, lsr #2
    607c:	ebb3 0fd1 	cmp.w	r3, r1, lsr #3
    6080:	bf24      	itt	cs
    6082:	eba3 03d1 	subcs.w	r3, r3, r1, lsr #3
    6086:	ea40 00dc 	orrcs.w	r0, r0, r12, lsr #3
    608a:	011b      	lsls	r3, r3, #4
    608c:	bf18      	it	ne
    608e:	ea5f 1c1c 	movsne.w	r12, r12, lsr #4
    6092:	d1e0      	bne.n	6056 <__aeabi_fdiv+0x46>
    6094:	2afd      	cmp	r2, #253	; 0xfd
    6096:	f63f af50 	bhi.w	5f3a <__aeabi_fmul+0x92>
    609a:	428b      	cmp	r3, r1
    609c:	eb40 50c2 	adc.w	r0, r0, r2, lsl #23
    60a0:	bf08      	it	eq
    60a2:	f020 0001 	biceq.w	r0, r0, #1
    60a6:	4770      	bx	lr
    60a8:	f00c 4c00 	and.w	r12, r12, #2147483648	; 0x80000000
    60ac:	ea4c 2050 	orr.w	r0, r12, r0, lsr #9
    60b0:	327f      	adds	r2, #127	; 0x7f
    60b2:	bfc2      	ittt	gt
    60b4:	f1d2 03ff 	rsbsgt	r3, r2, #255	; 0xff
    60b8:	ea40 50c2 	orrgt.w	r0, r0, r2, lsl #23
    60bc:	4770      	bxgt	lr
    60be:	f440 0000 	orr.w	r0, r0, #8388608	; 0x800000
    60c2:	f04f 0300 	mov.w	r3, #0
    60c6:	3a01      	subs	r2, #1
    60c8:	e737      	b.n	5f3a <__aeabi_fmul+0x92>
    60ca:	f092 0f00 	teq	r2, #0
    60ce:	f000 4c00 	and.w	r12, r0, #2147483648	; 0x80000000
    60d2:	bf02      	ittt	eq
    60d4:	0040      	lsleq	r0, r0, #1
    60d6:	f410 0f00 	tsteq.w	r0, #8388608	; 0x800000
    60da:	3a01      	subeq	r2, #1
    60dc:	d0f9      	beq.n	60d2 <__aeabi_fdiv+0xc2>
    60de:	ea40 000c 	orr.w	r0, r0, r12
    60e2:	f093 0f00 	teq	r3, #0
    60e6:	f001 4c00 	and.w	r12, r1, #2147483648	; 0x80000000
    60ea:	bf02      	ittt	eq
    60ec:	0049      	lsleq	r1, r1, #1
    60ee:	f411 0f00 	tsteq.w	r1, #8388608	; 0x800000
    60f2:	3b01      	subeq	r3, #1
    60f4:	d0f9      	beq.n	60ea <__aeabi_fdiv+0xda>
    60f6:	ea41 010c 	orr.w	r1, r1, r12
    60fa:	e795      	b.n	6028 <__aeabi_fdiv+0x18>
    60fc:	ea0c 53d1 	and.w	r3, r12, r1, lsr #23
    6100:	ea92 0f0c 	teq	r2, r12
    6104:	d108      	bne.n	6118 <__aeabi_fdiv+0x108>
    6106:	0242      	lsls	r2, r0, #9
    6108:	f47f af7d 	bne.w	6006 <__aeabi_fmul+0x15e>
    610c:	ea93 0f0c 	teq	r3, r12
    6110:	f47f af70 	bne.w	5ff4 <__aeabi_fmul+0x14c>
    6114:	4608      	mov	r0, r1
    6116:	e776      	b.n	6006 <__aeabi_fmul+0x15e>
    6118:	ea93 0f0c 	teq	r3, r12
    611c:	d104      	bne.n	6128 <__aeabi_fdiv+0x118>
    611e:	024b      	lsls	r3, r1, #9
    6120:	f43f af4c 	beq.w	5fbc <__aeabi_fmul+0x114>
    6124:	4608      	mov	r0, r1
    6126:	e76e      	b.n	6006 <__aeabi_fmul+0x15e>
    6128:	f030 4c00 	bics.w	r12, r0, #2147483648	; 0x80000000
    612c:	bf18      	it	ne
    612e:	f031 4c00 	bicsne.w	r12, r1, #2147483648	; 0x80000000
    6132:	d1ca      	bne.n	60ca <__aeabi_fdiv+0xba>
    6134:	f030 4200 	bics.w	r2, r0, #2147483648	; 0x80000000
    6138:	f47f af5c 	bne.w	5ff4 <__aeabi_fmul+0x14c>
    613c:	f031 4300 	bics.w	r3, r1, #2147483648	; 0x80000000
    6140:	f47f af3c 	bne.w	5fbc <__aeabi_fmul+0x114>
    6144:	e75f      	b.n	6006 <__aeabi_fmul+0x15e>
    6146:	bf00      	nop

00006148 <__gesf2>:
    6148:	f04f 3cff 	mov.w	r12, #4294967295	; 0xffffffff
    614c:	e006      	b.n	615c <__cmpsf2+0x4>
    614e:	bf00      	nop

00006150 <__lesf2>:
    6150:	f04f 0c01 	mov.w	r12, #1
    6154:	e002      	b.n	615c <__cmpsf2+0x4>
    6156:	bf00      	nop

00006158 <__cmpsf2>:
    6158:	f04f 0c01 	mov.w	r12, #1
    615c:	f84d cd04 	str.w	r12, [sp, #-4]!
    6160:	ea4f 0240 	mov.w	r2, r0, lsl #1
    6164:	ea4f 0341 	mov.w	r3, r1, lsl #1
    6168:	ea7f 6c22 	mvns.w	r12, r2, asr #24
    616c:	bf18      	it	ne
    616e:	ea7f 6c23 	mvnsne.w	r12, r3, asr #24
    6172:	d011      	beq.n	6198 <__cmpsf2+0x40>
    6174:	b001      	add	sp, #4
    6176:	ea52 0c53 	orrs.w	r12, r2, r3, lsr #1
    617a:	bf18      	it	ne
    617c:	ea90 0f01 	teqne	r0, r1
    6180:	bf58      	it	pl
    6182:	ebb2 0003 	subspl.w	r0, r2, r3
    6186:	bf88      	it	hi
    6188:	17c8      	asrhi	r0, r1, #31
    618a:	bf38      	it	cc
    618c:	ea6f 70e1 	mvncc.w	r0, r1, asr #31
    6190:	bf18      	it	ne
    6192:	f040 0001 	orrne.w	r0, r0, #1
    6196:	4770      	bx	lr
    6198:	ea7f 6c22 	mvns.w	r12, r2, asr #24
    619c:	d102      	bne.n	61a4 <__cmpsf2+0x4c>
    619e:	ea5f 2c40 	movs.w	r12, r0, lsl #9
    61a2:	d105      	bne.n	61b0 <__cmpsf2+0x58>
    61a4:	ea7f 6c23 	mvns.w	r12, r3, asr #24
    61a8:	d1e4      	bne.n	6174 <__cmpsf2+0x1c>
    61aa:	ea5f 2c41 	movs.w	r12, r1, lsl #9
    61ae:	d0e1      	beq.n	6174 <__cmpsf2+0x1c>
    61b0:	f85d 0b04 	ldr.w	r0, [sp], #4
    61b4:	4770      	bx	lr
    61b6:	bf00      	nop

000061b8 <__aeabi_cfrcmple>:
    61b8:	4684      	mov	r12, r0
    61ba:	4608      	mov	r0, r1
    61bc:	4661      	mov	r1, r12
    61be:	e7ff      	b.n	61c0 <__aeabi_cfcmpeq>

000061c0 <__aeabi_cfcmpeq>:
    61c0:	b50f      	push	{r0, r1, r2, r3, lr}
    61c2:	f7ff ffc9 	bl	6158 <__cmpsf2>
    61c6:	2800      	cmp	r0, #0
    61c8:	bf48      	it	mi
    61ca:	f110 0f00 	cmnmi.w	r0, #0
    61ce:	bd0f      	pop	{r0, r1, r2, r3, pc}

000061d0 <__aeabi_fcmpeq>:
    61d0:	f84d ed08 	str.w	lr, [sp, #-8]!
    61d4:	f7ff fff4 	bl	61c0 <__aeabi_cfcmpeq>
    61d8:	bf0c      	ite	eq
    61da:	2001      	moveq	r0, #1
    61dc:	2000      	movne	r0, #0
    61de:	f85d fb08 	ldr.w	pc, [sp], #8
    61e2:	bf00      	nop

000061e4 <__aeabi_fcmplt>:
    61e4:	f84d ed08 	str.w	lr, [sp, #-8]!
    61e8:	f7ff ffea 	bl	61c0 <__aeabi_cfcmpeq>
    61ec:	bf34      	ite	cc
    61ee:	2001      	movcc	r0, #1
    61f0:	2000      	movcs	r0, #0
    61f2:	f85d fb08 	ldr.w	pc, [sp], #8
    61f6:	bf00      	nop

000061f8 <__aeabi_fcmple>:
    61f8:	f84d ed08 	str.w	lr, [sp, #-8]!
    61fc:	f7ff ffe0 	bl	61c0 <__aeabi_cfcmpeq>
    6200:	bf94      	ite	ls
    6202:	2001      	movls	r0, #1
    6204:	2000      	movhi	r0, #0
    6206:	f85d fb08 	ldr.w	pc, [sp], #8
    620a:	bf00      	nop

0000620c <__aeabi_fcmpge>:
    620c:	f84d ed08 	str.w	lr, [sp, #-8]!
    6210:	f7ff ffd2 	bl	61b8 <__aeabi_cfrcmple>
    6214:	bf94      	ite	ls
    6216:	2001      	movls	r0, #1
    6218:	2000      	movhi	r0, #0
    621a:	f85d fb08 	ldr.w	pc, [sp], #8
    621e:	bf00      	nop

00006220 <__aeabi_fcmpgt>:
    6220:	f84d ed08 	str.w	lr, [sp, #-8]!
    6224:	f7ff ffc8 	bl	61b8 <__aeabi_cfrcmple>
    6228:	bf34      	ite	cc
    622a:	2001      	movcc	r0, #1
    622c:	2000      	movcs	r0, #0
    622e:	f85d fb08 	ldr.w	pc, [sp], #8
    6232:	bf00      	nop

00006234 <__cxa_atexit>:
    6234:	b530      	push	{r4, r5, lr}
    6236:	4605      	mov	r5, r0
    6238:	460c      	mov	r4, r1
    623a:	4613      	mov	r3, r2
    623c:	2002      	movs	r0, #2
    623e:	4629      	mov	r1, r5
    6240:	4622      	mov	r2, r4
    6242:	e8bd 4030 	ldmia.w	sp!, {r4, r5, lr}
    6246:	f002 b979 	b.w	853c <__do_register_exitproc>
	...

0000624c <__errno>:
    624c:	4b01      	ldr	r3, [pc, #4]	; (6254 <__errno+0x8>)
    624e:	6818      	ldr	r0, [r3, #0]
    6250:	4770      	bx	lr
    6252:	bf00      	nop
    6254:	10000134 	.word	0x10000134

00006258 <_fclose_r>:
    6258:	b570      	push	{r4, r5, r6, lr}
    625a:	4605      	mov	r5, r0
    625c:	460c      	mov	r4, r1
    625e:	2900      	cmp	r1, #0
    6260:	d047      	beq.n	62f2 <_fclose_r+0x9a>
    6262:	f000 f9fd 	bl	6660 <__sfp_lock_acquire>
    6266:	b125      	cbz	r5, 6272 <_fclose_r+0x1a>
    6268:	69ab      	ldr	r3, [r5, #24]
    626a:	b913      	cbnz	r3, 6272 <_fclose_r+0x1a>
    626c:	4628      	mov	r0, r5
    626e:	f000 f98f 	bl	6590 <__sinit>
    6272:	4821      	ldr	r0, [pc, #132]	; (62f8 <_fclose_r+0xa0>)
    6274:	4284      	cmp	r4, r0
    6276:	d101      	bne.n	627c <_fclose_r+0x24>
    6278:	686c      	ldr	r4, [r5, #4]
    627a:	e008      	b.n	628e <_fclose_r+0x36>
    627c:	491f      	ldr	r1, [pc, #124]	; (62fc <_fclose_r+0xa4>)
    627e:	428c      	cmp	r4, r1
    6280:	d101      	bne.n	6286 <_fclose_r+0x2e>
    6282:	68ac      	ldr	r4, [r5, #8]
    6284:	e003      	b.n	628e <_fclose_r+0x36>
    6286:	4a1e      	ldr	r2, [pc, #120]	; (6300 <_fclose_r+0xa8>)
    6288:	4294      	cmp	r4, r2
    628a:	bf08      	it	eq
    628c:	68ec      	ldreq	r4, [r5, #12]
    628e:	f9b4 600c 	ldrsh.w	r6, [r4, #12]
    6292:	b35e      	cbz	r6, 62ec <_fclose_r+0x94>
    6294:	4628      	mov	r0, r5
    6296:	4621      	mov	r1, r4
    6298:	f000 f83c 	bl	6314 <_fflush_r>
    629c:	6b23      	ldr	r3, [r4, #48]	; 0x30
    629e:	4606      	mov	r6, r0
    62a0:	b13b      	cbz	r3, 62b2 <_fclose_r+0x5a>
    62a2:	4628      	mov	r0, r5
    62a4:	6a21      	ldr	r1, [r4, #32]
    62a6:	4798      	blx	r3
    62a8:	ea36 0620 	bics.w	r6, r6, r0, asr #32
    62ac:	bf28      	it	cs
    62ae:	f04f 36ff 	movcs.w	r6, #4294967295	; 0xffffffff
    62b2:	89a0      	ldrh	r0, [r4, #12]
    62b4:	f000 0180 	and.w	r1, r0, #128	; 0x80
    62b8:	b20a      	sxth	r2, r1
    62ba:	b11a      	cbz	r2, 62c4 <_fclose_r+0x6c>
    62bc:	4628      	mov	r0, r5
    62be:	6921      	ldr	r1, [r4, #16]
    62c0:	f000 fa5a 	bl	6778 <_free_r>
    62c4:	6b61      	ldr	r1, [r4, #52]	; 0x34
    62c6:	b141      	cbz	r1, 62da <_fclose_r+0x82>
    62c8:	f104 0344 	add.w	r3, r4, #68	; 0x44
    62cc:	4299      	cmp	r1, r3
    62ce:	d002      	beq.n	62d6 <_fclose_r+0x7e>
    62d0:	4628      	mov	r0, r5
    62d2:	f000 fa51 	bl	6778 <_free_r>
    62d6:	2000      	movs	r0, #0
    62d8:	6360      	str	r0, [r4, #52]	; 0x34
    62da:	6ca1      	ldr	r1, [r4, #72]	; 0x48
    62dc:	b121      	cbz	r1, 62e8 <_fclose_r+0x90>
    62de:	4628      	mov	r0, r5
    62e0:	f000 fa4a 	bl	6778 <_free_r>
    62e4:	2100      	movs	r1, #0
    62e6:	64a1      	str	r1, [r4, #72]	; 0x48
    62e8:	2200      	movs	r2, #0
    62ea:	81a2      	strh	r2, [r4, #12]
    62ec:	f000 f9b9 	bl	6662 <__sfp_lock_release>
    62f0:	e000      	b.n	62f4 <_fclose_r+0x9c>
    62f2:	460e      	mov	r6, r1
    62f4:	4630      	mov	r0, r6
    62f6:	bd70      	pop	{r4, r5, r6, pc}
    62f8:	00009698 	.word	0x00009698
    62fc:	000096b8 	.word	0x000096b8
    6300:	000096d8 	.word	0x000096d8

00006304 <fclose>:
    6304:	4b02      	ldr	r3, [pc, #8]	; (6310 <fclose+0xc>)
    6306:	4601      	mov	r1, r0
    6308:	6818      	ldr	r0, [r3, #0]
    630a:	f7ff bfa5 	b.w	6258 <_fclose_r>
    630e:	bf00      	nop
    6310:	10000134 	.word	0x10000134

00006314 <_fflush_r>:
    6314:	690b      	ldr	r3, [r1, #16]
    6316:	e92d 41f0 	stmdb	sp!, {r4, r5, r6, r7, r8, lr}
    631a:	4605      	mov	r5, r0
    631c:	460c      	mov	r4, r1
    631e:	2b00      	cmp	r3, #0
    6320:	d03b      	beq.n	639a <_fflush_r+0x86>
    6322:	b118      	cbz	r0, 632c <_fflush_r+0x18>
    6324:	6981      	ldr	r1, [r0, #24]
    6326:	b909      	cbnz	r1, 632c <_fflush_r+0x18>
    6328:	f000 f932 	bl	6590 <__sinit>
    632c:	4848      	ldr	r0, [pc, #288]	; (6450 <_fflush_r+0x13c>)
    632e:	4284      	cmp	r4, r0
    6330:	d101      	bne.n	6336 <_fflush_r+0x22>
    6332:	686c      	ldr	r4, [r5, #4]
    6334:	e008      	b.n	6348 <_fflush_r+0x34>
    6336:	4a47      	ldr	r2, [pc, #284]	; (6454 <_fflush_r+0x140>)
    6338:	4294      	cmp	r4, r2
    633a:	d101      	bne.n	6340 <_fflush_r+0x2c>
    633c:	68ac      	ldr	r4, [r5, #8]
    633e:	e003      	b.n	6348 <_fflush_r+0x34>
    6340:	4b45      	ldr	r3, [pc, #276]	; (6458 <_fflush_r+0x144>)
    6342:	429c      	cmp	r4, r3
    6344:	bf08      	it	eq
    6346:	68ec      	ldreq	r4, [r5, #12]
    6348:	89a1      	ldrh	r1, [r4, #12]
    634a:	b331      	cbz	r1, 639a <_fflush_r+0x86>
    634c:	f001 0008 	and.w	r0, r1, #8
    6350:	b202      	sxth	r2, r0
    6352:	2a00      	cmp	r2, #0
    6354:	d161      	bne.n	641a <_fflush_r+0x106>
    6356:	6862      	ldr	r2, [r4, #4]
    6358:	f441 6000 	orr.w	r0, r1, #2048	; 0x800
    635c:	2a00      	cmp	r2, #0
    635e:	81a0      	strh	r0, [r4, #12]
    6360:	dc02      	bgt.n	6368 <_fflush_r+0x54>
    6362:	6c23      	ldr	r3, [r4, #64]	; 0x40
    6364:	2b00      	cmp	r3, #0
    6366:	dd18      	ble.n	639a <_fflush_r+0x86>
    6368:	6ae6      	ldr	r6, [r4, #44]	; 0x2c
    636a:	b1b6      	cbz	r6, 639a <_fflush_r+0x86>
    636c:	f401 5180 	and.w	r1, r1, #4096	; 0x1000
    6370:	2000      	movs	r0, #0
    6372:	b20a      	sxth	r2, r1
    6374:	682f      	ldr	r7, [r5, #0]
    6376:	6028      	str	r0, [r5, #0]
    6378:	b10a      	cbz	r2, 637e <_fflush_r+0x6a>
    637a:	6d62      	ldr	r2, [r4, #84]	; 0x54
    637c:	e010      	b.n	63a0 <_fflush_r+0x8c>
    637e:	2301      	movs	r3, #1
    6380:	4628      	mov	r0, r5
    6382:	6a21      	ldr	r1, [r4, #32]
    6384:	47b0      	blx	r6
    6386:	4602      	mov	r2, r0
    6388:	3001      	adds	r0, #1
    638a:	d109      	bne.n	63a0 <_fflush_r+0x8c>
    638c:	682b      	ldr	r3, [r5, #0]
    638e:	b13b      	cbz	r3, 63a0 <_fflush_r+0x8c>
    6390:	2b1d      	cmp	r3, #29
    6392:	d001      	beq.n	6398 <_fflush_r+0x84>
    6394:	2b16      	cmp	r3, #22
    6396:	d11b      	bne.n	63d0 <_fflush_r+0xbc>
    6398:	602f      	str	r7, [r5, #0]
    639a:	2000      	movs	r0, #0
    639c:	e8bd 81f0 	ldmia.w	sp!, {r4, r5, r6, r7, r8, pc}
    63a0:	89a6      	ldrh	r6, [r4, #12]
    63a2:	f006 0004 	and.w	r0, r6, #4
    63a6:	b201      	sxth	r1, r0
    63a8:	b129      	cbz	r1, 63b6 <_fflush_r+0xa2>
    63aa:	6863      	ldr	r3, [r4, #4]
    63ac:	6b66      	ldr	r6, [r4, #52]	; 0x34
    63ae:	1ad2      	subs	r2, r2, r3
    63b0:	b10e      	cbz	r6, 63b6 <_fflush_r+0xa2>
    63b2:	6c20      	ldr	r0, [r4, #64]	; 0x40
    63b4:	1a12      	subs	r2, r2, r0
    63b6:	6a21      	ldr	r1, [r4, #32]
    63b8:	2300      	movs	r3, #0
    63ba:	6ae6      	ldr	r6, [r4, #44]	; 0x2c
    63bc:	4628      	mov	r0, r5
    63be:	47b0      	blx	r6
    63c0:	1c41      	adds	r1, r0, #1
    63c2:	d10d      	bne.n	63e0 <_fflush_r+0xcc>
    63c4:	682a      	ldr	r2, [r5, #0]
    63c6:	b15a      	cbz	r2, 63e0 <_fflush_r+0xcc>
    63c8:	2a1d      	cmp	r2, #29
    63ca:	d009      	beq.n	63e0 <_fflush_r+0xcc>
    63cc:	2a16      	cmp	r2, #22
    63ce:	d007      	beq.n	63e0 <_fflush_r+0xcc>
    63d0:	89a1      	ldrh	r1, [r4, #12]
    63d2:	f04f 30ff 	mov.w	r0, #4294967295	; 0xffffffff
    63d6:	f041 0340 	orr.w	r3, r1, #64	; 0x40
    63da:	81a3      	strh	r3, [r4, #12]
    63dc:	e8bd 81f0 	ldmia.w	sp!, {r4, r5, r6, r7, r8, pc}
    63e0:	89a3      	ldrh	r3, [r4, #12]
    63e2:	2200      	movs	r2, #0
    63e4:	6921      	ldr	r1, [r4, #16]
    63e6:	6062      	str	r2, [r4, #4]
    63e8:	f403 5280 	and.w	r2, r3, #4096	; 0x1000
    63ec:	6021      	str	r1, [r4, #0]
    63ee:	b211      	sxth	r1, r2
    63f0:	b121      	cbz	r1, 63fc <_fflush_r+0xe8>
    63f2:	1c42      	adds	r2, r0, #1
    63f4:	d101      	bne.n	63fa <_fflush_r+0xe6>
    63f6:	682b      	ldr	r3, [r5, #0]
    63f8:	b903      	cbnz	r3, 63fc <_fflush_r+0xe8>
    63fa:	6560      	str	r0, [r4, #84]	; 0x54
    63fc:	6b61      	ldr	r1, [r4, #52]	; 0x34
    63fe:	602f      	str	r7, [r5, #0]
    6400:	2900      	cmp	r1, #0
    6402:	d0ca      	beq.n	639a <_fflush_r+0x86>
    6404:	f104 0044 	add.w	r0, r4, #68	; 0x44
    6408:	4281      	cmp	r1, r0
    640a:	d002      	beq.n	6412 <_fflush_r+0xfe>
    640c:	4628      	mov	r0, r5
    640e:	f000 f9b3 	bl	6778 <_free_r>
    6412:	2000      	movs	r0, #0
    6414:	6360      	str	r0, [r4, #52]	; 0x34
    6416:	e8bd 81f0 	ldmia.w	sp!, {r4, r5, r6, r7, r8, pc}
    641a:	6926      	ldr	r6, [r4, #16]
    641c:	2e00      	cmp	r6, #0
    641e:	d0bc      	beq.n	639a <_fflush_r+0x86>
    6420:	0789      	lsls	r1, r1, #30
    6422:	6823      	ldr	r3, [r4, #0]
    6424:	bf0c      	ite	eq
    6426:	6961      	ldreq	r1, [r4, #20]
    6428:	2100      	movne	r1, #0
    642a:	ebc6 0803 	rsb	r8, r6, r3
    642e:	6026      	str	r6, [r4, #0]
    6430:	60a1      	str	r1, [r4, #8]
    6432:	f1b8 0f00 	cmp.w	r8, #0
    6436:	ddb0      	ble.n	639a <_fflush_r+0x86>
    6438:	6aa7      	ldr	r7, [r4, #40]	; 0x28
    643a:	4628      	mov	r0, r5
    643c:	6a21      	ldr	r1, [r4, #32]
    643e:	4632      	mov	r2, r6
    6440:	4643      	mov	r3, r8
    6442:	47b8      	blx	r7
    6444:	2800      	cmp	r0, #0
    6446:	ddc3      	ble.n	63d0 <_fflush_r+0xbc>
    6448:	1836      	adds	r6, r6, r0
    644a:	ebc0 0808 	rsb	r8, r0, r8
    644e:	e7f0      	b.n	6432 <_fflush_r+0x11e>
    6450:	00009698 	.word	0x00009698
    6454:	000096b8 	.word	0x000096b8
    6458:	000096d8 	.word	0x000096d8

0000645c <fflush>:
    645c:	4601      	mov	r1, r0
    645e:	b920      	cbnz	r0, 646a <fflush+0xe>
    6460:	4804      	ldr	r0, [pc, #16]	; (6474 <fflush+0x18>)
    6462:	4905      	ldr	r1, [pc, #20]	; (6478 <fflush+0x1c>)
    6464:	6800      	ldr	r0, [r0, #0]
    6466:	f000 bbde 	b.w	6c26 <_fwalk_reent>
    646a:	4b04      	ldr	r3, [pc, #16]	; (647c <fflush+0x20>)
    646c:	6818      	ldr	r0, [r3, #0]
    646e:	f7ff bf51 	b.w	6314 <_fflush_r>
    6472:	bf00      	nop
    6474:	000096fc 	.word	0x000096fc
    6478:	00006315 	.word	0x00006315
    647c:	10000134 	.word	0x10000134

00006480 <_fgetc_r>:
    6480:	b538      	push	{r3, r4, r5, lr}
    6482:	460c      	mov	r4, r1
    6484:	4605      	mov	r5, r0
    6486:	b118      	cbz	r0, 6490 <_fgetc_r+0x10>
    6488:	6983      	ldr	r3, [r0, #24]
    648a:	b90b      	cbnz	r3, 6490 <_fgetc_r+0x10>
    648c:	f000 f880 	bl	6590 <__sinit>
    6490:	480e      	ldr	r0, [pc, #56]	; (64cc <_fgetc_r+0x4c>)
    6492:	4284      	cmp	r4, r0
    6494:	d101      	bne.n	649a <_fgetc_r+0x1a>
    6496:	686c      	ldr	r4, [r5, #4]
    6498:	e008      	b.n	64ac <_fgetc_r+0x2c>
    649a:	490d      	ldr	r1, [pc, #52]	; (64d0 <_fgetc_r+0x50>)
    649c:	428c      	cmp	r4, r1
    649e:	d101      	bne.n	64a4 <_fgetc_r+0x24>
    64a0:	68ac      	ldr	r4, [r5, #8]
    64a2:	e003      	b.n	64ac <_fgetc_r+0x2c>
    64a4:	4a0b      	ldr	r2, [pc, #44]	; (64d4 <_fgetc_r+0x54>)
    64a6:	4294      	cmp	r4, r2
    64a8:	bf08      	it	eq
    64aa:	68ec      	ldreq	r4, [r5, #12]
    64ac:	6863      	ldr	r3, [r4, #4]
    64ae:	1e58      	subs	r0, r3, #1
    64b0:	2800      	cmp	r0, #0
    64b2:	6060      	str	r0, [r4, #4]
    64b4:	da05      	bge.n	64c2 <_fgetc_r+0x42>
    64b6:	4628      	mov	r0, r5
    64b8:	4621      	mov	r1, r4
    64ba:	e8bd 4038 	ldmia.w	sp!, {r3, r4, r5, lr}
    64be:	f000 be5f 	b.w	7180 <__srget_r>
    64c2:	6821      	ldr	r1, [r4, #0]
    64c4:	f811 0b01 	ldrb.w	r0, [r1], #1
    64c8:	6021      	str	r1, [r4, #0]
    64ca:	bd38      	pop	{r3, r4, r5, pc}
    64cc:	00009698 	.word	0x00009698
    64d0:	000096b8 	.word	0x000096b8
    64d4:	000096d8 	.word	0x000096d8

000064d8 <fgetc>:
    64d8:	4b02      	ldr	r3, [pc, #8]	; (64e4 <fgetc+0xc>)
    64da:	4601      	mov	r1, r0
    64dc:	6818      	ldr	r0, [r3, #0]
    64de:	f7ff bfcf 	b.w	6480 <_fgetc_r>
    64e2:	bf00      	nop
    64e4:	10000134 	.word	0x10000134

000064e8 <_cleanup_r>:
    64e8:	b5f8      	push	{r3, r4, r5, r6, r7, lr}
    64ea:	4607      	mov	r7, r0
    64ec:	f100 044c 	add.w	r4, r0, #76	; 0x4c
    64f0:	b194      	cbz	r4, 6518 <_cleanup_r+0x30>
    64f2:	68a5      	ldr	r5, [r4, #8]
    64f4:	6866      	ldr	r6, [r4, #4]
    64f6:	3e01      	subs	r6, #1
    64f8:	d40c      	bmi.n	6514 <_cleanup_r+0x2c>
    64fa:	f9b5 300c 	ldrsh.w	r3, [r5, #12]
    64fe:	b13b      	cbz	r3, 6510 <_cleanup_r+0x28>
    6500:	f9b5 000e 	ldrsh.w	r0, [r5, #14]
    6504:	1c43      	adds	r3, r0, #1
    6506:	d003      	beq.n	6510 <_cleanup_r+0x28>
    6508:	4638      	mov	r0, r7
    650a:	4629      	mov	r1, r5
    650c:	f7ff ff02 	bl	6314 <_fflush_r>
    6510:	3568      	adds	r5, #104	; 0x68
    6512:	e7f0      	b.n	64f6 <_cleanup_r+0xe>
    6514:	6824      	ldr	r4, [r4, #0]
    6516:	e7eb      	b.n	64f0 <_cleanup_r+0x8>
    6518:	bdf8      	pop	{r3, r4, r5, r6, r7, pc}
	...

0000651c <std.isra.0>:
    651c:	2300      	movs	r3, #0
    651e:	b510      	push	{r4, lr}
    6520:	4604      	mov	r4, r0
    6522:	6003      	str	r3, [r0, #0]
    6524:	6043      	str	r3, [r0, #4]
    6526:	6083      	str	r3, [r0, #8]
    6528:	8181      	strh	r1, [r0, #12]
    652a:	6643      	str	r3, [r0, #100]	; 0x64
    652c:	81c2      	strh	r2, [r0, #14]
    652e:	6103      	str	r3, [r0, #16]
    6530:	6143      	str	r3, [r0, #20]
    6532:	6183      	str	r3, [r0, #24]
    6534:	4619      	mov	r1, r3
    6536:	2208      	movs	r2, #8
    6538:	f100 005c 	add.w	r0, r0, #92	; 0x5c
    653c:	f000 fcf2 	bl	6f24 <memset>
    6540:	4804      	ldr	r0, [pc, #16]	; (6554 <std.isra.0+0x38>)
    6542:	4905      	ldr	r1, [pc, #20]	; (6558 <std.isra.0+0x3c>)
    6544:	4a05      	ldr	r2, [pc, #20]	; (655c <std.isra.0+0x40>)
    6546:	4b06      	ldr	r3, [pc, #24]	; (6560 <std.isra.0+0x44>)
    6548:	6224      	str	r4, [r4, #32]
    654a:	6260      	str	r0, [r4, #36]	; 0x24
    654c:	62a1      	str	r1, [r4, #40]	; 0x28
    654e:	62e2      	str	r2, [r4, #44]	; 0x2c
    6550:	6323      	str	r3, [r4, #48]	; 0x30
    6552:	bd10      	pop	{r4, pc}
    6554:	000073c9 	.word	0x000073c9
    6558:	000073ef 	.word	0x000073ef
    655c:	0000742b 	.word	0x0000742b
    6560:	0000744f 	.word	0x0000744f

00006564 <__sfmoreglue>:
    6564:	b570      	push	{r4, r5, r6, lr}
    6566:	2568      	movs	r5, #104	; 0x68
    6568:	434d      	muls	r5, r1
    656a:	460e      	mov	r6, r1
    656c:	f105 010c 	add.w	r1, r5, #12
    6570:	f000 fc4e 	bl	6e10 <_malloc_r>
    6574:	4604      	mov	r4, r0
    6576:	b140      	cbz	r0, 658a <__sfmoreglue+0x26>
    6578:	f100 000c 	add.w	r0, r0, #12
    657c:	2100      	movs	r1, #0
    657e:	e884 0042 	stmia.w	r4, {r1, r6}
    6582:	60a0      	str	r0, [r4, #8]
    6584:	462a      	mov	r2, r5
    6586:	f000 fccd 	bl	6f24 <memset>
    658a:	4620      	mov	r0, r4
    658c:	bd70      	pop	{r4, r5, r6, pc}
	...

00006590 <__sinit>:
    6590:	b570      	push	{r4, r5, r6, lr}
    6592:	6985      	ldr	r5, [r0, #24]
    6594:	4604      	mov	r4, r0
    6596:	2d00      	cmp	r5, #0
    6598:	d122      	bne.n	65e0 <__sinit+0x50>
    659a:	4b12      	ldr	r3, [pc, #72]	; (65e4 <__sinit+0x54>)
    659c:	2601      	movs	r6, #1
    659e:	6283      	str	r3, [r0, #40]	; 0x28
    65a0:	6186      	str	r6, [r0, #24]
    65a2:	64c5      	str	r5, [r0, #76]	; 0x4c
    65a4:	6505      	str	r5, [r0, #80]	; 0x50
    65a6:	6545      	str	r5, [r0, #84]	; 0x54
    65a8:	f000 f81e 	bl	65e8 <__sfp>
    65ac:	6060      	str	r0, [r4, #4]
    65ae:	4620      	mov	r0, r4
    65b0:	f000 f81a 	bl	65e8 <__sfp>
    65b4:	60a0      	str	r0, [r4, #8]
    65b6:	4620      	mov	r0, r4
    65b8:	f000 f816 	bl	65e8 <__sfp>
    65bc:	2104      	movs	r1, #4
    65be:	60e0      	str	r0, [r4, #12]
    65c0:	462a      	mov	r2, r5
    65c2:	6860      	ldr	r0, [r4, #4]
    65c4:	f7ff ffaa 	bl	651c <std.isra.0>
    65c8:	68a0      	ldr	r0, [r4, #8]
    65ca:	2109      	movs	r1, #9
    65cc:	4632      	mov	r2, r6
    65ce:	f7ff ffa5 	bl	651c <std.isra.0>
    65d2:	68e0      	ldr	r0, [r4, #12]
    65d4:	2112      	movs	r1, #18
    65d6:	2202      	movs	r2, #2
    65d8:	e8bd 4070 	ldmia.w	sp!, {r4, r5, r6, lr}
    65dc:	f7ff bf9e 	b.w	651c <std.isra.0>
    65e0:	bd70      	pop	{r4, r5, r6, pc}
    65e2:	bf00      	nop
    65e4:	000064e9 	.word	0x000064e9

000065e8 <__sfp>:
    65e8:	b5f8      	push	{r3, r4, r5, r6, r7, lr}
    65ea:	4b1c      	ldr	r3, [pc, #112]	; (665c <__sfp+0x74>)
    65ec:	4607      	mov	r7, r0
    65ee:	681e      	ldr	r6, [r3, #0]
    65f0:	69b0      	ldr	r0, [r6, #24]
    65f2:	b910      	cbnz	r0, 65fa <__sfp+0x12>
    65f4:	4630      	mov	r0, r6
    65f6:	f7ff ffcb 	bl	6590 <__sinit>
    65fa:	364c      	adds	r6, #76	; 0x4c
    65fc:	68b4      	ldr	r4, [r6, #8]
    65fe:	6871      	ldr	r1, [r6, #4]
    6600:	3901      	subs	r1, #1
    6602:	d404      	bmi.n	660e <__sfp+0x26>
    6604:	f9b4 500c 	ldrsh.w	r5, [r4, #12]
    6608:	b185      	cbz	r5, 662c <__sfp+0x44>
    660a:	3468      	adds	r4, #104	; 0x68
    660c:	e7f8      	b.n	6600 <__sfp+0x18>
    660e:	6832      	ldr	r2, [r6, #0]
    6610:	b10a      	cbz	r2, 6616 <__sfp+0x2e>
    6612:	6836      	ldr	r6, [r6, #0]
    6614:	e7f2      	b.n	65fc <__sfp+0x14>
    6616:	4638      	mov	r0, r7
    6618:	2104      	movs	r1, #4
    661a:	f7ff ffa3 	bl	6564 <__sfmoreglue>
    661e:	6030      	str	r0, [r6, #0]
    6620:	2800      	cmp	r0, #0
    6622:	d1f6      	bne.n	6612 <__sfp+0x2a>
    6624:	240c      	movs	r4, #12
    6626:	603c      	str	r4, [r7, #0]
    6628:	4604      	mov	r4, r0
    662a:	e015      	b.n	6658 <__sfp+0x70>
    662c:	f64f 73ff 	movw	r3, #65535	; 0xffff
    6630:	2001      	movs	r0, #1
    6632:	81a0      	strh	r0, [r4, #12]
    6634:	81e3      	strh	r3, [r4, #14]
    6636:	6665      	str	r5, [r4, #100]	; 0x64
    6638:	6025      	str	r5, [r4, #0]
    663a:	60a5      	str	r5, [r4, #8]
    663c:	6065      	str	r5, [r4, #4]
    663e:	6125      	str	r5, [r4, #16]
    6640:	6165      	str	r5, [r4, #20]
    6642:	61a5      	str	r5, [r4, #24]
    6644:	f104 005c 	add.w	r0, r4, #92	; 0x5c
    6648:	4629      	mov	r1, r5
    664a:	2208      	movs	r2, #8
    664c:	f000 fc6a 	bl	6f24 <memset>
    6650:	6365      	str	r5, [r4, #52]	; 0x34
    6652:	63a5      	str	r5, [r4, #56]	; 0x38
    6654:	64a5      	str	r5, [r4, #72]	; 0x48
    6656:	64e5      	str	r5, [r4, #76]	; 0x4c
    6658:	4620      	mov	r0, r4
    665a:	bdf8      	pop	{r3, r4, r5, r6, r7, pc}
    665c:	000096fc 	.word	0x000096fc

00006660 <__sfp_lock_acquire>:
    6660:	4770      	bx	lr

00006662 <__sfp_lock_release>:
    6662:	4770      	bx	lr

00006664 <_fopen_r>:
    6664:	b5f7      	push	{r0, r1, r2, r4, r5, r6, r7, lr}
    6666:	460f      	mov	r7, r1
    6668:	4611      	mov	r1, r2
    666a:	aa01      	add	r2, sp, #4
    666c:	4605      	mov	r5, r0
    666e:	f001 ffb3 	bl	85d8 <__sflags>
    6672:	4606      	mov	r6, r0
    6674:	b908      	cbnz	r0, 667a <_fopen_r+0x16>
    6676:	2400      	movs	r4, #0
    6678:	e02a      	b.n	66d0 <_fopen_r+0x6c>
    667a:	4628      	mov	r0, r5
    667c:	f7ff ffb4 	bl	65e8 <__sfp>
    6680:	4604      	mov	r4, r0
    6682:	2800      	cmp	r0, #0
    6684:	d0f7      	beq.n	6676 <_fopen_r+0x12>
    6686:	4628      	mov	r0, r5
    6688:	4639      	mov	r1, r7
    668a:	9a01      	ldr	r2, [sp, #4]
    668c:	f44f 73db 	mov.w	r3, #438	; 0x1b6
    6690:	f000 fc50 	bl	6f34 <_open_r>
    6694:	2800      	cmp	r0, #0
    6696:	da06      	bge.n	66a6 <_fopen_r+0x42>
    6698:	2500      	movs	r5, #0
    669a:	f7ff ffe1 	bl	6660 <__sfp_lock_acquire>
    669e:	81a5      	strh	r5, [r4, #12]
    66a0:	f7ff ffdf 	bl	6662 <__sfp_lock_release>
    66a4:	e7e7      	b.n	6676 <_fopen_r+0x12>
    66a6:	81e0      	strh	r0, [r4, #14]
    66a8:	81a6      	strh	r6, [r4, #12]
    66aa:	4b0a      	ldr	r3, [pc, #40]	; (66d4 <_fopen_r+0x70>)
    66ac:	480a      	ldr	r0, [pc, #40]	; (66d8 <_fopen_r+0x74>)
    66ae:	490b      	ldr	r1, [pc, #44]	; (66dc <_fopen_r+0x78>)
    66b0:	4a0b      	ldr	r2, [pc, #44]	; (66e0 <_fopen_r+0x7c>)
    66b2:	f406 7680 	and.w	r6, r6, #256	; 0x100
    66b6:	b236      	sxth	r6, r6
    66b8:	6224      	str	r4, [r4, #32]
    66ba:	6263      	str	r3, [r4, #36]	; 0x24
    66bc:	62a0      	str	r0, [r4, #40]	; 0x28
    66be:	62e1      	str	r1, [r4, #44]	; 0x2c
    66c0:	6322      	str	r2, [r4, #48]	; 0x30
    66c2:	b12e      	cbz	r6, 66d0 <_fopen_r+0x6c>
    66c4:	4628      	mov	r0, r5
    66c6:	4621      	mov	r1, r4
    66c8:	2200      	movs	r2, #0
    66ca:	2302      	movs	r3, #2
    66cc:	f000 f898 	bl	6800 <_fseek_r>
    66d0:	4620      	mov	r0, r4
    66d2:	bdfe      	pop	{r1, r2, r3, r4, r5, r6, r7, pc}
    66d4:	000073c9 	.word	0x000073c9
    66d8:	000073ef 	.word	0x000073ef
    66dc:	0000742b 	.word	0x0000742b
    66e0:	0000744f 	.word	0x0000744f

000066e4 <fopen>:
    66e4:	460a      	mov	r2, r1
    66e6:	4903      	ldr	r1, [pc, #12]	; (66f4 <fopen+0x10>)
    66e8:	4603      	mov	r3, r0
    66ea:	6808      	ldr	r0, [r1, #0]
    66ec:	4619      	mov	r1, r3
    66ee:	f7ff bfb9 	b.w	6664 <_fopen_r>
    66f2:	bf00      	nop
    66f4:	10000134 	.word	0x10000134

000066f8 <fiprintf>:
    66f8:	b40e      	push	{r1, r2, r3}
    66fa:	b503      	push	{r0, r1, lr}
    66fc:	4601      	mov	r1, r0
    66fe:	ab03      	add	r3, sp, #12
    6700:	4805      	ldr	r0, [pc, #20]	; (6718 <fiprintf+0x20>)
    6702:	f853 2b04 	ldr.w	r2, [r3], #4
    6706:	6800      	ldr	r0, [r0, #0]
    6708:	9301      	str	r3, [sp, #4]
    670a:	f001 fa33 	bl	7b74 <_vfiprintf_r>
    670e:	e8bd 400c 	ldmia.w	sp!, {r2, r3, lr}
    6712:	b003      	add	sp, #12
    6714:	4770      	bx	lr
    6716:	bf00      	nop
    6718:	10000134 	.word	0x10000134

0000671c <_fputc_r>:
    671c:	b570      	push	{r4, r5, r6, lr}
    671e:	460e      	mov	r6, r1
    6720:	4614      	mov	r4, r2
    6722:	4605      	mov	r5, r0
    6724:	b118      	cbz	r0, 672e <_fputc_r+0x12>
    6726:	6983      	ldr	r3, [r0, #24]
    6728:	b90b      	cbnz	r3, 672e <_fputc_r+0x12>
    672a:	f7ff ff31 	bl	6590 <__sinit>
    672e:	480a      	ldr	r0, [pc, #40]	; (6758 <_fputc_r+0x3c>)
    6730:	4284      	cmp	r4, r0
    6732:	bf08      	it	eq
    6734:	686c      	ldreq	r4, [r5, #4]
    6736:	d008      	beq.n	674a <_fputc_r+0x2e>
    6738:	4908      	ldr	r1, [pc, #32]	; (675c <_fputc_r+0x40>)
    673a:	428c      	cmp	r4, r1
    673c:	bf08      	it	eq
    673e:	68ac      	ldreq	r4, [r5, #8]
    6740:	d003      	beq.n	674a <_fputc_r+0x2e>
    6742:	4a07      	ldr	r2, [pc, #28]	; (6760 <_fputc_r+0x44>)
    6744:	4294      	cmp	r4, r2
    6746:	bf08      	it	eq
    6748:	68ec      	ldreq	r4, [r5, #12]
    674a:	4628      	mov	r0, r5
    674c:	4631      	mov	r1, r6
    674e:	4622      	mov	r2, r4
    6750:	e8bd 4070 	ldmia.w	sp!, {r4, r5, r6, lr}
    6754:	f000 bc00 	b.w	6f58 <_putc_r>
    6758:	00009698 	.word	0x00009698
    675c:	000096b8 	.word	0x000096b8
    6760:	000096d8 	.word	0x000096d8

00006764 <fputc>:
    6764:	460a      	mov	r2, r1
    6766:	4903      	ldr	r1, [pc, #12]	; (6774 <fputc+0x10>)
    6768:	4603      	mov	r3, r0
    676a:	6808      	ldr	r0, [r1, #0]
    676c:	4619      	mov	r1, r3
    676e:	f7ff bfd5 	b.w	671c <_fputc_r>
    6772:	bf00      	nop
    6774:	10000134 	.word	0x10000134

00006778 <_free_r>:
    6778:	b530      	push	{r4, r5, lr}
    677a:	2900      	cmp	r1, #0
    677c:	d03c      	beq.n	67f8 <_free_r+0x80>
    677e:	f851 2c04 	ldr.w	r2, [r1, #-4]
    6782:	1f0b      	subs	r3, r1, #4
    6784:	491d      	ldr	r1, [pc, #116]	; (67fc <_free_r+0x84>)
    6786:	2a00      	cmp	r2, #0
    6788:	bfb8      	it	lt
    678a:	189b      	addlt	r3, r3, r2
    678c:	680a      	ldr	r2, [r1, #0]
    678e:	b912      	cbnz	r2, 6796 <_free_r+0x1e>
    6790:	605a      	str	r2, [r3, #4]
    6792:	600b      	str	r3, [r1, #0]
    6794:	bd30      	pop	{r4, r5, pc}
    6796:	4293      	cmp	r3, r2
    6798:	d20e      	bcs.n	67b8 <_free_r+0x40>
    679a:	6819      	ldr	r1, [r3, #0]
    679c:	1858      	adds	r0, r3, r1
    679e:	4290      	cmp	r0, r2
    67a0:	d103      	bne.n	67aa <_free_r+0x32>
    67a2:	585a      	ldr	r2, [r3, r1]
    67a4:	1889      	adds	r1, r1, r2
    67a6:	6842      	ldr	r2, [r0, #4]
    67a8:	6019      	str	r1, [r3, #0]
    67aa:	4814      	ldr	r0, [pc, #80]	; (67fc <_free_r+0x84>)
    67ac:	605a      	str	r2, [r3, #4]
    67ae:	6003      	str	r3, [r0, #0]
    67b0:	bd30      	pop	{r4, r5, pc}
    67b2:	4299      	cmp	r1, r3
    67b4:	d803      	bhi.n	67be <_free_r+0x46>
    67b6:	460a      	mov	r2, r1
    67b8:	6851      	ldr	r1, [r2, #4]
    67ba:	2900      	cmp	r1, #0
    67bc:	d1f9      	bne.n	67b2 <_free_r+0x3a>
    67be:	6814      	ldr	r4, [r2, #0]
    67c0:	1915      	adds	r5, r2, r4
    67c2:	429d      	cmp	r5, r3
    67c4:	d10a      	bne.n	67dc <_free_r+0x64>
    67c6:	6818      	ldr	r0, [r3, #0]
    67c8:	1823      	adds	r3, r4, r0
    67ca:	18d0      	adds	r0, r2, r3
    67cc:	4288      	cmp	r0, r1
    67ce:	6013      	str	r3, [r2, #0]
    67d0:	d112      	bne.n	67f8 <_free_r+0x80>
    67d2:	6808      	ldr	r0, [r1, #0]
    67d4:	181b      	adds	r3, r3, r0
    67d6:	6013      	str	r3, [r2, #0]
    67d8:	684b      	ldr	r3, [r1, #4]
    67da:	e00c      	b.n	67f6 <_free_r+0x7e>
    67dc:	d902      	bls.n	67e4 <_free_r+0x6c>
    67de:	230c      	movs	r3, #12
    67e0:	6003      	str	r3, [r0, #0]
    67e2:	bd30      	pop	{r4, r5, pc}
    67e4:	6818      	ldr	r0, [r3, #0]
    67e6:	181c      	adds	r4, r3, r0
    67e8:	428c      	cmp	r4, r1
    67ea:	d103      	bne.n	67f4 <_free_r+0x7c>
    67ec:	680c      	ldr	r4, [r1, #0]
    67ee:	6849      	ldr	r1, [r1, #4]
    67f0:	1900      	adds	r0, r0, r4
    67f2:	6018      	str	r0, [r3, #0]
    67f4:	6059      	str	r1, [r3, #4]
    67f6:	6053      	str	r3, [r2, #4]
    67f8:	bd30      	pop	{r4, r5, pc}
    67fa:	bf00      	nop
    67fc:	10000978 	.word	0x10000978

00006800 <_fseek_r>:
    6800:	e92d 41f0 	stmdb	sp!, {r4, r5, r6, r7, r8, lr}
    6804:	460c      	mov	r4, r1
    6806:	4690      	mov	r8, r2
    6808:	461e      	mov	r6, r3
    680a:	4605      	mov	r5, r0
    680c:	b118      	cbz	r0, 6816 <_fseek_r+0x16>
    680e:	6983      	ldr	r3, [r0, #24]
    6810:	b90b      	cbnz	r3, 6816 <_fseek_r+0x16>
    6812:	f7ff febd 	bl	6590 <__sinit>
    6816:	4843      	ldr	r0, [pc, #268]	; (6924 <_fseek_r+0x124>)
    6818:	4284      	cmp	r4, r0
    681a:	d101      	bne.n	6820 <_fseek_r+0x20>
    681c:	686c      	ldr	r4, [r5, #4]
    681e:	e008      	b.n	6832 <_fseek_r+0x32>
    6820:	4941      	ldr	r1, [pc, #260]	; (6928 <_fseek_r+0x128>)
    6822:	428c      	cmp	r4, r1
    6824:	d101      	bne.n	682a <_fseek_r+0x2a>
    6826:	68ac      	ldr	r4, [r5, #8]
    6828:	e003      	b.n	6832 <_fseek_r+0x32>
    682a:	4a40      	ldr	r2, [pc, #256]	; (692c <_fseek_r+0x12c>)
    682c:	4294      	cmp	r4, r2
    682e:	bf08      	it	eq
    6830:	68ec      	ldreq	r4, [r5, #12]
    6832:	f7ff ff15 	bl	6660 <__sfp_lock_acquire>
    6836:	89a7      	ldrh	r7, [r4, #12]
    6838:	f407 7384 	and.w	r3, r7, #264	; 0x108
    683c:	f5b3 7f84 	cmp.w	r3, #264	; 0x108
    6840:	d103      	bne.n	684a <_fseek_r+0x4a>
    6842:	4628      	mov	r0, r5
    6844:	4621      	mov	r1, r4
    6846:	f7ff fd65 	bl	6314 <_fflush_r>
    684a:	6ae7      	ldr	r7, [r4, #44]	; 0x2c
    684c:	201d      	movs	r0, #29
    684e:	2f00      	cmp	r7, #0
    6850:	d030      	beq.n	68b4 <_fseek_r+0xb4>
    6852:	2e01      	cmp	r6, #1
    6854:	d005      	beq.n	6862 <_fseek_r+0x62>
    6856:	2e02      	cmp	r6, #2
    6858:	d033      	beq.n	68c2 <_fseek_r+0xc2>
    685a:	2e00      	cmp	r6, #0
    685c:	d031      	beq.n	68c2 <_fseek_r+0xc2>
    685e:	2016      	movs	r0, #22
    6860:	e028      	b.n	68b4 <_fseek_r+0xb4>
    6862:	4621      	mov	r1, r4
    6864:	4628      	mov	r0, r5
    6866:	f7ff fd55 	bl	6314 <_fflush_r>
    686a:	89a1      	ldrh	r1, [r4, #12]
    686c:	f401 5280 	and.w	r2, r1, #4096	; 0x1000
    6870:	b212      	sxth	r2, r2
    6872:	b10a      	cbz	r2, 6878 <_fseek_r+0x78>
    6874:	6d60      	ldr	r0, [r4, #84]	; 0x54
    6876:	e005      	b.n	6884 <_fseek_r+0x84>
    6878:	4633      	mov	r3, r6
    687a:	4628      	mov	r0, r5
    687c:	6a21      	ldr	r1, [r4, #32]
    687e:	47b8      	blx	r7
    6880:	1c43      	adds	r3, r0, #1
    6882:	d018      	beq.n	68b6 <_fseek_r+0xb6>
    6884:	89a6      	ldrh	r6, [r4, #12]
    6886:	f006 0304 	and.w	r3, r6, #4
    688a:	b219      	sxth	r1, r3
    688c:	b131      	cbz	r1, 689c <_fseek_r+0x9c>
    688e:	6866      	ldr	r6, [r4, #4]
    6890:	6b63      	ldr	r3, [r4, #52]	; 0x34
    6892:	1b80      	subs	r0, r0, r6
    6894:	b15b      	cbz	r3, 68ae <_fseek_r+0xae>
    6896:	6c21      	ldr	r1, [r4, #64]	; 0x40
    6898:	1a40      	subs	r0, r0, r1
    689a:	e008      	b.n	68ae <_fseek_r+0xae>
    689c:	f006 0208 	and.w	r2, r6, #8
    68a0:	b216      	sxth	r6, r2
    68a2:	b126      	cbz	r6, 68ae <_fseek_r+0xae>
    68a4:	6823      	ldr	r3, [r4, #0]
    68a6:	b113      	cbz	r3, 68ae <_fseek_r+0xae>
    68a8:	6921      	ldr	r1, [r4, #16]
    68aa:	1a5a      	subs	r2, r3, r1
    68ac:	1880      	adds	r0, r0, r2
    68ae:	4480      	add	r8, r0
    68b0:	2600      	movs	r6, #0
    68b2:	e006      	b.n	68c2 <_fseek_r+0xc2>
    68b4:	6028      	str	r0, [r5, #0]
    68b6:	f7ff fed4 	bl	6662 <__sfp_lock_release>
    68ba:	f04f 30ff 	mov.w	r0, #4294967295	; 0xffffffff
    68be:	e8bd 81f0 	ldmia.w	sp!, {r4, r5, r6, r7, r8, pc}
    68c2:	6920      	ldr	r0, [r4, #16]
    68c4:	b918      	cbnz	r0, 68ce <_fseek_r+0xce>
    68c6:	4628      	mov	r0, r5
    68c8:	4621      	mov	r1, r4
    68ca:	f000 fa3d 	bl	6d48 <__smakebuf_r>
    68ce:	4628      	mov	r0, r5
    68d0:	4621      	mov	r1, r4
    68d2:	f7ff fd1f 	bl	6314 <_fflush_r>
    68d6:	2800      	cmp	r0, #0
    68d8:	d1ed      	bne.n	68b6 <_fseek_r+0xb6>
    68da:	4628      	mov	r0, r5
    68dc:	6a21      	ldr	r1, [r4, #32]
    68de:	4642      	mov	r2, r8
    68e0:	4633      	mov	r3, r6
    68e2:	47b8      	blx	r7
    68e4:	3001      	adds	r0, #1
    68e6:	d0e6      	beq.n	68b6 <_fseek_r+0xb6>
    68e8:	6b61      	ldr	r1, [r4, #52]	; 0x34
    68ea:	b141      	cbz	r1, 68fe <_fseek_r+0xfe>
    68ec:	f104 0244 	add.w	r2, r4, #68	; 0x44
    68f0:	4291      	cmp	r1, r2
    68f2:	d002      	beq.n	68fa <_fseek_r+0xfa>
    68f4:	4628      	mov	r0, r5
    68f6:	f7ff ff3f 	bl	6778 <_free_r>
    68fa:	2500      	movs	r5, #0
    68fc:	6365      	str	r5, [r4, #52]	; 0x34
    68fe:	89a1      	ldrh	r1, [r4, #12]
    6900:	6923      	ldr	r3, [r4, #16]
    6902:	2500      	movs	r5, #0
    6904:	f021 0020 	bic.w	r0, r1, #32
    6908:	6023      	str	r3, [r4, #0]
    690a:	81a0      	strh	r0, [r4, #12]
    690c:	4629      	mov	r1, r5
    690e:	2208      	movs	r2, #8
    6910:	6065      	str	r5, [r4, #4]
    6912:	f104 005c 	add.w	r0, r4, #92	; 0x5c
    6916:	f000 fb05 	bl	6f24 <memset>
    691a:	f7ff fea2 	bl	6662 <__sfp_lock_release>
    691e:	4628      	mov	r0, r5
    6920:	e8bd 81f0 	ldmia.w	sp!, {r4, r5, r6, r7, r8, pc}
    6924:	00009698 	.word	0x00009698
    6928:	000096b8 	.word	0x000096b8
    692c:	000096d8 	.word	0x000096d8

00006930 <__sfvwrite_r>:
    6930:	6893      	ldr	r3, [r2, #8]
    6932:	e92d 4ff7 	stmdb	sp!, {r0, r1, r2, r4, r5, r6, r7, r8, r9, r10, r11, lr}
    6936:	4606      	mov	r6, r0
    6938:	460c      	mov	r4, r1
    693a:	4691      	mov	r9, r2
    693c:	b90b      	cbnz	r3, 6942 <__sfvwrite_r+0x12>
    693e:	2000      	movs	r0, #0
    6940:	e14f      	b.n	6be2 <__sfvwrite_r+0x2b2>
    6942:	8988      	ldrh	r0, [r1, #12]
    6944:	f000 0108 	and.w	r1, r0, #8
    6948:	b20a      	sxth	r2, r1
    694a:	b10a      	cbz	r2, 6950 <__sfvwrite_r+0x20>
    694c:	6923      	ldr	r3, [r4, #16]
    694e:	b95b      	cbnz	r3, 6968 <__sfvwrite_r+0x38>
    6950:	4630      	mov	r0, r6
    6952:	4621      	mov	r1, r4
    6954:	f001 fd7c 	bl	8450 <__swsetup_r>
    6958:	b130      	cbz	r0, 6968 <__sfvwrite_r+0x38>
    695a:	89a1      	ldrh	r1, [r4, #12]
    695c:	2209      	movs	r2, #9
    695e:	f041 0040 	orr.w	r0, r1, #64	; 0x40
    6962:	81a0      	strh	r0, [r4, #12]
    6964:	6032      	str	r2, [r6, #0]
    6966:	e13a      	b.n	6bde <__sfvwrite_r+0x2ae>
    6968:	f8b4 a00c 	ldrh.w	r10, [r4, #12]
    696c:	f8d9 8000 	ldr.w	r8, [r9]
    6970:	f00a 0c02 	and.w	r12, r10, #2
    6974:	fa0f f58c 	sxth.w	r5, r12
    6978:	b315      	cbz	r5, 69c0 <__sfvwrite_r+0x90>
    697a:	f04f 0a00 	mov.w	r10, #0
    697e:	4657      	mov	r7, r10
    6980:	b937      	cbnz	r7, 6990 <__sfvwrite_r+0x60>
    6982:	f8d8 a000 	ldr.w	r10, [r8]
    6986:	f8d8 7004 	ldr.w	r7, [r8, #4]
    698a:	f108 0808 	add.w	r8, r8, #8
    698e:	e7f7      	b.n	6980 <__sfvwrite_r+0x50>
    6990:	f5b7 6f80 	cmp.w	r7, #1024	; 0x400
    6994:	bf34      	ite	cc
    6996:	463b      	movcc	r3, r7
    6998:	f44f 6380 	movcs.w	r3, #1024	; 0x400
    699c:	4630      	mov	r0, r6
    699e:	6a21      	ldr	r1, [r4, #32]
    69a0:	4652      	mov	r2, r10
    69a2:	6aa5      	ldr	r5, [r4, #40]	; 0x28
    69a4:	47a8      	blx	r5
    69a6:	2800      	cmp	r0, #0
    69a8:	f340 8115 	ble.w	6bd6 <__sfvwrite_r+0x2a6>
    69ac:	f8d9 1008 	ldr.w	r1, [r9, #8]
    69b0:	4482      	add	r10, r0
    69b2:	1a3f      	subs	r7, r7, r0
    69b4:	1a08      	subs	r0, r1, r0
    69b6:	f8c9 0008 	str.w	r0, [r9, #8]
    69ba:	2800      	cmp	r0, #0
    69bc:	d1e0      	bne.n	6980 <__sfvwrite_r+0x50>
    69be:	e7be      	b.n	693e <__sfvwrite_r+0xe>
    69c0:	f01a 0a01 	ands.w	r10, r10, #1
    69c4:	d004      	beq.n	69d0 <__sfvwrite_r+0xa0>
    69c6:	46ab      	mov	r11, r5
    69c8:	9501      	str	r5, [sp, #4]
    69ca:	462f      	mov	r7, r5
    69cc:	46aa      	mov	r10, r5
    69ce:	e0c7      	b.n	6b60 <__sfvwrite_r+0x230>
    69d0:	4655      	mov	r5, r10
    69d2:	b935      	cbnz	r5, 69e2 <__sfvwrite_r+0xb2>
    69d4:	f8d8 a000 	ldr.w	r10, [r8]
    69d8:	f8d8 5004 	ldr.w	r5, [r8, #4]
    69dc:	f108 0808 	add.w	r8, r8, #8
    69e0:	e7f7      	b.n	69d2 <__sfvwrite_r+0xa2>
    69e2:	89a2      	ldrh	r2, [r4, #12]
    69e4:	f8d4 b008 	ldr.w	r11, [r4, #8]
    69e8:	f402 7000 	and.w	r0, r2, #512	; 0x200
    69ec:	b203      	sxth	r3, r0
    69ee:	2b00      	cmp	r3, #0
    69f0:	d052      	beq.n	6a98 <__sfvwrite_r+0x168>
    69f2:	455d      	cmp	r5, r11
    69f4:	d340      	bcc.n	6a78 <__sfvwrite_r+0x148>
    69f6:	f412 6f90 	tst.w	r2, #1152	; 0x480
    69fa:	d03b      	beq.n	6a74 <__sfvwrite_r+0x144>
    69fc:	6963      	ldr	r3, [r4, #20]
    69fe:	f04f 0b03 	mov.w	r11, #3
    6a02:	fb0b f303 	mul.w	r3, r11, r3
    6a06:	6921      	ldr	r1, [r4, #16]
    6a08:	6827      	ldr	r7, [r4, #0]
    6a0a:	2002      	movs	r0, #2
    6a0c:	1a7f      	subs	r7, r7, r1
    6a0e:	fb93 fcf0 	sdiv	r12, r3, r0
    6a12:	1c7b      	adds	r3, r7, #1
    6a14:	1958      	adds	r0, r3, r5
    6a16:	f402 6280 	and.w	r2, r2, #1024	; 0x400
    6a1a:	4584      	cmp	r12, r0
    6a1c:	bf28      	it	cs
    6a1e:	4660      	movcs	r0, r12
    6a20:	b213      	sxth	r3, r2
    6a22:	9001      	str	r0, [sp, #4]
    6a24:	4630      	mov	r0, r6
    6a26:	b17b      	cbz	r3, 6a48 <__sfvwrite_r+0x118>
    6a28:	9901      	ldr	r1, [sp, #4]
    6a2a:	f000 f9f1 	bl	6e10 <_malloc_r>
    6a2e:	4683      	mov	r11, r0
    6a30:	b198      	cbz	r0, 6a5a <__sfvwrite_r+0x12a>
    6a32:	6921      	ldr	r1, [r4, #16]
    6a34:	463a      	mov	r2, r7
    6a36:	f000 fa52 	bl	6ede <memcpy>
    6a3a:	89a1      	ldrh	r1, [r4, #12]
    6a3c:	f421 6090 	bic.w	r0, r1, #1152	; 0x480
    6a40:	f040 0280 	orr.w	r2, r0, #128	; 0x80
    6a44:	81a2      	strh	r2, [r4, #12]
    6a46:	e00b      	b.n	6a60 <__sfvwrite_r+0x130>
    6a48:	9a01      	ldr	r2, [sp, #4]
    6a4a:	f000 faeb 	bl	7024 <_realloc_r>
    6a4e:	4683      	mov	r11, r0
    6a50:	b930      	cbnz	r0, 6a60 <__sfvwrite_r+0x130>
    6a52:	4630      	mov	r0, r6
    6a54:	6921      	ldr	r1, [r4, #16]
    6a56:	f7ff fe8f 	bl	6778 <_free_r>
    6a5a:	230c      	movs	r3, #12
    6a5c:	6033      	str	r3, [r6, #0]
    6a5e:	e0ba      	b.n	6bd6 <__sfvwrite_r+0x2a6>
    6a60:	9901      	ldr	r1, [sp, #4]
    6a62:	eb0b 0307 	add.w	r3, r11, r7
    6a66:	1bcf      	subs	r7, r1, r7
    6a68:	f8c4 b010 	str.w	r11, [r4, #16]
    6a6c:	6023      	str	r3, [r4, #0]
    6a6e:	6161      	str	r1, [r4, #20]
    6a70:	46ab      	mov	r11, r5
    6a72:	60a7      	str	r7, [r4, #8]
    6a74:	455d      	cmp	r5, r11
    6a76:	d200      	bcs.n	6a7a <__sfvwrite_r+0x14a>
    6a78:	46ab      	mov	r11, r5
    6a7a:	465a      	mov	r2, r11
    6a7c:	4651      	mov	r1, r10
    6a7e:	6820      	ldr	r0, [r4, #0]
    6a80:	f000 fa36 	bl	6ef0 <memmove>
    6a84:	68a0      	ldr	r0, [r4, #8]
    6a86:	6823      	ldr	r3, [r4, #0]
    6a88:	ebcb 0200 	rsb	r2, r11, r0
    6a8c:	eb03 010b 	add.w	r1, r3, r11
    6a90:	60a2      	str	r2, [r4, #8]
    6a92:	6021      	str	r1, [r4, #0]
    6a94:	46ab      	mov	r11, r5
    6a96:	e02a      	b.n	6aee <__sfvwrite_r+0x1be>
    6a98:	6820      	ldr	r0, [r4, #0]
    6a9a:	6921      	ldr	r1, [r4, #16]
    6a9c:	4288      	cmp	r0, r1
    6a9e:	d90f      	bls.n	6ac0 <__sfvwrite_r+0x190>
    6aa0:	455d      	cmp	r5, r11
    6aa2:	d90d      	bls.n	6ac0 <__sfvwrite_r+0x190>
    6aa4:	4651      	mov	r1, r10
    6aa6:	465a      	mov	r2, r11
    6aa8:	f000 fa22 	bl	6ef0 <memmove>
    6aac:	6822      	ldr	r2, [r4, #0]
    6aae:	4621      	mov	r1, r4
    6ab0:	eb02 000b 	add.w	r0, r2, r11
    6ab4:	6020      	str	r0, [r4, #0]
    6ab6:	4630      	mov	r0, r6
    6ab8:	f7ff fc2c 	bl	6314 <_fflush_r>
    6abc:	b1b8      	cbz	r0, 6aee <__sfvwrite_r+0x1be>
    6abe:	e08a      	b.n	6bd6 <__sfvwrite_r+0x2a6>
    6ac0:	6963      	ldr	r3, [r4, #20]
    6ac2:	429d      	cmp	r5, r3
    6ac4:	d308      	bcc.n	6ad8 <__sfvwrite_r+0x1a8>
    6ac6:	6aa7      	ldr	r7, [r4, #40]	; 0x28
    6ac8:	4630      	mov	r0, r6
    6aca:	6a21      	ldr	r1, [r4, #32]
    6acc:	4652      	mov	r2, r10
    6ace:	47b8      	blx	r7
    6ad0:	f1b0 0b00 	subs.w	r11, r0, #0
    6ad4:	dc0b      	bgt.n	6aee <__sfvwrite_r+0x1be>
    6ad6:	e07e      	b.n	6bd6 <__sfvwrite_r+0x2a6>
    6ad8:	4651      	mov	r1, r10
    6ada:	462a      	mov	r2, r5
    6adc:	f000 fa08 	bl	6ef0 <memmove>
    6ae0:	68a2      	ldr	r2, [r4, #8]
    6ae2:	6823      	ldr	r3, [r4, #0]
    6ae4:	1b50      	subs	r0, r2, r5
    6ae6:	1959      	adds	r1, r3, r5
    6ae8:	46ab      	mov	r11, r5
    6aea:	60a0      	str	r0, [r4, #8]
    6aec:	6021      	str	r1, [r4, #0]
    6aee:	f8d9 0008 	ldr.w	r0, [r9, #8]
    6af2:	44da      	add	r10, r11
    6af4:	ebcb 0200 	rsb	r2, r11, r0
    6af8:	ebcb 0505 	rsb	r5, r11, r5
    6afc:	f8c9 2008 	str.w	r2, [r9, #8]
    6b00:	2a00      	cmp	r2, #0
    6b02:	f47f af66 	bne.w	69d2 <__sfvwrite_r+0xa2>
    6b06:	e71a      	b.n	693e <__sfvwrite_r+0xe>
    6b08:	9801      	ldr	r0, [sp, #4]
    6b0a:	2800      	cmp	r0, #0
    6b0c:	d032      	beq.n	6b74 <__sfvwrite_r+0x244>
    6b0e:	6820      	ldr	r0, [r4, #0]
    6b10:	6921      	ldr	r1, [r4, #16]
    6b12:	45d3      	cmp	r11, r10
    6b14:	bf34      	ite	cc
    6b16:	465b      	movcc	r3, r11
    6b18:	4653      	movcs	r3, r10
    6b1a:	4288      	cmp	r0, r1
    6b1c:	68a5      	ldr	r5, [r4, #8]
    6b1e:	f8d4 e014 	ldr.w	lr, [r4, #20]
    6b22:	d937      	bls.n	6b94 <__sfvwrite_r+0x264>
    6b24:	4475      	add	r5, lr
    6b26:	42ab      	cmp	r3, r5
    6b28:	dd34      	ble.n	6b94 <__sfvwrite_r+0x264>
    6b2a:	4639      	mov	r1, r7
    6b2c:	462a      	mov	r2, r5
    6b2e:	f000 f9df 	bl	6ef0 <memmove>
    6b32:	6820      	ldr	r0, [r4, #0]
    6b34:	4621      	mov	r1, r4
    6b36:	1943      	adds	r3, r0, r5
    6b38:	6023      	str	r3, [r4, #0]
    6b3a:	4630      	mov	r0, r6
    6b3c:	f7ff fbea 	bl	6314 <_fflush_r>
    6b40:	2800      	cmp	r0, #0
    6b42:	d148      	bne.n	6bd6 <__sfvwrite_r+0x2a6>
    6b44:	ebbb 0b05 	subs.w	r11, r11, r5
    6b48:	d03d      	beq.n	6bc6 <__sfvwrite_r+0x296>
    6b4a:	f8d9 2008 	ldr.w	r2, [r9, #8]
    6b4e:	197f      	adds	r7, r7, r5
    6b50:	ebc5 0a0a 	rsb	r10, r5, r10
    6b54:	1b55      	subs	r5, r2, r5
    6b56:	f8c9 5008 	str.w	r5, [r9, #8]
    6b5a:	2d00      	cmp	r5, #0
    6b5c:	f43f aeef 	beq.w	693e <__sfvwrite_r+0xe>
    6b60:	f1ba 0f00 	cmp.w	r10, #0
    6b64:	d1d0      	bne.n	6b08 <__sfvwrite_r+0x1d8>
    6b66:	2100      	movs	r1, #0
    6b68:	e898 0480 	ldmia.w	r8, {r7, r10}
    6b6c:	9101      	str	r1, [sp, #4]
    6b6e:	f108 0808 	add.w	r8, r8, #8
    6b72:	e7f5      	b.n	6b60 <__sfvwrite_r+0x230>
    6b74:	4638      	mov	r0, r7
    6b76:	210a      	movs	r1, #10
    6b78:	4652      	mov	r2, r10
    6b7a:	f000 f993 	bl	6ea4 <memchr>
    6b7e:	b120      	cbz	r0, 6b8a <__sfvwrite_r+0x25a>
    6b80:	f100 0101 	add.w	r1, r0, #1
    6b84:	ebc7 0b01 	rsb	r11, r7, r1
    6b88:	e001      	b.n	6b8e <__sfvwrite_r+0x25e>
    6b8a:	f10a 0b01 	add.w	r11, r10, #1
    6b8e:	2201      	movs	r2, #1
    6b90:	9201      	str	r2, [sp, #4]
    6b92:	e7bc      	b.n	6b0e <__sfvwrite_r+0x1de>
    6b94:	4573      	cmp	r3, lr
    6b96:	db08      	blt.n	6baa <__sfvwrite_r+0x27a>
    6b98:	6aa5      	ldr	r5, [r4, #40]	; 0x28
    6b9a:	4630      	mov	r0, r6
    6b9c:	6a21      	ldr	r1, [r4, #32]
    6b9e:	463a      	mov	r2, r7
    6ba0:	4673      	mov	r3, lr
    6ba2:	47a8      	blx	r5
    6ba4:	1e05      	subs	r5, r0, #0
    6ba6:	dccd      	bgt.n	6b44 <__sfvwrite_r+0x214>
    6ba8:	e015      	b.n	6bd6 <__sfvwrite_r+0x2a6>
    6baa:	461a      	mov	r2, r3
    6bac:	4639      	mov	r1, r7
    6bae:	9300      	str	r3, [sp, #0]
    6bb0:	f000 f99e 	bl	6ef0 <memmove>
    6bb4:	9b00      	ldr	r3, [sp, #0]
    6bb6:	6825      	ldr	r5, [r4, #0]
    6bb8:	68a0      	ldr	r0, [r4, #8]
    6bba:	18e9      	adds	r1, r5, r3
    6bbc:	1ac2      	subs	r2, r0, r3
    6bbe:	60a2      	str	r2, [r4, #8]
    6bc0:	6021      	str	r1, [r4, #0]
    6bc2:	461d      	mov	r5, r3
    6bc4:	e7be      	b.n	6b44 <__sfvwrite_r+0x214>
    6bc6:	4630      	mov	r0, r6
    6bc8:	4621      	mov	r1, r4
    6bca:	f7ff fba3 	bl	6314 <_fflush_r>
    6bce:	b910      	cbnz	r0, 6bd6 <__sfvwrite_r+0x2a6>
    6bd0:	f8cd b004 	str.w	r11, [sp, #4]
    6bd4:	e7b9      	b.n	6b4a <__sfvwrite_r+0x21a>
    6bd6:	89a2      	ldrh	r2, [r4, #12]
    6bd8:	f042 0340 	orr.w	r3, r2, #64	; 0x40
    6bdc:	81a3      	strh	r3, [r4, #12]
    6bde:	f04f 30ff 	mov.w	r0, #4294967295	; 0xffffffff
    6be2:	e8bd 8ffe 	ldmia.w	sp!, {r1, r2, r3, r4, r5, r6, r7, r8, r9, r10, r11, pc}

00006be6 <_fwalk>:
    6be6:	e92d 41f0 	stmdb	sp!, {r4, r5, r6, r7, r8, lr}
    6bea:	4604      	mov	r4, r0
    6bec:	4688      	mov	r8, r1
    6bee:	f7ff fd37 	bl	6660 <__sfp_lock_acquire>
    6bf2:	344c      	adds	r4, #76	; 0x4c
    6bf4:	2600      	movs	r6, #0
    6bf6:	b18c      	cbz	r4, 6c1c <_fwalk+0x36>
    6bf8:	68a5      	ldr	r5, [r4, #8]
    6bfa:	6867      	ldr	r7, [r4, #4]
    6bfc:	3f01      	subs	r7, #1
    6bfe:	d40b      	bmi.n	6c18 <_fwalk+0x32>
    6c00:	f9b5 300c 	ldrsh.w	r3, [r5, #12]
    6c04:	b133      	cbz	r3, 6c14 <_fwalk+0x2e>
    6c06:	f9b5 000e 	ldrsh.w	r0, [r5, #14]
    6c0a:	1c43      	adds	r3, r0, #1
    6c0c:	d002      	beq.n	6c14 <_fwalk+0x2e>
    6c0e:	4628      	mov	r0, r5
    6c10:	47c0      	blx	r8
    6c12:	4306      	orrs	r6, r0
    6c14:	3568      	adds	r5, #104	; 0x68
    6c16:	e7f1      	b.n	6bfc <_fwalk+0x16>
    6c18:	6824      	ldr	r4, [r4, #0]
    6c1a:	e7ec      	b.n	6bf6 <_fwalk+0x10>
    6c1c:	f7ff fd21 	bl	6662 <__sfp_lock_release>
    6c20:	4630      	mov	r0, r6
    6c22:	e8bd 81f0 	ldmia.w	sp!, {r4, r5, r6, r7, r8, pc}

00006c26 <_fwalk_reent>:
    6c26:	e92d 43f8 	stmdb	sp!, {r3, r4, r5, r6, r7, r8, r9, lr}
    6c2a:	4680      	mov	r8, r0
    6c2c:	4689      	mov	r9, r1
    6c2e:	f7ff fd17 	bl	6660 <__sfp_lock_acquire>
    6c32:	f108 044c 	add.w	r4, r8, #76	; 0x4c
    6c36:	2600      	movs	r6, #0
    6c38:	b194      	cbz	r4, 6c60 <_fwalk_reent+0x3a>
    6c3a:	68a5      	ldr	r5, [r4, #8]
    6c3c:	6867      	ldr	r7, [r4, #4]
    6c3e:	3f01      	subs	r7, #1
    6c40:	d40c      	bmi.n	6c5c <_fwalk_reent+0x36>
    6c42:	f9b5 300c 	ldrsh.w	r3, [r5, #12]
    6c46:	b13b      	cbz	r3, 6c58 <_fwalk_reent+0x32>
    6c48:	f9b5 000e 	ldrsh.w	r0, [r5, #14]
    6c4c:	1c43      	adds	r3, r0, #1
    6c4e:	d003      	beq.n	6c58 <_fwalk_reent+0x32>
    6c50:	4640      	mov	r0, r8
    6c52:	4629      	mov	r1, r5
    6c54:	47c8      	blx	r9
    6c56:	4306      	orrs	r6, r0
    6c58:	3568      	adds	r5, #104	; 0x68
    6c5a:	e7f0      	b.n	6c3e <_fwalk_reent+0x18>
    6c5c:	6824      	ldr	r4, [r4, #0]
    6c5e:	e7eb      	b.n	6c38 <_fwalk_reent+0x12>
    6c60:	f7ff fcff 	bl	6662 <__sfp_lock_release>
    6c64:	4630      	mov	r0, r6
    6c66:	e8bd 83f8 	ldmia.w	sp!, {r3, r4, r5, r6, r7, r8, r9, pc}
	...

00006c6c <_fwrite_r>:
    6c6c:	e92d 41f0 	stmdb	sp!, {r4, r5, r6, r7, r8, lr}
    6c70:	fb02 f603 	mul.w	r6, r2, r3
    6c74:	b086      	sub	sp, #24
    6c76:	461f      	mov	r7, r3
    6c78:	9101      	str	r1, [sp, #4]
    6c7a:	ab01      	add	r3, sp, #4
    6c7c:	2101      	movs	r1, #1
    6c7e:	4690      	mov	r8, r2
    6c80:	9c0c      	ldr	r4, [sp, #48]	; 0x30
    6c82:	9602      	str	r6, [sp, #8]
    6c84:	9605      	str	r6, [sp, #20]
    6c86:	9303      	str	r3, [sp, #12]
    6c88:	9104      	str	r1, [sp, #16]
    6c8a:	4605      	mov	r5, r0
    6c8c:	b118      	cbz	r0, 6c96 <_fwrite_r+0x2a>
    6c8e:	6982      	ldr	r2, [r0, #24]
    6c90:	b90a      	cbnz	r2, 6c96 <_fwrite_r+0x2a>
    6c92:	f7ff fc7d 	bl	6590 <__sinit>
    6c96:	480e      	ldr	r0, [pc, #56]	; (6cd0 <_fwrite_r+0x64>)
    6c98:	4284      	cmp	r4, r0
    6c9a:	d101      	bne.n	6ca0 <_fwrite_r+0x34>
    6c9c:	686c      	ldr	r4, [r5, #4]
    6c9e:	e008      	b.n	6cb2 <_fwrite_r+0x46>
    6ca0:	4b0c      	ldr	r3, [pc, #48]	; (6cd4 <_fwrite_r+0x68>)
    6ca2:	429c      	cmp	r4, r3
    6ca4:	d101      	bne.n	6caa <_fwrite_r+0x3e>
    6ca6:	68ac      	ldr	r4, [r5, #8]
    6ca8:	e003      	b.n	6cb2 <_fwrite_r+0x46>
    6caa:	490b      	ldr	r1, [pc, #44]	; (6cd8 <_fwrite_r+0x6c>)
    6cac:	428c      	cmp	r4, r1
    6cae:	bf08      	it	eq
    6cb0:	68ec      	ldreq	r4, [r5, #12]
    6cb2:	4628      	mov	r0, r5
    6cb4:	4621      	mov	r1, r4
    6cb6:	aa03      	add	r2, sp, #12
    6cb8:	f7ff fe3a 	bl	6930 <__sfvwrite_r>
    6cbc:	b118      	cbz	r0, 6cc6 <_fwrite_r+0x5a>
    6cbe:	9f05      	ldr	r7, [sp, #20]
    6cc0:	1bf2      	subs	r2, r6, r7
    6cc2:	fbb2 f7f8 	udiv	r7, r2, r8
    6cc6:	4638      	mov	r0, r7
    6cc8:	b006      	add	sp, #24
    6cca:	e8bd 81f0 	ldmia.w	sp!, {r4, r5, r6, r7, r8, pc}
    6cce:	bf00      	nop
    6cd0:	00009698 	.word	0x00009698
    6cd4:	000096b8 	.word	0x000096b8
    6cd8:	000096d8 	.word	0x000096d8

00006cdc <fwrite>:
    6cdc:	b573      	push	{r0, r1, r4, r5, r6, lr}
    6cde:	9300      	str	r3, [sp, #0]
    6ce0:	4b05      	ldr	r3, [pc, #20]	; (6cf8 <fwrite+0x1c>)
    6ce2:	4606      	mov	r6, r0
    6ce4:	460d      	mov	r5, r1
    6ce6:	4614      	mov	r4, r2
    6ce8:	6818      	ldr	r0, [r3, #0]
    6cea:	4631      	mov	r1, r6
    6cec:	462a      	mov	r2, r5
    6cee:	4623      	mov	r3, r4
    6cf0:	f7ff ffbc 	bl	6c6c <_fwrite_r>
    6cf4:	bd7c      	pop	{r2, r3, r4, r5, r6, pc}
    6cf6:	bf00      	nop
    6cf8:	10000134 	.word	0x10000134

00006cfc <__libc_init_array>:
    6cfc:	b538      	push	{r3, r4, r5, lr}
    6cfe:	4d0e      	ldr	r5, [pc, #56]	; (6d38 <__libc_init_array+0x3c>)
    6d00:	4b0e      	ldr	r3, [pc, #56]	; (6d3c <__libc_init_array+0x40>)
    6d02:	2400      	movs	r4, #0
    6d04:	1ae8      	subs	r0, r5, r3
    6d06:	1085      	asrs	r5, r0, #2
    6d08:	42ac      	cmp	r4, r5
    6d0a:	d005      	beq.n	6d18 <__libc_init_array+0x1c>
    6d0c:	490b      	ldr	r1, [pc, #44]	; (6d3c <__libc_init_array+0x40>)
    6d0e:	f851 2024 	ldr.w	r2, [r1, r4, lsl #2]
    6d12:	4790      	blx	r2
    6d14:	3401      	adds	r4, #1
    6d16:	e7f7      	b.n	6d08 <__libc_init_array+0xc>
    6d18:	f001 fe30 	bl	897c <_init>
    6d1c:	4908      	ldr	r1, [pc, #32]	; (6d40 <__libc_init_array+0x44>)
    6d1e:	4a09      	ldr	r2, [pc, #36]	; (6d44 <__libc_init_array+0x48>)
    6d20:	1a54      	subs	r4, r2, r1
    6d22:	10a5      	asrs	r5, r4, #2
    6d24:	2400      	movs	r4, #0
    6d26:	42ac      	cmp	r4, r5
    6d28:	d005      	beq.n	6d36 <__libc_init_array+0x3a>
    6d2a:	4b05      	ldr	r3, [pc, #20]	; (6d40 <__libc_init_array+0x44>)
    6d2c:	f853 0024 	ldr.w	r0, [r3, r4, lsl #2]
    6d30:	4780      	blx	r0
    6d32:	3401      	adds	r4, #1
    6d34:	e7f7      	b.n	6d26 <__libc_init_array+0x2a>
    6d36:	bd38      	pop	{r3, r4, r5, pc}
    6d38:	1000013c 	.word	0x1000013c
    6d3c:	1000013c 	.word	0x1000013c
    6d40:	1000013c 	.word	0x1000013c
    6d44:	10000144 	.word	0x10000144

00006d48 <__smakebuf_r>:
    6d48:	b5f0      	push	{r4, r5, r6, r7, lr}
    6d4a:	898b      	ldrh	r3, [r1, #12]
    6d4c:	460c      	mov	r4, r1
    6d4e:	f003 0102 	and.w	r1, r3, #2
    6d52:	b20a      	sxth	r2, r1
    6d54:	b091      	sub	sp, #68	; 0x44
    6d56:	4605      	mov	r5, r0
    6d58:	bb52      	cbnz	r2, 6db0 <__smakebuf_r+0x68>
    6d5a:	f9b4 100e 	ldrsh.w	r1, [r4, #14]
    6d5e:	2900      	cmp	r1, #0
    6d60:	da0a      	bge.n	6d78 <__smakebuf_r+0x30>
    6d62:	89a1      	ldrh	r1, [r4, #12]
    6d64:	2700      	movs	r7, #0
    6d66:	f001 0280 	and.w	r2, r1, #128	; 0x80
    6d6a:	b210      	sxth	r0, r2
    6d6c:	42b8      	cmp	r0, r7
    6d6e:	bf14      	ite	ne
    6d70:	2640      	movne	r6, #64	; 0x40
    6d72:	f44f 6680 	moveq.w	r6, #1024	; 0x400
    6d76:	e00e      	b.n	6d96 <__smakebuf_r+0x4e>
    6d78:	aa01      	add	r2, sp, #4
    6d7a:	f001 fc5f 	bl	863c <_fstat_r>
    6d7e:	2800      	cmp	r0, #0
    6d80:	dbef      	blt.n	6d62 <__smakebuf_r+0x1a>
    6d82:	9f02      	ldr	r7, [sp, #8]
    6d84:	f407 4070 	and.w	r0, r7, #61440	; 0xf000
    6d88:	f5b0 5600 	subs.w	r6, r0, #8192	; 0x2000
    6d8c:	4273      	negs	r3, r6
    6d8e:	eb53 0706 	adcs.w	r7, r3, r6
    6d92:	f44f 6680 	mov.w	r6, #1024	; 0x400
    6d96:	4628      	mov	r0, r5
    6d98:	4631      	mov	r1, r6
    6d9a:	f000 f839 	bl	6e10 <_malloc_r>
    6d9e:	b970      	cbnz	r0, 6dbe <__smakebuf_r+0x76>
    6da0:	89a1      	ldrh	r1, [r4, #12]
    6da2:	f401 7200 	and.w	r2, r1, #512	; 0x200
    6da6:	b210      	sxth	r0, r2
    6da8:	b9e8      	cbnz	r0, 6de6 <__smakebuf_r+0x9e>
    6daa:	f041 0302 	orr.w	r3, r1, #2
    6dae:	81a3      	strh	r3, [r4, #12]
    6db0:	f104 0147 	add.w	r1, r4, #71	; 0x47
    6db4:	2201      	movs	r2, #1
    6db6:	6021      	str	r1, [r4, #0]
    6db8:	6121      	str	r1, [r4, #16]
    6dba:	6162      	str	r2, [r4, #20]
    6dbc:	e013      	b.n	6de6 <__smakebuf_r+0x9e>
    6dbe:	89a1      	ldrh	r1, [r4, #12]
    6dc0:	4b0a      	ldr	r3, [pc, #40]	; (6dec <__smakebuf_r+0xa4>)
    6dc2:	f041 0280 	orr.w	r2, r1, #128	; 0x80
    6dc6:	62ab      	str	r3, [r5, #40]	; 0x28
    6dc8:	81a2      	strh	r2, [r4, #12]
    6dca:	6020      	str	r0, [r4, #0]
    6dcc:	6120      	str	r0, [r4, #16]
    6dce:	6166      	str	r6, [r4, #20]
    6dd0:	b14f      	cbz	r7, 6de6 <__smakebuf_r+0x9e>
    6dd2:	4628      	mov	r0, r5
    6dd4:	f9b4 100e 	ldrsh.w	r1, [r4, #14]
    6dd8:	f001 fc42 	bl	8660 <_isatty_r>
    6ddc:	b118      	cbz	r0, 6de6 <__smakebuf_r+0x9e>
    6dde:	89a0      	ldrh	r0, [r4, #12]
    6de0:	f040 0301 	orr.w	r3, r0, #1
    6de4:	81a3      	strh	r3, [r4, #12]
    6de6:	b011      	add	sp, #68	; 0x44
    6de8:	bdf0      	pop	{r4, r5, r6, r7, pc}
    6dea:	bf00      	nop
    6dec:	000064e9 	.word	0x000064e9

00006df0 <malloc>:
    6df0:	4b02      	ldr	r3, [pc, #8]	; (6dfc <malloc+0xc>)
    6df2:	4601      	mov	r1, r0
    6df4:	6818      	ldr	r0, [r3, #0]
    6df6:	f000 b80b 	b.w	6e10 <_malloc_r>
    6dfa:	bf00      	nop
    6dfc:	10000134 	.word	0x10000134

00006e00 <free>:
    6e00:	4b02      	ldr	r3, [pc, #8]	; (6e0c <free+0xc>)
    6e02:	4601      	mov	r1, r0
    6e04:	6818      	ldr	r0, [r3, #0]
    6e06:	f7ff bcb7 	b.w	6778 <_free_r>
    6e0a:	bf00      	nop
    6e0c:	10000134 	.word	0x10000134

00006e10 <_malloc_r>:
    6e10:	b570      	push	{r4, r5, r6, lr}
    6e12:	1ccd      	adds	r5, r1, #3
    6e14:	f025 0503 	bic.w	r5, r5, #3
    6e18:	3508      	adds	r5, #8
    6e1a:	2d0c      	cmp	r5, #12
    6e1c:	bf38      	it	cc
    6e1e:	250c      	movcc	r5, #12
    6e20:	2d00      	cmp	r5, #0
    6e22:	4606      	mov	r6, r0
    6e24:	db2d      	blt.n	6e82 <_malloc_r+0x72>
    6e26:	428d      	cmp	r5, r1
    6e28:	d32b      	bcc.n	6e82 <_malloc_r+0x72>
    6e2a:	4b1d      	ldr	r3, [pc, #116]	; (6ea0 <_malloc_r+0x90>)
    6e2c:	681b      	ldr	r3, [r3, #0]
    6e2e:	461c      	mov	r4, r3
    6e30:	b19c      	cbz	r4, 6e5a <_malloc_r+0x4a>
    6e32:	6822      	ldr	r2, [r4, #0]
    6e34:	1b50      	subs	r0, r2, r5
    6e36:	d40d      	bmi.n	6e54 <_malloc_r+0x44>
    6e38:	280b      	cmp	r0, #11
    6e3a:	d902      	bls.n	6e42 <_malloc_r+0x32>
    6e3c:	6020      	str	r0, [r4, #0]
    6e3e:	1824      	adds	r4, r4, r0
    6e40:	e017      	b.n	6e72 <_malloc_r+0x62>
    6e42:	42a3      	cmp	r3, r4
    6e44:	d103      	bne.n	6e4e <_malloc_r+0x3e>
    6e46:	6860      	ldr	r0, [r4, #4]
    6e48:	4a15      	ldr	r2, [pc, #84]	; (6ea0 <_malloc_r+0x90>)
    6e4a:	6010      	str	r0, [r2, #0]
    6e4c:	e01d      	b.n	6e8a <_malloc_r+0x7a>
    6e4e:	6861      	ldr	r1, [r4, #4]
    6e50:	6059      	str	r1, [r3, #4]
    6e52:	e01a      	b.n	6e8a <_malloc_r+0x7a>
    6e54:	4623      	mov	r3, r4
    6e56:	6864      	ldr	r4, [r4, #4]
    6e58:	e7ea      	b.n	6e30 <_malloc_r+0x20>
    6e5a:	4629      	mov	r1, r5
    6e5c:	4630      	mov	r0, r6
    6e5e:	f000 f9bb 	bl	71d8 <_sbrk_r>
    6e62:	1c43      	adds	r3, r0, #1
    6e64:	4601      	mov	r1, r0
    6e66:	d00c      	beq.n	6e82 <_malloc_r+0x72>
    6e68:	1ccc      	adds	r4, r1, #3
    6e6a:	f024 0403 	bic.w	r4, r4, #3
    6e6e:	428c      	cmp	r4, r1
    6e70:	d101      	bne.n	6e76 <_malloc_r+0x66>
    6e72:	6025      	str	r5, [r4, #0]
    6e74:	e009      	b.n	6e8a <_malloc_r+0x7a>
    6e76:	4630      	mov	r0, r6
    6e78:	1a61      	subs	r1, r4, r1
    6e7a:	f000 f9ad 	bl	71d8 <_sbrk_r>
    6e7e:	3001      	adds	r0, #1
    6e80:	d1f7      	bne.n	6e72 <_malloc_r+0x62>
    6e82:	200c      	movs	r0, #12
    6e84:	6030      	str	r0, [r6, #0]
    6e86:	2000      	movs	r0, #0
    6e88:	bd70      	pop	{r4, r5, r6, pc}
    6e8a:	f104 010b 	add.w	r1, r4, #11
    6e8e:	1d23      	adds	r3, r4, #4
    6e90:	f021 0007 	bic.w	r0, r1, #7
    6e94:	1ac3      	subs	r3, r0, r3
    6e96:	d002      	beq.n	6e9e <_malloc_r+0x8e>
    6e98:	425a      	negs	r2, r3
    6e9a:	50e2      	str	r2, [r4, r3]
    6e9c:	bd70      	pop	{r4, r5, r6, pc}
    6e9e:	bd70      	pop	{r4, r5, r6, pc}
    6ea0:	10000978 	.word	0x10000978

00006ea4 <memchr>:
    6ea4:	b510      	push	{r4, lr}
    6ea6:	b2c9      	uxtb	r1, r1
    6ea8:	4603      	mov	r3, r0
    6eaa:	1882      	adds	r2, r0, r2
    6eac:	4293      	cmp	r3, r2
    6eae:	4618      	mov	r0, r3
    6eb0:	d004      	beq.n	6ebc <memchr+0x18>
    6eb2:	7804      	ldrb	r4, [r0, #0]
    6eb4:	3301      	adds	r3, #1
    6eb6:	428c      	cmp	r4, r1
    6eb8:	d1f8      	bne.n	6eac <memchr+0x8>
    6eba:	e000      	b.n	6ebe <memchr+0x1a>
    6ebc:	2000      	movs	r0, #0
    6ebe:	bd10      	pop	{r4, pc}

00006ec0 <memcmp>:
    6ec0:	b530      	push	{r4, r5, lr}
    6ec2:	2300      	movs	r3, #0
    6ec4:	4293      	cmp	r3, r2
    6ec6:	d008      	beq.n	6eda <memcmp+0x1a>
    6ec8:	5cc5      	ldrb	r5, [r0, r3]
    6eca:	3301      	adds	r3, #1
    6ecc:	18cc      	adds	r4, r1, r3
    6ece:	f814 4c01 	ldrb.w	r4, [r4, #-1]
    6ed2:	42a5      	cmp	r5, r4
    6ed4:	d0f6      	beq.n	6ec4 <memcmp+0x4>
    6ed6:	1b28      	subs	r0, r5, r4
    6ed8:	bd30      	pop	{r4, r5, pc}
    6eda:	2000      	movs	r0, #0
    6edc:	bd30      	pop	{r4, r5, pc}

00006ede <memcpy>:
    6ede:	b510      	push	{r4, lr}
    6ee0:	2300      	movs	r3, #0
    6ee2:	4293      	cmp	r3, r2
    6ee4:	d003      	beq.n	6eee <memcpy+0x10>
    6ee6:	5ccc      	ldrb	r4, [r1, r3]
    6ee8:	54c4      	strb	r4, [r0, r3]
    6eea:	3301      	adds	r3, #1
    6eec:	e7f9      	b.n	6ee2 <memcpy+0x4>
    6eee:	bd10      	pop	{r4, pc}

00006ef0 <memmove>:
    6ef0:	4281      	cmp	r1, r0
    6ef2:	b570      	push	{r4, r5, r6, lr}
    6ef4:	d20e      	bcs.n	6f14 <memmove+0x24>
    6ef6:	188c      	adds	r4, r1, r2
    6ef8:	42a0      	cmp	r0, r4
    6efa:	d20b      	bcs.n	6f14 <memmove+0x24>
    6efc:	1885      	adds	r5, r0, r2
    6efe:	4613      	mov	r3, r2
    6f00:	f113 33ff 	adds.w	r3, r3, #4294967295	; 0xffffffff
    6f04:	d305      	bcc.n	6f12 <memmove+0x22>
    6f06:	4251      	negs	r1, r2
    6f08:	1866      	adds	r6, r4, r1
    6f0a:	5cf6      	ldrb	r6, [r6, r3]
    6f0c:	1869      	adds	r1, r5, r1
    6f0e:	54ce      	strb	r6, [r1, r3]
    6f10:	e7f6      	b.n	6f00 <memmove+0x10>
    6f12:	bd70      	pop	{r4, r5, r6, pc}
    6f14:	2300      	movs	r3, #0
    6f16:	4293      	cmp	r3, r2
    6f18:	d003      	beq.n	6f22 <memmove+0x32>
    6f1a:	5ccc      	ldrb	r4, [r1, r3]
    6f1c:	54c4      	strb	r4, [r0, r3]
    6f1e:	3301      	adds	r3, #1
    6f20:	e7f9      	b.n	6f16 <memmove+0x26>
    6f22:	bd70      	pop	{r4, r5, r6, pc}

00006f24 <memset>:
    6f24:	1882      	adds	r2, r0, r2
    6f26:	4603      	mov	r3, r0
    6f28:	4293      	cmp	r3, r2
    6f2a:	d002      	beq.n	6f32 <memset+0xe>
    6f2c:	f803 1b01 	strb.w	r1, [r3], #1
    6f30:	e7fa      	b.n	6f28 <memset+0x4>
    6f32:	4770      	bx	lr

00006f34 <_open_r>:
    6f34:	b538      	push	{r3, r4, r5, lr}
    6f36:	4c07      	ldr	r4, [pc, #28]	; (6f54 <_open_r+0x20>)
    6f38:	4605      	mov	r5, r0
    6f3a:	2000      	movs	r0, #0
    6f3c:	6020      	str	r0, [r4, #0]
    6f3e:	4608      	mov	r0, r1
    6f40:	4611      	mov	r1, r2
    6f42:	461a      	mov	r2, r3
    6f44:	f7fc ffee 	bl	3f24 <_open>
    6f48:	1c43      	adds	r3, r0, #1
    6f4a:	d102      	bne.n	6f52 <_open_r+0x1e>
    6f4c:	6823      	ldr	r3, [r4, #0]
    6f4e:	b103      	cbz	r3, 6f52 <_open_r+0x1e>
    6f50:	602b      	str	r3, [r5, #0]
    6f52:	bd38      	pop	{r3, r4, r5, pc}
    6f54:	10000988 	.word	0x10000988

00006f58 <_putc_r>:
    6f58:	b570      	push	{r4, r5, r6, lr}
    6f5a:	460e      	mov	r6, r1
    6f5c:	4614      	mov	r4, r2
    6f5e:	4605      	mov	r5, r0
    6f60:	b118      	cbz	r0, 6f6a <_putc_r+0x12>
    6f62:	6983      	ldr	r3, [r0, #24]
    6f64:	b90b      	cbnz	r3, 6f6a <_putc_r+0x12>
    6f66:	f7ff fb13 	bl	6590 <__sinit>
    6f6a:	4817      	ldr	r0, [pc, #92]	; (6fc8 <_putc_r+0x70>)
    6f6c:	4284      	cmp	r4, r0
    6f6e:	d101      	bne.n	6f74 <_putc_r+0x1c>
    6f70:	686c      	ldr	r4, [r5, #4]
    6f72:	e008      	b.n	6f86 <_putc_r+0x2e>
    6f74:	4915      	ldr	r1, [pc, #84]	; (6fcc <_putc_r+0x74>)
    6f76:	428c      	cmp	r4, r1
    6f78:	d101      	bne.n	6f7e <_putc_r+0x26>
    6f7a:	68ac      	ldr	r4, [r5, #8]
    6f7c:	e003      	b.n	6f86 <_putc_r+0x2e>
    6f7e:	4a14      	ldr	r2, [pc, #80]	; (6fd0 <_putc_r+0x78>)
    6f80:	4294      	cmp	r4, r2
    6f82:	bf08      	it	eq
    6f84:	68ec      	ldreq	r4, [r5, #12]
    6f86:	68a3      	ldr	r3, [r4, #8]
    6f88:	1e58      	subs	r0, r3, #1
    6f8a:	2800      	cmp	r0, #0
    6f8c:	60a0      	str	r0, [r4, #8]
    6f8e:	da14      	bge.n	6fba <_putc_r+0x62>
    6f90:	69a3      	ldr	r3, [r4, #24]
    6f92:	4298      	cmp	r0, r3
    6f94:	db0a      	blt.n	6fac <_putc_r+0x54>
    6f96:	6820      	ldr	r0, [r4, #0]
    6f98:	7006      	strb	r6, [r0, #0]
    6f9a:	6822      	ldr	r2, [r4, #0]
    6f9c:	7811      	ldrb	r1, [r2, #0]
    6f9e:	290a      	cmp	r1, #10
    6fa0:	d002      	beq.n	6fa8 <_putc_r+0x50>
    6fa2:	4608      	mov	r0, r1
    6fa4:	3201      	adds	r2, #1
    6fa6:	e00d      	b.n	6fc4 <_putc_r+0x6c>
    6fa8:	4628      	mov	r0, r5
    6faa:	e001      	b.n	6fb0 <_putc_r+0x58>
    6fac:	4628      	mov	r0, r5
    6fae:	4631      	mov	r1, r6
    6fb0:	4622      	mov	r2, r4
    6fb2:	e8bd 4070 	ldmia.w	sp!, {r4, r5, r6, lr}
    6fb6:	f001 b9df 	b.w	8378 <__swbuf_r>
    6fba:	6821      	ldr	r1, [r4, #0]
    6fbc:	700e      	strb	r6, [r1, #0]
    6fbe:	6822      	ldr	r2, [r4, #0]
    6fc0:	f812 0b01 	ldrb.w	r0, [r2], #1
    6fc4:	6022      	str	r2, [r4, #0]
    6fc6:	bd70      	pop	{r4, r5, r6, pc}
    6fc8:	00009698 	.word	0x00009698
    6fcc:	000096b8 	.word	0x000096b8
    6fd0:	000096d8 	.word	0x000096d8

00006fd4 <puts>:
    6fd4:	4b0d      	ldr	r3, [pc, #52]	; (700c <puts+0x38>)
    6fd6:	b510      	push	{r4, lr}
    6fd8:	4604      	mov	r4, r0
    6fda:	6818      	ldr	r0, [r3, #0]
    6fdc:	b118      	cbz	r0, 6fe6 <puts+0x12>
    6fde:	6982      	ldr	r2, [r0, #24]
    6fe0:	b90a      	cbnz	r2, 6fe6 <puts+0x12>
    6fe2:	f7ff fad5 	bl	6590 <__sinit>
    6fe6:	3c01      	subs	r4, #1
    6fe8:	4808      	ldr	r0, [pc, #32]	; (700c <puts+0x38>)
    6fea:	f814 1f01 	ldrb.w	r1, [r4, #1]!
    6fee:	6800      	ldr	r0, [r0, #0]
    6ff0:	b129      	cbz	r1, 6ffe <puts+0x2a>
    6ff2:	6882      	ldr	r2, [r0, #8]
    6ff4:	f7ff ffb0 	bl	6f58 <_putc_r>
    6ff8:	1c42      	adds	r2, r0, #1
    6ffa:	d1f5      	bne.n	6fe8 <puts+0x14>
    6ffc:	bd10      	pop	{r4, pc}
    6ffe:	6882      	ldr	r2, [r0, #8]
    7000:	210a      	movs	r1, #10
    7002:	e8bd 4010 	ldmia.w	sp!, {r4, lr}
    7006:	f7ff bfa7 	b.w	6f58 <_putc_r>
    700a:	bf00      	nop
    700c:	10000134 	.word	0x10000134

00007010 <realloc>:
    7010:	460a      	mov	r2, r1
    7012:	4903      	ldr	r1, [pc, #12]	; (7020 <realloc+0x10>)
    7014:	4603      	mov	r3, r0
    7016:	6808      	ldr	r0, [r1, #0]
    7018:	4619      	mov	r1, r3
    701a:	f000 b803 	b.w	7024 <_realloc_r>
    701e:	bf00      	nop
    7020:	10000134 	.word	0x10000134

00007024 <_realloc_r>:
    7024:	b5f8      	push	{r3, r4, r5, r6, r7, lr}
    7026:	4606      	mov	r6, r0
    7028:	4615      	mov	r5, r2
    702a:	460c      	mov	r4, r1
    702c:	b921      	cbnz	r1, 7038 <_realloc_r+0x14>
    702e:	4611      	mov	r1, r2
    7030:	e8bd 40f8 	ldmia.w	sp!, {r3, r4, r5, r6, r7, lr}
    7034:	f7ff beec 	b.w	6e10 <_malloc_r>
    7038:	b91a      	cbnz	r2, 7042 <_realloc_r+0x1e>
    703a:	f7ff fb9d 	bl	6778 <_free_r>
    703e:	462c      	mov	r4, r5
    7040:	e012      	b.n	7068 <_realloc_r+0x44>
    7042:	f001 fb2f 	bl	86a4 <_malloc_usable_size_r>
    7046:	42a8      	cmp	r0, r5
    7048:	d20e      	bcs.n	7068 <_realloc_r+0x44>
    704a:	4630      	mov	r0, r6
    704c:	4629      	mov	r1, r5
    704e:	f7ff fedf 	bl	6e10 <_malloc_r>
    7052:	4607      	mov	r7, r0
    7054:	b138      	cbz	r0, 7066 <_realloc_r+0x42>
    7056:	4621      	mov	r1, r4
    7058:	462a      	mov	r2, r5
    705a:	f7ff ff40 	bl	6ede <memcpy>
    705e:	4630      	mov	r0, r6
    7060:	4621      	mov	r1, r4
    7062:	f7ff fb89 	bl	6778 <_free_r>
    7066:	463c      	mov	r4, r7
    7068:	4620      	mov	r0, r4
    706a:	bdf8      	pop	{r3, r4, r5, r6, r7, pc}

0000706c <lflush>:
    706c:	8983      	ldrh	r3, [r0, #12]
    706e:	f003 0109 	and.w	r1, r3, #9
    7072:	2909      	cmp	r1, #9
    7074:	d101      	bne.n	707a <lflush+0xe>
    7076:	f7ff b9f1 	b.w	645c <fflush>
    707a:	2000      	movs	r0, #0
    707c:	4770      	bx	lr
	...

00007080 <__srefill_r>:
    7080:	b570      	push	{r4, r5, r6, lr}
    7082:	460c      	mov	r4, r1
    7084:	4605      	mov	r5, r0
    7086:	b118      	cbz	r0, 7090 <__srefill_r+0x10>
    7088:	6983      	ldr	r3, [r0, #24]
    708a:	b90b      	cbnz	r3, 7090 <__srefill_r+0x10>
    708c:	f7ff fa80 	bl	6590 <__sinit>
    7090:	4836      	ldr	r0, [pc, #216]	; (716c <__srefill_r+0xec>)
    7092:	4284      	cmp	r4, r0
    7094:	d101      	bne.n	709a <__srefill_r+0x1a>
    7096:	686c      	ldr	r4, [r5, #4]
    7098:	e008      	b.n	70ac <__srefill_r+0x2c>
    709a:	4935      	ldr	r1, [pc, #212]	; (7170 <__srefill_r+0xf0>)
    709c:	428c      	cmp	r4, r1
    709e:	d101      	bne.n	70a4 <__srefill_r+0x24>
    70a0:	68ac      	ldr	r4, [r5, #8]
    70a2:	e003      	b.n	70ac <__srefill_r+0x2c>
    70a4:	4a33      	ldr	r2, [pc, #204]	; (7174 <__srefill_r+0xf4>)
    70a6:	4294      	cmp	r4, r2
    70a8:	bf08      	it	eq
    70aa:	68ec      	ldreq	r4, [r5, #12]
    70ac:	2300      	movs	r3, #0
    70ae:	6063      	str	r3, [r4, #4]
    70b0:	89a3      	ldrh	r3, [r4, #12]
    70b2:	f003 0020 	and.w	r0, r3, #32
    70b6:	b201      	sxth	r1, r0
    70b8:	2900      	cmp	r1, #0
    70ba:	d152      	bne.n	7162 <__srefill_r+0xe2>
    70bc:	f003 0204 	and.w	r2, r3, #4
    70c0:	b210      	sxth	r0, r2
    70c2:	b9d8      	cbnz	r0, 70fc <__srefill_r+0x7c>
    70c4:	f003 0010 	and.w	r0, r3, #16
    70c8:	b201      	sxth	r1, r0
    70ca:	b911      	cbnz	r1, 70d2 <__srefill_r+0x52>
    70cc:	2209      	movs	r2, #9
    70ce:	602a      	str	r2, [r5, #0]
    70d0:	e044      	b.n	715c <__srefill_r+0xdc>
    70d2:	f003 0308 	and.w	r3, r3, #8
    70d6:	b21a      	sxth	r2, r3
    70d8:	b15a      	cbz	r2, 70f2 <__srefill_r+0x72>
    70da:	4628      	mov	r0, r5
    70dc:	4621      	mov	r1, r4
    70de:	f7ff f919 	bl	6314 <_fflush_r>
    70e2:	2800      	cmp	r0, #0
    70e4:	d13d      	bne.n	7162 <__srefill_r+0xe2>
    70e6:	89a6      	ldrh	r6, [r4, #12]
    70e8:	60a0      	str	r0, [r4, #8]
    70ea:	f026 0108 	bic.w	r1, r6, #8
    70ee:	81a1      	strh	r1, [r4, #12]
    70f0:	61a0      	str	r0, [r4, #24]
    70f2:	89a0      	ldrh	r0, [r4, #12]
    70f4:	f040 0304 	orr.w	r3, r0, #4
    70f8:	81a3      	strh	r3, [r4, #12]
    70fa:	e010      	b.n	711e <__srefill_r+0x9e>
    70fc:	6b61      	ldr	r1, [r4, #52]	; 0x34
    70fe:	b171      	cbz	r1, 711e <__srefill_r+0x9e>
    7100:	f104 0344 	add.w	r3, r4, #68	; 0x44
    7104:	4299      	cmp	r1, r3
    7106:	d002      	beq.n	710e <__srefill_r+0x8e>
    7108:	4628      	mov	r0, r5
    710a:	f7ff fb35 	bl	6778 <_free_r>
    710e:	6c21      	ldr	r1, [r4, #64]	; 0x40
    7110:	2000      	movs	r0, #0
    7112:	6360      	str	r0, [r4, #52]	; 0x34
    7114:	6061      	str	r1, [r4, #4]
    7116:	b111      	cbz	r1, 711e <__srefill_r+0x9e>
    7118:	6be2      	ldr	r2, [r4, #60]	; 0x3c
    711a:	6022      	str	r2, [r4, #0]
    711c:	bd70      	pop	{r4, r5, r6, pc}
    711e:	6922      	ldr	r2, [r4, #16]
    7120:	b91a      	cbnz	r2, 712a <__srefill_r+0xaa>
    7122:	4628      	mov	r0, r5
    7124:	4621      	mov	r1, r4
    7126:	f7ff fe0f 	bl	6d48 <__smakebuf_r>
    712a:	89a6      	ldrh	r6, [r4, #12]
    712c:	07b3      	lsls	r3, r6, #30
    712e:	d004      	beq.n	713a <__srefill_r+0xba>
    7130:	4911      	ldr	r1, [pc, #68]	; (7178 <__srefill_r+0xf8>)
    7132:	6808      	ldr	r0, [r1, #0]
    7134:	4911      	ldr	r1, [pc, #68]	; (717c <__srefill_r+0xfc>)
    7136:	f7ff fd56 	bl	6be6 <_fwalk>
    713a:	6922      	ldr	r2, [r4, #16]
    713c:	6a66      	ldr	r6, [r4, #36]	; 0x24
    713e:	6022      	str	r2, [r4, #0]
    7140:	4628      	mov	r0, r5
    7142:	6a21      	ldr	r1, [r4, #32]
    7144:	6963      	ldr	r3, [r4, #20]
    7146:	47b0      	blx	r6
    7148:	2800      	cmp	r0, #0
    714a:	6060      	str	r0, [r4, #4]
    714c:	dc0c      	bgt.n	7168 <__srefill_r+0xe8>
    714e:	89a3      	ldrh	r3, [r4, #12]
    7150:	d102      	bne.n	7158 <__srefill_r+0xd8>
    7152:	f043 0120 	orr.w	r1, r3, #32
    7156:	e003      	b.n	7160 <__srefill_r+0xe0>
    7158:	2000      	movs	r0, #0
    715a:	6060      	str	r0, [r4, #4]
    715c:	f043 0140 	orr.w	r1, r3, #64	; 0x40
    7160:	81a1      	strh	r1, [r4, #12]
    7162:	f04f 30ff 	mov.w	r0, #4294967295	; 0xffffffff
    7166:	bd70      	pop	{r4, r5, r6, pc}
    7168:	2000      	movs	r0, #0
    716a:	bd70      	pop	{r4, r5, r6, pc}
    716c:	00009698 	.word	0x00009698
    7170:	000096b8 	.word	0x000096b8
    7174:	000096d8 	.word	0x000096d8
    7178:	000096fc 	.word	0x000096fc
    717c:	0000706d 	.word	0x0000706d

00007180 <__srget_r>:
    7180:	b538      	push	{r3, r4, r5, lr}
    7182:	460c      	mov	r4, r1
    7184:	4605      	mov	r5, r0
    7186:	b118      	cbz	r0, 7190 <__srget_r+0x10>
    7188:	6983      	ldr	r3, [r0, #24]
    718a:	b90b      	cbnz	r3, 7190 <__srget_r+0x10>
    718c:	f7ff fa00 	bl	6590 <__sinit>
    7190:	480e      	ldr	r0, [pc, #56]	; (71cc <__srget_r+0x4c>)
    7192:	4284      	cmp	r4, r0
    7194:	d101      	bne.n	719a <__srget_r+0x1a>
    7196:	686c      	ldr	r4, [r5, #4]
    7198:	e008      	b.n	71ac <__srget_r+0x2c>
    719a:	490d      	ldr	r1, [pc, #52]	; (71d0 <__srget_r+0x50>)
    719c:	428c      	cmp	r4, r1
    719e:	d101      	bne.n	71a4 <__srget_r+0x24>
    71a0:	68ac      	ldr	r4, [r5, #8]
    71a2:	e003      	b.n	71ac <__srget_r+0x2c>
    71a4:	4a0b      	ldr	r2, [pc, #44]	; (71d4 <__srget_r+0x54>)
    71a6:	4294      	cmp	r4, r2
    71a8:	bf08      	it	eq
    71aa:	68ec      	ldreq	r4, [r5, #12]
    71ac:	4628      	mov	r0, r5
    71ae:	4621      	mov	r1, r4
    71b0:	f7ff ff66 	bl	7080 <__srefill_r>
    71b4:	b938      	cbnz	r0, 71c6 <__srget_r+0x46>
    71b6:	6863      	ldr	r3, [r4, #4]
    71b8:	6821      	ldr	r1, [r4, #0]
    71ba:	1e58      	subs	r0, r3, #1
    71bc:	6060      	str	r0, [r4, #4]
    71be:	f811 0b01 	ldrb.w	r0, [r1], #1
    71c2:	6021      	str	r1, [r4, #0]
    71c4:	bd38      	pop	{r3, r4, r5, pc}
    71c6:	f04f 30ff 	mov.w	r0, #4294967295	; 0xffffffff
    71ca:	bd38      	pop	{r3, r4, r5, pc}
    71cc:	00009698 	.word	0x00009698
    71d0:	000096b8 	.word	0x000096b8
    71d4:	000096d8 	.word	0x000096d8

000071d8 <_sbrk_r>:
    71d8:	b538      	push	{r3, r4, r5, lr}
    71da:	4c06      	ldr	r4, [pc, #24]	; (71f4 <_sbrk_r+0x1c>)
    71dc:	2300      	movs	r3, #0
    71de:	4605      	mov	r5, r0
    71e0:	4608      	mov	r0, r1
    71e2:	6023      	str	r3, [r4, #0]
    71e4:	f001 fbb6 	bl	8954 <_sbrk>
    71e8:	1c43      	adds	r3, r0, #1
    71ea:	d102      	bne.n	71f2 <_sbrk_r+0x1a>
    71ec:	6821      	ldr	r1, [r4, #0]
    71ee:	b101      	cbz	r1, 71f2 <_sbrk_r+0x1a>
    71f0:	6029      	str	r1, [r5, #0]
    71f2:	bd38      	pop	{r3, r4, r5, pc}
    71f4:	10000988 	.word	0x10000988

000071f8 <setbuf>:
    71f8:	2900      	cmp	r1, #0
    71fa:	bf0c      	ite	eq
    71fc:	2202      	moveq	r2, #2
    71fe:	2200      	movne	r2, #0
    7200:	f44f 6380 	mov.w	r3, #1024	; 0x400
    7204:	f000 b800 	b.w	7208 <setvbuf>

00007208 <setvbuf>:
    7208:	e92d 41f0 	stmdb	sp!, {r4, r5, r6, r7, r8, lr}
    720c:	461d      	mov	r5, r3
    720e:	4b42      	ldr	r3, [pc, #264]	; (7318 <setvbuf+0x110>)
    7210:	4604      	mov	r4, r0
    7212:	6818      	ldr	r0, [r3, #0]
    7214:	460e      	mov	r6, r1
    7216:	4617      	mov	r7, r2
    7218:	4698      	mov	r8, r3
    721a:	b118      	cbz	r0, 7224 <setvbuf+0x1c>
    721c:	6982      	ldr	r2, [r0, #24]
    721e:	b90a      	cbnz	r2, 7224 <setvbuf+0x1c>
    7220:	f7ff f9b6 	bl	6590 <__sinit>
    7224:	483d      	ldr	r0, [pc, #244]	; (731c <setvbuf+0x114>)
    7226:	4284      	cmp	r4, r0
    7228:	d103      	bne.n	7232 <setvbuf+0x2a>
    722a:	f8d8 3000 	ldr.w	r3, [r8]
    722e:	685c      	ldr	r4, [r3, #4]
    7230:	e00c      	b.n	724c <setvbuf+0x44>
    7232:	493b      	ldr	r1, [pc, #236]	; (7320 <setvbuf+0x118>)
    7234:	428c      	cmp	r4, r1
    7236:	d103      	bne.n	7240 <setvbuf+0x38>
    7238:	4837      	ldr	r0, [pc, #220]	; (7318 <setvbuf+0x110>)
    723a:	6801      	ldr	r1, [r0, #0]
    723c:	688c      	ldr	r4, [r1, #8]
    723e:	e005      	b.n	724c <setvbuf+0x44>
    7240:	4b38      	ldr	r3, [pc, #224]	; (7324 <setvbuf+0x11c>)
    7242:	429c      	cmp	r4, r3
    7244:	d102      	bne.n	724c <setvbuf+0x44>
    7246:	4c34      	ldr	r4, [pc, #208]	; (7318 <setvbuf+0x110>)
    7248:	6822      	ldr	r2, [r4, #0]
    724a:	68d4      	ldr	r4, [r2, #12]
    724c:	2f02      	cmp	r7, #2
    724e:	d85f      	bhi.n	7310 <setvbuf+0x108>
    7250:	2d00      	cmp	r5, #0
    7252:	db5d      	blt.n	7310 <setvbuf+0x108>
    7254:	f8df 80c0 	ldr.w	r8, [pc, #192]	; 7318 <setvbuf+0x110>
    7258:	4621      	mov	r1, r4
    725a:	f8d8 0000 	ldr.w	r0, [r8]
    725e:	f7ff f859 	bl	6314 <_fflush_r>
    7262:	89a0      	ldrh	r0, [r4, #12]
    7264:	2200      	movs	r2, #0
    7266:	f000 0180 	and.w	r1, r0, #128	; 0x80
    726a:	b20b      	sxth	r3, r1
    726c:	6062      	str	r2, [r4, #4]
    726e:	61a2      	str	r2, [r4, #24]
    7270:	b123      	cbz	r3, 727c <setvbuf+0x74>
    7272:	f8d8 0000 	ldr.w	r0, [r8]
    7276:	6921      	ldr	r1, [r4, #16]
    7278:	f7ff fa7e 	bl	6778 <_free_r>
    727c:	89a2      	ldrh	r2, [r4, #12]
    727e:	2f02      	cmp	r7, #2
    7280:	f022 0083 	bic.w	r0, r2, #131	; 0x83
    7284:	81a0      	strh	r0, [r4, #12]
    7286:	d012      	beq.n	72ae <setvbuf+0xa6>
    7288:	bb36      	cbnz	r6, 72d8 <setvbuf+0xd0>
    728a:	2d00      	cmp	r5, #0
    728c:	bf08      	it	eq
    728e:	f44f 6580 	moveq.w	r5, #1024	; 0x400
    7292:	4628      	mov	r0, r5
    7294:	f7ff fdac 	bl	6df0 <malloc>
    7298:	4606      	mov	r6, r0
    729a:	b9c8      	cbnz	r0, 72d0 <setvbuf+0xc8>
    729c:	f44f 6080 	mov.w	r0, #1024	; 0x400
    72a0:	f7ff fda6 	bl	6df0 <malloc>
    72a4:	4606      	mov	r6, r0
    72a6:	b988      	cbnz	r0, 72cc <setvbuf+0xc4>
    72a8:	f04f 30ff 	mov.w	r0, #4294967295	; 0xffffffff
    72ac:	e000      	b.n	72b0 <setvbuf+0xa8>
    72ae:	2000      	movs	r0, #0
    72b0:	89a2      	ldrh	r2, [r4, #12]
    72b2:	2300      	movs	r3, #0
    72b4:	f042 0102 	orr.w	r1, r2, #2
    72b8:	81a1      	strh	r1, [r4, #12]
    72ba:	f104 0247 	add.w	r2, r4, #71	; 0x47
    72be:	2101      	movs	r1, #1
    72c0:	60a3      	str	r3, [r4, #8]
    72c2:	6022      	str	r2, [r4, #0]
    72c4:	6122      	str	r2, [r4, #16]
    72c6:	6161      	str	r1, [r4, #20]
    72c8:	e8bd 81f0 	ldmia.w	sp!, {r4, r5, r6, r7, r8, pc}
    72cc:	f44f 6580 	mov.w	r5, #1024	; 0x400
    72d0:	89a1      	ldrh	r1, [r4, #12]
    72d2:	f041 0380 	orr.w	r3, r1, #128	; 0x80
    72d6:	81a3      	strh	r3, [r4, #12]
    72d8:	2f01      	cmp	r7, #1
    72da:	d105      	bne.n	72e8 <setvbuf+0xe0>
    72dc:	89a2      	ldrh	r2, [r4, #12]
    72de:	4269      	negs	r1, r5
    72e0:	f042 0001 	orr.w	r0, r2, #1
    72e4:	81a0      	strh	r0, [r4, #12]
    72e6:	61a1      	str	r1, [r4, #24]
    72e8:	4b0b      	ldr	r3, [pc, #44]	; (7318 <setvbuf+0x110>)
    72ea:	89a1      	ldrh	r1, [r4, #12]
    72ec:	6818      	ldr	r0, [r3, #0]
    72ee:	4a0e      	ldr	r2, [pc, #56]	; (7328 <setvbuf+0x120>)
    72f0:	f001 0308 	and.w	r3, r1, #8
    72f4:	6282      	str	r2, [r0, #40]	; 0x28
    72f6:	b218      	sxth	r0, r3
    72f8:	6026      	str	r6, [r4, #0]
    72fa:	6126      	str	r6, [r4, #16]
    72fc:	6165      	str	r5, [r4, #20]
    72fe:	b148      	cbz	r0, 7314 <setvbuf+0x10c>
    7300:	f011 0f03 	tst.w	r1, #3
    7304:	bf18      	it	ne
    7306:	2500      	movne	r5, #0
    7308:	60a5      	str	r5, [r4, #8]
    730a:	2000      	movs	r0, #0
    730c:	e8bd 81f0 	ldmia.w	sp!, {r4, r5, r6, r7, r8, pc}
    7310:	f04f 30ff 	mov.w	r0, #4294967295	; 0xffffffff
    7314:	e8bd 81f0 	ldmia.w	sp!, {r4, r5, r6, r7, r8, pc}
    7318:	10000134 	.word	0x10000134
    731c:	00009698 	.word	0x00009698
    7320:	000096b8 	.word	0x000096b8
    7324:	000096d8 	.word	0x000096d8
    7328:	000064e9 	.word	0x000064e9

0000732c <siprintf>:
    732c:	b40e      	push	{r1, r2, r3}
    732e:	b500      	push	{lr}
    7330:	b09c      	sub	sp, #112	; 0x70
    7332:	9002      	str	r0, [sp, #8]
    7334:	9006      	str	r0, [sp, #24]
    7336:	f06f 4000 	mvn.w	r0, #2147483648	; 0x80000000
    733a:	ab1d      	add	r3, sp, #116	; 0x74
    733c:	9004      	str	r0, [sp, #16]
    733e:	9007      	str	r0, [sp, #28]
    7340:	f44f 7102 	mov.w	r1, #520	; 0x208
    7344:	480a      	ldr	r0, [pc, #40]	; (7370 <siprintf+0x44>)
    7346:	f853 2b04 	ldr.w	r2, [r3], #4
    734a:	f8ad 1014 	strh.w	r1, [sp, #20]
    734e:	f64f 71ff 	movw	r1, #65535	; 0xffff
    7352:	f8ad 1016 	strh.w	r1, [sp, #22]
    7356:	6800      	ldr	r0, [r0, #0]
    7358:	a902      	add	r1, sp, #8
    735a:	9301      	str	r3, [sp, #4]
    735c:	f000 f8fc 	bl	7558 <_svfiprintf_r>
    7360:	9b02      	ldr	r3, [sp, #8]
    7362:	2200      	movs	r2, #0
    7364:	701a      	strb	r2, [r3, #0]
    7366:	b01c      	add	sp, #112	; 0x70
    7368:	f85d eb04 	ldr.w	lr, [sp], #4
    736c:	b003      	add	sp, #12
    736e:	4770      	bx	lr
    7370:	10000134 	.word	0x10000134

00007374 <siscanf>:
    7374:	b40e      	push	{r1, r2, r3}
    7376:	b530      	push	{r4, r5, lr}
    7378:	b09c      	sub	sp, #112	; 0x70
    737a:	ac1f      	add	r4, sp, #124	; 0x7c
    737c:	f44f 7201 	mov.w	r2, #516	; 0x204
    7380:	f854 5b04 	ldr.w	r5, [r4], #4
    7384:	f8ad 2014 	strh.w	r2, [sp, #20]
    7388:	9002      	str	r0, [sp, #8]
    738a:	9006      	str	r0, [sp, #24]
    738c:	f000 f86e 	bl	746c <strlen>
    7390:	4a0b      	ldr	r2, [pc, #44]	; (73c0 <siscanf+0x4c>)
    7392:	9003      	str	r0, [sp, #12]
    7394:	9007      	str	r0, [sp, #28]
    7396:	480b      	ldr	r0, [pc, #44]	; (73c4 <siscanf+0x50>)
    7398:	2100      	movs	r1, #0
    739a:	f64f 73ff 	movw	r3, #65535	; 0xffff
    739e:	900b      	str	r0, [sp, #44]	; 0x2c
    73a0:	910f      	str	r1, [sp, #60]	; 0x3c
    73a2:	9114      	str	r1, [sp, #80]	; 0x50
    73a4:	f8ad 3016 	strh.w	r3, [sp, #22]
    73a8:	6810      	ldr	r0, [r2, #0]
    73aa:	a902      	add	r1, sp, #8
    73ac:	462a      	mov	r2, r5
    73ae:	4623      	mov	r3, r4
    73b0:	9401      	str	r4, [sp, #4]
    73b2:	f000 fa25 	bl	7800 <__ssvfiscanf_r>
    73b6:	b01c      	add	sp, #112	; 0x70
    73b8:	e8bd 4030 	ldmia.w	sp!, {r4, r5, lr}
    73bc:	b003      	add	sp, #12
    73be:	4770      	bx	lr
    73c0:	10000134 	.word	0x10000134
    73c4:	000073eb 	.word	0x000073eb

000073c8 <__sread>:
    73c8:	b510      	push	{r4, lr}
    73ca:	460c      	mov	r4, r1
    73cc:	f9b1 100e 	ldrsh.w	r1, [r1, #14]
    73d0:	f001 f972 	bl	86b8 <_read_r>
    73d4:	2800      	cmp	r0, #0
    73d6:	db03      	blt.n	73e0 <__sread+0x18>
    73d8:	6d62      	ldr	r2, [r4, #84]	; 0x54
    73da:	1813      	adds	r3, r2, r0
    73dc:	6563      	str	r3, [r4, #84]	; 0x54
    73de:	bd10      	pop	{r4, pc}
    73e0:	89a3      	ldrh	r3, [r4, #12]
    73e2:	f423 5180 	bic.w	r1, r3, #4096	; 0x1000
    73e6:	81a1      	strh	r1, [r4, #12]
    73e8:	bd10      	pop	{r4, pc}

000073ea <__seofread>:
    73ea:	2000      	movs	r0, #0
    73ec:	4770      	bx	lr

000073ee <__swrite>:
    73ee:	e92d 41f0 	stmdb	sp!, {r4, r5, r6, r7, r8, lr}
    73f2:	461d      	mov	r5, r3
    73f4:	898b      	ldrh	r3, [r1, #12]
    73f6:	460c      	mov	r4, r1
    73f8:	f403 7180 	and.w	r1, r3, #256	; 0x100
    73fc:	4616      	mov	r6, r2
    73fe:	b20a      	sxth	r2, r1
    7400:	4607      	mov	r7, r0
    7402:	b12a      	cbz	r2, 7410 <__swrite+0x22>
    7404:	f9b4 100e 	ldrsh.w	r1, [r4, #14]
    7408:	2200      	movs	r2, #0
    740a:	2302      	movs	r3, #2
    740c:	f001 f938 	bl	8680 <_lseek_r>
    7410:	89a0      	ldrh	r0, [r4, #12]
    7412:	f9b4 100e 	ldrsh.w	r1, [r4, #14]
    7416:	f420 5380 	bic.w	r3, r0, #4096	; 0x1000
    741a:	81a3      	strh	r3, [r4, #12]
    741c:	4638      	mov	r0, r7
    741e:	4632      	mov	r2, r6
    7420:	462b      	mov	r3, r5
    7422:	e8bd 41f0 	ldmia.w	sp!, {r4, r5, r6, r7, r8, lr}
    7426:	f001 b801 	b.w	842c <_write_r>

0000742a <__sseek>:
    742a:	b510      	push	{r4, lr}
    742c:	460c      	mov	r4, r1
    742e:	f9b1 100e 	ldrsh.w	r1, [r1, #14]
    7432:	f001 f925 	bl	8680 <_lseek_r>
    7436:	1c43      	adds	r3, r0, #1
    7438:	89a3      	ldrh	r3, [r4, #12]
    743a:	d103      	bne.n	7444 <__sseek+0x1a>
    743c:	f423 5280 	bic.w	r2, r3, #4096	; 0x1000
    7440:	81a2      	strh	r2, [r4, #12]
    7442:	bd10      	pop	{r4, pc}
    7444:	f443 5180 	orr.w	r1, r3, #4096	; 0x1000
    7448:	81a1      	strh	r1, [r4, #12]
    744a:	6560      	str	r0, [r4, #84]	; 0x54
    744c:	bd10      	pop	{r4, pc}

0000744e <__sclose>:
    744e:	f9b1 100e 	ldrsh.w	r1, [r1, #14]
    7452:	f001 b8b1 	b.w	85b8 <_close_r>

00007456 <strcmp>:
    7456:	f810 2b01 	ldrb.w	r2, [r0], #1
    745a:	f811 3b01 	ldrb.w	r3, [r1], #1
    745e:	2a01      	cmp	r2, #1
    7460:	bf28      	it	cs
    7462:	429a      	cmpcs	r2, r3
    7464:	d0f7      	beq.n	7456 <strcmp>
    7466:	eba2 0003 	sub.w	r0, r2, r3
    746a:	4770      	bx	lr

0000746c <strlen>:
    746c:	4603      	mov	r3, r0
    746e:	f813 2b01 	ldrb.w	r2, [r3], #1
    7472:	2a00      	cmp	r2, #0
    7474:	d1fb      	bne.n	746e <strlen+0x2>
    7476:	1a18      	subs	r0, r3, r0
    7478:	3801      	subs	r0, #1
    747a:	4770      	bx	lr

0000747c <strncmp>:
    747c:	b570      	push	{r4, r5, r6, lr}
    747e:	b192      	cbz	r2, 74a6 <strncmp+0x2a>
    7480:	460b      	mov	r3, r1
    7482:	4605      	mov	r5, r0
    7484:	b91a      	cbnz	r2, 748e <strncmp+0x12>
    7486:	7828      	ldrb	r0, [r5, #0]
    7488:	7819      	ldrb	r1, [r3, #0]
    748a:	1a40      	subs	r0, r0, r1
    748c:	bd70      	pop	{r4, r5, r6, pc}
    748e:	f810 6b01 	ldrb.w	r6, [r0], #1
    7492:	781c      	ldrb	r4, [r3, #0]
    7494:	3101      	adds	r1, #1
    7496:	42b4      	cmp	r4, r6
    7498:	d1f5      	bne.n	7486 <strncmp+0xa>
    749a:	2a01      	cmp	r2, #1
    749c:	d0f3      	beq.n	7486 <strncmp+0xa>
    749e:	3a01      	subs	r2, #1
    74a0:	2c00      	cmp	r4, #0
    74a2:	d1ed      	bne.n	7480 <strncmp+0x4>
    74a4:	e7ef      	b.n	7486 <strncmp+0xa>
    74a6:	4610      	mov	r0, r2
    74a8:	bd70      	pop	{r4, r5, r6, pc}

000074aa <__ssputc_r>:
    74aa:	e92d 43f8 	stmdb	sp!, {r3, r4, r5, r6, r7, r8, r9, lr}
    74ae:	6893      	ldr	r3, [r2, #8]
    74b0:	4606      	mov	r6, r0
    74b2:	4689      	mov	r9, r1
    74b4:	4614      	mov	r4, r2
    74b6:	2b00      	cmp	r3, #0
    74b8:	d141      	bne.n	753e <__ssputc_r+0x94>
    74ba:	8992      	ldrh	r2, [r2, #12]
    74bc:	f412 6f90 	tst.w	r2, #1152	; 0x480
    74c0:	d03d      	beq.n	753e <__ssputc_r+0x94>
    74c2:	6961      	ldr	r1, [r4, #20]
    74c4:	2503      	movs	r5, #3
    74c6:	434d      	muls	r5, r1
    74c8:	6923      	ldr	r3, [r4, #16]
    74ca:	6827      	ldr	r7, [r4, #0]
    74cc:	2002      	movs	r0, #2
    74ce:	1aff      	subs	r7, r7, r3
    74d0:	fb95 f5f0 	sdiv	r5, r5, r0
    74d4:	1c79      	adds	r1, r7, #1
    74d6:	f402 6280 	and.w	r2, r2, #1024	; 0x400
    74da:	42a9      	cmp	r1, r5
    74dc:	b211      	sxth	r1, r2
    74de:	bfa8      	it	ge
    74e0:	183d      	addge	r5, r7, r0
    74e2:	4630      	mov	r0, r6
    74e4:	b179      	cbz	r1, 7506 <__ssputc_r+0x5c>
    74e6:	4629      	mov	r1, r5
    74e8:	f7ff fc92 	bl	6e10 <_malloc_r>
    74ec:	4680      	mov	r8, r0
    74ee:	b1a0      	cbz	r0, 751a <__ssputc_r+0x70>
    74f0:	463a      	mov	r2, r7
    74f2:	6921      	ldr	r1, [r4, #16]
    74f4:	f7ff fcf3 	bl	6ede <memcpy>
    74f8:	89a3      	ldrh	r3, [r4, #12]
    74fa:	f423 6090 	bic.w	r0, r3, #1152	; 0x480
    74fe:	f040 0280 	orr.w	r2, r0, #128	; 0x80
    7502:	81a2      	strh	r2, [r4, #12]
    7504:	e013      	b.n	752e <__ssputc_r+0x84>
    7506:	4619      	mov	r1, r3
    7508:	462a      	mov	r2, r5
    750a:	f7ff fd8b 	bl	7024 <_realloc_r>
    750e:	4680      	mov	r8, r0
    7510:	b968      	cbnz	r0, 752e <__ssputc_r+0x84>
    7512:	4630      	mov	r0, r6
    7514:	6921      	ldr	r1, [r4, #16]
    7516:	f7ff f92f 	bl	6778 <_free_r>
    751a:	89a0      	ldrh	r0, [r4, #12]
    751c:	230c      	movs	r3, #12
    751e:	f040 0240 	orr.w	r2, r0, #64	; 0x40
    7522:	6033      	str	r3, [r6, #0]
    7524:	f04f 30ff 	mov.w	r0, #4294967295	; 0xffffffff
    7528:	81a2      	strh	r2, [r4, #12]
    752a:	e8bd 83f8 	ldmia.w	sp!, {r3, r4, r5, r6, r7, r8, r9, pc}
    752e:	eb08 0107 	add.w	r1, r8, r7
    7532:	6165      	str	r5, [r4, #20]
    7534:	1bed      	subs	r5, r5, r7
    7536:	f8c4 8010 	str.w	r8, [r4, #16]
    753a:	6021      	str	r1, [r4, #0]
    753c:	60a5      	str	r5, [r4, #8]
    753e:	68a3      	ldr	r3, [r4, #8]
    7540:	2b00      	cmp	r3, #0
    7542:	dd06      	ble.n	7552 <__ssputc_r+0xa8>
    7544:	6820      	ldr	r0, [r4, #0]
    7546:	f800 9b01 	strb.w	r9, [r0], #1
    754a:	68a2      	ldr	r2, [r4, #8]
    754c:	6020      	str	r0, [r4, #0]
    754e:	1e51      	subs	r1, r2, #1
    7550:	60a1      	str	r1, [r4, #8]
    7552:	2000      	movs	r0, #0
    7554:	e8bd 83f8 	ldmia.w	sp!, {r3, r4, r5, r6, r7, r8, r9, pc}

00007558 <_svfiprintf_r>:
    7558:	e92d 47f0 	stmdb	sp!, {r4, r5, r6, r7, r8, r9, r10, lr}
    755c:	b09c      	sub	sp, #112	; 0x70
    755e:	9303      	str	r3, [sp, #12]
    7560:	898b      	ldrh	r3, [r1, #12]
    7562:	460d      	mov	r5, r1
    7564:	f003 0180 	and.w	r1, r3, #128	; 0x80
    7568:	4614      	mov	r4, r2
    756a:	b20a      	sxth	r2, r1
    756c:	4606      	mov	r6, r0
    756e:	b162      	cbz	r2, 758a <_svfiprintf_r+0x32>
    7570:	692b      	ldr	r3, [r5, #16]
    7572:	b953      	cbnz	r3, 758a <_svfiprintf_r+0x32>
    7574:	2140      	movs	r1, #64	; 0x40
    7576:	f7ff fc4b 	bl	6e10 <_malloc_r>
    757a:	6028      	str	r0, [r5, #0]
    757c:	6128      	str	r0, [r5, #16]
    757e:	b910      	cbnz	r0, 7586 <_svfiprintf_r+0x2e>
    7580:	210c      	movs	r1, #12
    7582:	6031      	str	r1, [r6, #0]
    7584:	e0d3      	b.n	772e <_svfiprintf_r+0x1d6>
    7586:	2040      	movs	r0, #64	; 0x40
    7588:	6168      	str	r0, [r5, #20]
    758a:	2700      	movs	r7, #0
    758c:	2120      	movs	r1, #32
    758e:	2230      	movs	r2, #48	; 0x30
    7590:	9709      	str	r7, [sp, #36]	; 0x24
    7592:	f88d 1029 	strb.w	r1, [sp, #41]	; 0x29
    7596:	f88d 202a 	strb.w	r2, [sp, #42]	; 0x2a
    759a:	4623      	mov	r3, r4
    759c:	461f      	mov	r7, r3
    759e:	f813 0b01 	ldrb.w	r0, [r3], #1
    75a2:	b928      	cbnz	r0, 75b0 <_svfiprintf_r+0x58>
    75a4:	ebb7 0a04 	subs.w	r10, r7, r4
    75a8:	d016      	beq.n	75d8 <_svfiprintf_r+0x80>
    75aa:	f04f 0900 	mov.w	r9, #0
    75ae:	e00d      	b.n	75cc <_svfiprintf_r+0x74>
    75b0:	2825      	cmp	r0, #37	; 0x25
    75b2:	d1f3      	bne.n	759c <_svfiprintf_r+0x44>
    75b4:	e7f6      	b.n	75a4 <_svfiprintf_r+0x4c>
    75b6:	4630      	mov	r0, r6
    75b8:	f814 1009 	ldrb.w	r1, [r4, r9]
    75bc:	462a      	mov	r2, r5
    75be:	f7ff ff74 	bl	74aa <__ssputc_r>
    75c2:	3001      	adds	r0, #1
    75c4:	f000 80ac 	beq.w	7720 <_svfiprintf_r+0x1c8>
    75c8:	f109 0901 	add.w	r9, r9, #1
    75cc:	45d1      	cmp	r9, r10
    75ce:	dbf2      	blt.n	75b6 <_svfiprintf_r+0x5e>
    75d0:	9909      	ldr	r1, [sp, #36]	; 0x24
    75d2:	eb01 020a 	add.w	r2, r1, r10
    75d6:	9209      	str	r2, [sp, #36]	; 0x24
    75d8:	783b      	ldrb	r3, [r7, #0]
    75da:	2b00      	cmp	r3, #0
    75dc:	f000 80a0 	beq.w	7720 <_svfiprintf_r+0x1c8>
    75e0:	2400      	movs	r4, #0
    75e2:	f04f 30ff 	mov.w	r0, #4294967295	; 0xffffffff
    75e6:	9404      	str	r4, [sp, #16]
    75e8:	9407      	str	r4, [sp, #28]
    75ea:	9005      	str	r0, [sp, #20]
    75ec:	9406      	str	r4, [sp, #24]
    75ee:	f88d 4053 	strb.w	r4, [sp, #83]	; 0x53
    75f2:	941a      	str	r4, [sp, #104]	; 0x68
    75f4:	f107 0901 	add.w	r9, r7, #1
    75f8:	4f4f      	ldr	r7, [pc, #316]	; (7738 <_svfiprintf_r+0x1e0>)
    75fa:	464c      	mov	r4, r9
    75fc:	4638      	mov	r0, r7
    75fe:	7821      	ldrb	r1, [r4, #0]
    7600:	2205      	movs	r2, #5
    7602:	f7ff fc4f 	bl	6ea4 <memchr>
    7606:	f109 0901 	add.w	r9, r9, #1
    760a:	9b04      	ldr	r3, [sp, #16]
    760c:	b130      	cbz	r0, 761c <_svfiprintf_r+0xc4>
    760e:	1bc4      	subs	r4, r0, r7
    7610:	2701      	movs	r7, #1
    7612:	fa07 f704 	lsl.w	r7, r7, r4
    7616:	433b      	orrs	r3, r7
    7618:	9304      	str	r3, [sp, #16]
    761a:	e7ed      	b.n	75f8 <_svfiprintf_r+0xa0>
    761c:	06d9      	lsls	r1, r3, #27
    761e:	d502      	bpl.n	7626 <_svfiprintf_r+0xce>
    7620:	2120      	movs	r1, #32
    7622:	f88d 1053 	strb.w	r1, [sp, #83]	; 0x53
    7626:	071a      	lsls	r2, r3, #28
    7628:	d502      	bpl.n	7630 <_svfiprintf_r+0xd8>
    762a:	222b      	movs	r2, #43	; 0x2b
    762c:	f88d 2053 	strb.w	r2, [sp, #83]	; 0x53
    7630:	7820      	ldrb	r0, [r4, #0]
    7632:	282a      	cmp	r0, #42	; 0x2a
    7634:	d002      	beq.n	763c <_svfiprintf_r+0xe4>
    7636:	9b07      	ldr	r3, [sp, #28]
    7638:	4627      	mov	r7, r4
    763a:	e00e      	b.n	765a <_svfiprintf_r+0x102>
    763c:	9a03      	ldr	r2, [sp, #12]
    763e:	6817      	ldr	r7, [r2, #0]
    7640:	1d10      	adds	r0, r2, #4
    7642:	2f00      	cmp	r7, #0
    7644:	9003      	str	r0, [sp, #12]
    7646:	db01      	blt.n	764c <_svfiprintf_r+0xf4>
    7648:	9707      	str	r7, [sp, #28]
    764a:	e004      	b.n	7656 <_svfiprintf_r+0xfe>
    764c:	4279      	negs	r1, r7
    764e:	f043 0302 	orr.w	r3, r3, #2
    7652:	9107      	str	r1, [sp, #28]
    7654:	9304      	str	r3, [sp, #16]
    7656:	3401      	adds	r4, #1
    7658:	e00a      	b.n	7670 <_svfiprintf_r+0x118>
    765a:	463c      	mov	r4, r7
    765c:	7821      	ldrb	r1, [r4, #0]
    765e:	3701      	adds	r7, #1
    7660:	3930      	subs	r1, #48	; 0x30
    7662:	2909      	cmp	r1, #9
    7664:	d803      	bhi.n	766e <_svfiprintf_r+0x116>
    7666:	240a      	movs	r4, #10
    7668:	fb04 1303 	mla	r3, r4, r3, r1
    766c:	e7f5      	b.n	765a <_svfiprintf_r+0x102>
    766e:	9307      	str	r3, [sp, #28]
    7670:	7822      	ldrb	r2, [r4, #0]
    7672:	2a2e      	cmp	r2, #46	; 0x2e
    7674:	d119      	bne.n	76aa <_svfiprintf_r+0x152>
    7676:	7860      	ldrb	r0, [r4, #1]
    7678:	282a      	cmp	r0, #42	; 0x2a
    767a:	d109      	bne.n	7690 <_svfiprintf_r+0x138>
    767c:	9803      	ldr	r0, [sp, #12]
    767e:	3402      	adds	r4, #2
    7680:	6803      	ldr	r3, [r0, #0]
    7682:	1d02      	adds	r2, r0, #4
    7684:	2b00      	cmp	r3, #0
    7686:	9203      	str	r2, [sp, #12]
    7688:	bfb8      	it	lt
    768a:	f04f 33ff 	movlt.w	r3, #4294967295	; 0xffffffff
    768e:	e00b      	b.n	76a8 <_svfiprintf_r+0x150>
    7690:	1c67      	adds	r7, r4, #1
    7692:	2300      	movs	r3, #0
    7694:	463c      	mov	r4, r7
    7696:	7821      	ldrb	r1, [r4, #0]
    7698:	3701      	adds	r7, #1
    769a:	3930      	subs	r1, #48	; 0x30
    769c:	2909      	cmp	r1, #9
    769e:	d803      	bhi.n	76a8 <_svfiprintf_r+0x150>
    76a0:	240a      	movs	r4, #10
    76a2:	fb04 1303 	mla	r3, r4, r3, r1
    76a6:	e7f5      	b.n	7694 <_svfiprintf_r+0x13c>
    76a8:	9305      	str	r3, [sp, #20]
    76aa:	4f24      	ldr	r7, [pc, #144]	; (773c <_svfiprintf_r+0x1e4>)
    76ac:	7821      	ldrb	r1, [r4, #0]
    76ae:	4638      	mov	r0, r7
    76b0:	2203      	movs	r2, #3
    76b2:	f7ff fbf7 	bl	6ea4 <memchr>
    76b6:	b138      	cbz	r0, 76c8 <_svfiprintf_r+0x170>
    76b8:	1bc7      	subs	r7, r0, r7
    76ba:	2140      	movs	r1, #64	; 0x40
    76bc:	fa01 f107 	lsl.w	r1, r1, r7
    76c0:	9b04      	ldr	r3, [sp, #16]
    76c2:	3401      	adds	r4, #1
    76c4:	430b      	orrs	r3, r1
    76c6:	9304      	str	r3, [sp, #16]
    76c8:	f814 1b01 	ldrb.w	r1, [r4], #1
    76cc:	481c      	ldr	r0, [pc, #112]	; (7740 <_svfiprintf_r+0x1e8>)
    76ce:	2206      	movs	r2, #6
    76d0:	f88d 1028 	strb.w	r1, [sp, #40]	; 0x28
    76d4:	f7ff fbe6 	bl	6ea4 <memchr>
    76d8:	b188      	cbz	r0, 76fe <_svfiprintf_r+0x1a6>
    76da:	4a1a      	ldr	r2, [pc, #104]	; (7744 <_svfiprintf_r+0x1ec>)
    76dc:	b932      	cbnz	r2, 76ec <_svfiprintf_r+0x194>
    76de:	9f03      	ldr	r7, [sp, #12]
    76e0:	1dfb      	adds	r3, r7, #7
    76e2:	f023 0007 	bic.w	r0, r3, #7
    76e6:	3008      	adds	r0, #8
    76e8:	9003      	str	r0, [sp, #12]
    76ea:	e014      	b.n	7716 <_svfiprintf_r+0x1be>
    76ec:	a903      	add	r1, sp, #12
    76ee:	9100      	str	r1, [sp, #0]
    76f0:	4630      	mov	r0, r6
    76f2:	a904      	add	r1, sp, #16
    76f4:	462a      	mov	r2, r5
    76f6:	4b14      	ldr	r3, [pc, #80]	; (7748 <_svfiprintf_r+0x1f0>)
    76f8:	f3af 8000 	nop.w
    76fc:	e007      	b.n	770e <_svfiprintf_r+0x1b6>
    76fe:	a803      	add	r0, sp, #12
    7700:	9000      	str	r0, [sp, #0]
    7702:	a904      	add	r1, sp, #16
    7704:	4630      	mov	r0, r6
    7706:	462a      	mov	r2, r5
    7708:	4b0f      	ldr	r3, [pc, #60]	; (7748 <_svfiprintf_r+0x1f0>)
    770a:	f000 fbb9 	bl	7e80 <_printf_i>
    770e:	f1b0 3fff 	cmp.w	r0, #4294967295	; 0xffffffff
    7712:	4680      	mov	r8, r0
    7714:	d004      	beq.n	7720 <_svfiprintf_r+0x1c8>
    7716:	9a09      	ldr	r2, [sp, #36]	; 0x24
    7718:	eb02 0108 	add.w	r1, r2, r8
    771c:	9109      	str	r1, [sp, #36]	; 0x24
    771e:	e73c      	b.n	759a <_svfiprintf_r+0x42>
    7720:	89ab      	ldrh	r3, [r5, #12]
    7722:	f003 0040 	and.w	r0, r3, #64	; 0x40
    7726:	b202      	sxth	r2, r0
    7728:	b90a      	cbnz	r2, 772e <_svfiprintf_r+0x1d6>
    772a:	9809      	ldr	r0, [sp, #36]	; 0x24
    772c:	e001      	b.n	7732 <_svfiprintf_r+0x1da>
    772e:	f04f 30ff 	mov.w	r0, #4294967295	; 0xffffffff
    7732:	b01c      	add	sp, #112	; 0x70
    7734:	e8bd 87f0 	ldmia.w	sp!, {r4, r5, r6, r7, r8, r9, r10, pc}
    7738:	00009700 	.word	0x00009700
    773c:	00009706 	.word	0x00009706
    7740:	0000970a 	.word	0x0000970a
    7744:	00000000 	.word	0x00000000
    7748:	000074ab 	.word	0x000074ab

0000774c <_sungetc_r>:
    774c:	b538      	push	{r3, r4, r5, lr}
    774e:	1c4b      	adds	r3, r1, #1
    7750:	4614      	mov	r4, r2
    7752:	d102      	bne.n	775a <_sungetc_r+0xe>
    7754:	f04f 35ff 	mov.w	r5, #4294967295	; 0xffffffff
    7758:	e033      	b.n	77c2 <_sungetc_r+0x76>
    775a:	8993      	ldrh	r3, [r2, #12]
    775c:	b2cd      	uxtb	r5, r1
    775e:	6b61      	ldr	r1, [r4, #52]	; 0x34
    7760:	f023 0220 	bic.w	r2, r3, #32
    7764:	81a2      	strh	r2, [r4, #12]
    7766:	b179      	cbz	r1, 7788 <_sungetc_r+0x3c>
    7768:	6862      	ldr	r2, [r4, #4]
    776a:	6ba1      	ldr	r1, [r4, #56]	; 0x38
    776c:	428a      	cmp	r2, r1
    776e:	da05      	bge.n	777c <_sungetc_r+0x30>
    7770:	6820      	ldr	r0, [r4, #0]
    7772:	1e43      	subs	r3, r0, #1
    7774:	6023      	str	r3, [r4, #0]
    7776:	f800 5c01 	strb.w	r5, [r0, #-1]
    777a:	e010      	b.n	779e <_sungetc_r+0x52>
    777c:	4621      	mov	r1, r4
    777e:	f000 f9a7 	bl	7ad0 <__submore>
    7782:	2800      	cmp	r0, #0
    7784:	d0f4      	beq.n	7770 <_sungetc_r+0x24>
    7786:	e7e5      	b.n	7754 <_sungetc_r+0x8>
    7788:	6920      	ldr	r0, [r4, #16]
    778a:	b158      	cbz	r0, 77a4 <_sungetc_r+0x58>
    778c:	6823      	ldr	r3, [r4, #0]
    778e:	4283      	cmp	r3, r0
    7790:	d908      	bls.n	77a4 <_sungetc_r+0x58>
    7792:	f813 2c01 	ldrb.w	r2, [r3, #-1]
    7796:	42aa      	cmp	r2, r5
    7798:	d104      	bne.n	77a4 <_sungetc_r+0x58>
    779a:	3b01      	subs	r3, #1
    779c:	6023      	str	r3, [r4, #0]
    779e:	6862      	ldr	r2, [r4, #4]
    77a0:	1c50      	adds	r0, r2, #1
    77a2:	e00d      	b.n	77c0 <_sungetc_r+0x74>
    77a4:	6861      	ldr	r1, [r4, #4]
    77a6:	6820      	ldr	r0, [r4, #0]
    77a8:	6421      	str	r1, [r4, #64]	; 0x40
    77aa:	4621      	mov	r1, r4
    77ac:	f104 0344 	add.w	r3, r4, #68	; 0x44
    77b0:	2203      	movs	r2, #3
    77b2:	f801 5f46 	strb.w	r5, [r1, #70]!
    77b6:	63e0      	str	r0, [r4, #60]	; 0x3c
    77b8:	6363      	str	r3, [r4, #52]	; 0x34
    77ba:	63a2      	str	r2, [r4, #56]	; 0x38
    77bc:	6021      	str	r1, [r4, #0]
    77be:	2001      	movs	r0, #1
    77c0:	6060      	str	r0, [r4, #4]
    77c2:	4628      	mov	r0, r5
    77c4:	bd38      	pop	{r3, r4, r5, pc}

000077c6 <__ssrefill_r>:
    77c6:	b510      	push	{r4, lr}
    77c8:	460c      	mov	r4, r1
    77ca:	6b49      	ldr	r1, [r1, #52]	; 0x34
    77cc:	b169      	cbz	r1, 77ea <__ssrefill_r+0x24>
    77ce:	f104 0344 	add.w	r3, r4, #68	; 0x44
    77d2:	4299      	cmp	r1, r3
    77d4:	d001      	beq.n	77da <__ssrefill_r+0x14>
    77d6:	f7fe ffcf 	bl	6778 <_free_r>
    77da:	6c21      	ldr	r1, [r4, #64]	; 0x40
    77dc:	2000      	movs	r0, #0
    77de:	6360      	str	r0, [r4, #52]	; 0x34
    77e0:	6061      	str	r1, [r4, #4]
    77e2:	b111      	cbz	r1, 77ea <__ssrefill_r+0x24>
    77e4:	6be2      	ldr	r2, [r4, #60]	; 0x3c
    77e6:	6022      	str	r2, [r4, #0]
    77e8:	bd10      	pop	{r4, pc}
    77ea:	89a3      	ldrh	r3, [r4, #12]
    77ec:	6920      	ldr	r0, [r4, #16]
    77ee:	2200      	movs	r2, #0
    77f0:	f043 0120 	orr.w	r1, r3, #32
    77f4:	6020      	str	r0, [r4, #0]
    77f6:	6062      	str	r2, [r4, #4]
    77f8:	81a1      	strh	r1, [r4, #12]
    77fa:	f04f 30ff 	mov.w	r0, #4294967295	; 0xffffffff
    77fe:	bd10      	pop	{r4, pc}

00007800 <__ssvfiscanf_r>:
    7800:	e92d 41f0 	stmdb	sp!, {r4, r5, r6, r7, r8, lr}
    7804:	f5ad 7d24 	sub.w	sp, sp, #656	; 0x290
    7808:	4607      	mov	r7, r0
    780a:	460c      	mov	r4, r1
    780c:	4690      	mov	r8, r2
    780e:	9301      	str	r3, [sp, #4]
    7810:	f7fe ff26 	bl	6660 <__sfp_lock_acquire>
    7814:	4996      	ldr	r1, [pc, #600]	; (7a70 <__ssvfiscanf_r+0x270>)
    7816:	4a97      	ldr	r2, [pc, #604]	; (7a74 <__ssvfiscanf_r+0x274>)
    7818:	2300      	movs	r3, #0
    781a:	a803      	add	r0, sp, #12
    781c:	9346      	str	r3, [sp, #280]	; 0x118
    781e:	9347      	str	r3, [sp, #284]	; 0x11c
    7820:	9048      	str	r0, [sp, #288]	; 0x120
    7822:	91a2      	str	r1, [sp, #648]	; 0x288
    7824:	92a3      	str	r2, [sp, #652]	; 0x28c
    7826:	f898 5000 	ldrb.w	r5, [r8]
    782a:	2d00      	cmp	r5, #0
    782c:	f000 8147 	beq.w	7abe <__ssvfiscanf_r+0x2be>
    7830:	4e91      	ldr	r6, [pc, #580]	; (7a78 <__ssvfiscanf_r+0x278>)
    7832:	6833      	ldr	r3, [r6, #0]
    7834:	1958      	adds	r0, r3, r5
    7836:	7841      	ldrb	r1, [r0, #1]
    7838:	f001 0208 	and.w	r2, r1, #8
    783c:	b2d3      	uxtb	r3, r2
    783e:	b1fb      	cbz	r3, 7880 <__ssvfiscanf_r+0x80>
    7840:	6866      	ldr	r6, [r4, #4]
    7842:	2e00      	cmp	r6, #0
    7844:	dd12      	ble.n	786c <__ssvfiscanf_r+0x6c>
    7846:	4a8c      	ldr	r2, [pc, #560]	; (7a78 <__ssvfiscanf_r+0x278>)
    7848:	6820      	ldr	r0, [r4, #0]
    784a:	6811      	ldr	r1, [r2, #0]
    784c:	7803      	ldrb	r3, [r0, #0]
    784e:	18ce      	adds	r6, r1, r3
    7850:	7875      	ldrb	r5, [r6, #1]
    7852:	f005 0308 	and.w	r3, r5, #8
    7856:	b2da      	uxtb	r2, r3
    7858:	b172      	cbz	r2, 7878 <__ssvfiscanf_r+0x78>
    785a:	9947      	ldr	r1, [sp, #284]	; 0x11c
    785c:	6865      	ldr	r5, [r4, #4]
    785e:	1c4e      	adds	r6, r1, #1
    7860:	1e6b      	subs	r3, r5, #1
    7862:	3001      	adds	r0, #1
    7864:	9647      	str	r6, [sp, #284]	; 0x11c
    7866:	6063      	str	r3, [r4, #4]
    7868:	6020      	str	r0, [r4, #0]
    786a:	e7e9      	b.n	7840 <__ssvfiscanf_r+0x40>
    786c:	4638      	mov	r0, r7
    786e:	4621      	mov	r1, r4
    7870:	9da3      	ldr	r5, [sp, #652]	; 0x28c
    7872:	47a8      	blx	r5
    7874:	2800      	cmp	r0, #0
    7876:	d0e6      	beq.n	7846 <__ssvfiscanf_r+0x46>
    7878:	f108 0601 	add.w	r6, r8, #1
    787c:	46b0      	mov	r8, r6
    787e:	e7d2      	b.n	7826 <__ssvfiscanf_r+0x26>
    7880:	2d25      	cmp	r5, #37	; 0x25
    7882:	f108 0601 	add.w	r6, r8, #1
    7886:	d15d      	bne.n	7944 <__ssvfiscanf_r+0x144>
    7888:	9345      	str	r3, [sp, #276]	; 0x114
    788a:	9343      	str	r3, [sp, #268]	; 0x10c
    788c:	f898 5001 	ldrb.w	r5, [r8, #1]
    7890:	2d2a      	cmp	r5, #42	; 0x2a
    7892:	d103      	bne.n	789c <__ssvfiscanf_r+0x9c>
    7894:	2610      	movs	r6, #16
    7896:	9643      	str	r6, [sp, #268]	; 0x10c
    7898:	f108 0602 	add.w	r6, r8, #2
    789c:	7830      	ldrb	r0, [r6, #0]
    789e:	4633      	mov	r3, r6
    78a0:	f1a0 0130 	sub.w	r1, r0, #48	; 0x30
    78a4:	3601      	adds	r6, #1
    78a6:	2909      	cmp	r1, #9
    78a8:	d806      	bhi.n	78b8 <__ssvfiscanf_r+0xb8>
    78aa:	9d45      	ldr	r5, [sp, #276]	; 0x114
    78ac:	210a      	movs	r1, #10
    78ae:	fb01 0005 	mla	r0, r1, r5, r0
    78b2:	3830      	subs	r0, #48	; 0x30
    78b4:	9045      	str	r0, [sp, #276]	; 0x114
    78b6:	e7f1      	b.n	789c <__ssvfiscanf_r+0x9c>
    78b8:	2868      	cmp	r0, #104	; 0x68
    78ba:	d104      	bne.n	78c6 <__ssvfiscanf_r+0xc6>
    78bc:	9a43      	ldr	r2, [sp, #268]	; 0x10c
    78be:	f042 0301 	orr.w	r3, r2, #1
    78c2:	9343      	str	r3, [sp, #268]	; 0x10c
    78c4:	4633      	mov	r3, r6
    78c6:	781d      	ldrb	r5, [r3, #0]
    78c8:	2d6c      	cmp	r5, #108	; 0x6c
    78ca:	d104      	bne.n	78d6 <__ssvfiscanf_r+0xd6>
    78cc:	9e43      	ldr	r6, [sp, #268]	; 0x10c
    78ce:	3301      	adds	r3, #1
    78d0:	f046 0002 	orr.w	r0, r6, #2
    78d4:	9043      	str	r0, [sp, #268]	; 0x10c
    78d6:	7819      	ldrb	r1, [r3, #0]
    78d8:	294c      	cmp	r1, #76	; 0x4c
    78da:	d104      	bne.n	78e6 <__ssvfiscanf_r+0xe6>
    78dc:	9a43      	ldr	r2, [sp, #268]	; 0x10c
    78de:	3301      	adds	r3, #1
    78e0:	f042 0504 	orr.w	r5, r2, #4
    78e4:	9543      	str	r5, [sp, #268]	; 0x10c
    78e6:	461e      	mov	r6, r3
    78e8:	f816 5b01 	ldrb.w	r5, [r6], #1
    78ec:	2d69      	cmp	r5, #105	; 0x69
    78ee:	d056      	beq.n	799e <__ssvfiscanf_r+0x19e>
    78f0:	d816      	bhi.n	7920 <__ssvfiscanf_r+0x120>
    78f2:	2d64      	cmp	r5, #100	; 0x64
    78f4:	d04e      	beq.n	7994 <__ssvfiscanf_r+0x194>
    78f6:	d80f      	bhi.n	7918 <__ssvfiscanf_r+0x118>
    78f8:	2d5b      	cmp	r5, #91	; 0x5b
    78fa:	d056      	beq.n	79aa <__ssvfiscanf_r+0x1aa>
    78fc:	d804      	bhi.n	7908 <__ssvfiscanf_r+0x108>
    78fe:	2d00      	cmp	r5, #0
    7900:	d07b      	beq.n	79fa <__ssvfiscanf_r+0x1fa>
    7902:	2d25      	cmp	r5, #37	; 0x25
    7904:	d17c      	bne.n	7a00 <__ssvfiscanf_r+0x200>
    7906:	e01d      	b.n	7944 <__ssvfiscanf_r+0x144>
    7908:	2d63      	cmp	r5, #99	; 0x63
    790a:	d179      	bne.n	7a00 <__ssvfiscanf_r+0x200>
    790c:	9843      	ldr	r0, [sp, #268]	; 0x10c
    790e:	f040 0140 	orr.w	r1, r0, #64	; 0x40
    7912:	9143      	str	r1, [sp, #268]	; 0x10c
    7914:	2000      	movs	r0, #0
    7916:	e052      	b.n	79be <__ssvfiscanf_r+0x1be>
    7918:	2d67      	cmp	r5, #103	; 0x67
    791a:	d871      	bhi.n	7a00 <__ssvfiscanf_r+0x200>
    791c:	2005      	movs	r0, #5
    791e:	e04e      	b.n	79be <__ssvfiscanf_r+0x1be>
    7920:	2d70      	cmp	r5, #112	; 0x70
    7922:	d02d      	beq.n	7980 <__ssvfiscanf_r+0x180>
    7924:	d806      	bhi.n	7934 <__ssvfiscanf_r+0x134>
    7926:	2d6e      	cmp	r5, #110	; 0x6e
    7928:	d04b      	beq.n	79c2 <__ssvfiscanf_r+0x1c2>
    792a:	2d6f      	cmp	r5, #111	; 0x6f
    792c:	d168      	bne.n	7a00 <__ssvfiscanf_r+0x200>
    792e:	2108      	movs	r1, #8
    7930:	9144      	str	r1, [sp, #272]	; 0x110
    7932:	e038      	b.n	79a6 <__ssvfiscanf_r+0x1a6>
    7934:	2d75      	cmp	r5, #117	; 0x75
    7936:	d02d      	beq.n	7994 <__ssvfiscanf_r+0x194>
    7938:	2d78      	cmp	r5, #120	; 0x78
    793a:	d025      	beq.n	7988 <__ssvfiscanf_r+0x188>
    793c:	2d73      	cmp	r5, #115	; 0x73
    793e:	d15f      	bne.n	7a00 <__ssvfiscanf_r+0x200>
    7940:	2002      	movs	r0, #2
    7942:	e03c      	b.n	79be <__ssvfiscanf_r+0x1be>
    7944:	6863      	ldr	r3, [r4, #4]
    7946:	2b00      	cmp	r3, #0
    7948:	dd0d      	ble.n	7966 <__ssvfiscanf_r+0x166>
    794a:	6821      	ldr	r1, [r4, #0]
    794c:	7808      	ldrb	r0, [r1, #0]
    794e:	42a8      	cmp	r0, r5
    7950:	f040 80b5 	bne.w	7abe <__ssvfiscanf_r+0x2be>
    7954:	6865      	ldr	r5, [r4, #4]
    7956:	1c4a      	adds	r2, r1, #1
    7958:	9947      	ldr	r1, [sp, #284]	; 0x11c
    795a:	1e6b      	subs	r3, r5, #1
    795c:	1c48      	adds	r0, r1, #1
    795e:	6063      	str	r3, [r4, #4]
    7960:	6022      	str	r2, [r4, #0]
    7962:	9047      	str	r0, [sp, #284]	; 0x11c
    7964:	e78a      	b.n	787c <__ssvfiscanf_r+0x7c>
    7966:	4638      	mov	r0, r7
    7968:	4621      	mov	r1, r4
    796a:	9aa3      	ldr	r2, [sp, #652]	; 0x28c
    796c:	4790      	blx	r2
    796e:	2800      	cmp	r0, #0
    7970:	d0eb      	beq.n	794a <__ssvfiscanf_r+0x14a>
    7972:	f7fe fe76 	bl	6662 <__sfp_lock_release>
    7976:	9846      	ldr	r0, [sp, #280]	; 0x118
    7978:	2800      	cmp	r0, #0
    797a:	f040 8098 	bne.w	7aae <__ssvfiscanf_r+0x2ae>
    797e:	e09b      	b.n	7ab8 <__ssvfiscanf_r+0x2b8>
    7980:	9943      	ldr	r1, [sp, #268]	; 0x10c
    7982:	f041 0320 	orr.w	r3, r1, #32
    7986:	9343      	str	r3, [sp, #268]	; 0x10c
    7988:	9843      	ldr	r0, [sp, #268]	; 0x10c
    798a:	f440 7200 	orr.w	r2, r0, #512	; 0x200
    798e:	9243      	str	r2, [sp, #268]	; 0x10c
    7990:	2210      	movs	r2, #16
    7992:	e000      	b.n	7996 <__ssvfiscanf_r+0x196>
    7994:	220a      	movs	r2, #10
    7996:	2d6e      	cmp	r5, #110	; 0x6e
    7998:	9244      	str	r2, [sp, #272]	; 0x110
    799a:	dc04      	bgt.n	79a6 <__ssvfiscanf_r+0x1a6>
    799c:	e001      	b.n	79a2 <__ssvfiscanf_r+0x1a2>
    799e:	2100      	movs	r1, #0
    79a0:	9144      	str	r1, [sp, #272]	; 0x110
    79a2:	2003      	movs	r0, #3
    79a4:	e00b      	b.n	79be <__ssvfiscanf_r+0x1be>
    79a6:	2004      	movs	r0, #4
    79a8:	e009      	b.n	79be <__ssvfiscanf_r+0x1be>
    79aa:	4631      	mov	r1, r6
    79ac:	a803      	add	r0, sp, #12
    79ae:	f000 fe95 	bl	86dc <__sccl>
    79b2:	9a43      	ldr	r2, [sp, #268]	; 0x10c
    79b4:	4606      	mov	r6, r0
    79b6:	f042 0340 	orr.w	r3, r2, #64	; 0x40
    79ba:	9343      	str	r3, [sp, #268]	; 0x10c
    79bc:	2001      	movs	r0, #1
    79be:	9049      	str	r0, [sp, #292]	; 0x124
    79c0:	e022      	b.n	7a08 <__ssvfiscanf_r+0x208>
    79c2:	9d43      	ldr	r5, [sp, #268]	; 0x10c
    79c4:	06e8      	lsls	r0, r5, #27
    79c6:	f53f af59 	bmi.w	787c <__ssvfiscanf_r+0x7c>
    79ca:	07e9      	lsls	r1, r5, #31
    79cc:	d506      	bpl.n	79dc <__ssvfiscanf_r+0x1dc>
    79ce:	9801      	ldr	r0, [sp, #4]
    79d0:	9d47      	ldr	r5, [sp, #284]	; 0x11c
    79d2:	1d02      	adds	r2, r0, #4
    79d4:	9201      	str	r2, [sp, #4]
    79d6:	6801      	ldr	r1, [r0, #0]
    79d8:	800d      	strh	r5, [r1, #0]
    79da:	e74f      	b.n	787c <__ssvfiscanf_r+0x7c>
    79dc:	9b01      	ldr	r3, [sp, #4]
    79de:	f015 0f02 	tst.w	r5, #2
    79e2:	f103 0204 	add.w	r2, r3, #4
    79e6:	9201      	str	r2, [sp, #4]
    79e8:	d003      	beq.n	79f2 <__ssvfiscanf_r+0x1f2>
    79ea:	681d      	ldr	r5, [r3, #0]
    79ec:	9b47      	ldr	r3, [sp, #284]	; 0x11c
    79ee:	602b      	str	r3, [r5, #0]
    79f0:	e744      	b.n	787c <__ssvfiscanf_r+0x7c>
    79f2:	9847      	ldr	r0, [sp, #284]	; 0x11c
    79f4:	6819      	ldr	r1, [r3, #0]
    79f6:	6008      	str	r0, [r1, #0]
    79f8:	e740      	b.n	787c <__ssvfiscanf_r+0x7c>
    79fa:	f7fe fe32 	bl	6662 <__sfp_lock_release>
    79fe:	e05b      	b.n	7ab8 <__ssvfiscanf_r+0x2b8>
    7a00:	2303      	movs	r3, #3
    7a02:	200a      	movs	r0, #10
    7a04:	9349      	str	r3, [sp, #292]	; 0x124
    7a06:	9044      	str	r0, [sp, #272]	; 0x110
    7a08:	6863      	ldr	r3, [r4, #4]
    7a0a:	2b00      	cmp	r3, #0
    7a0c:	dd03      	ble.n	7a16 <__ssvfiscanf_r+0x216>
    7a0e:	9843      	ldr	r0, [sp, #268]	; 0x10c
    7a10:	0642      	lsls	r2, r0, #25
    7a12:	d511      	bpl.n	7a38 <__ssvfiscanf_r+0x238>
    7a14:	e01b      	b.n	7a4e <__ssvfiscanf_r+0x24e>
    7a16:	4638      	mov	r0, r7
    7a18:	4621      	mov	r1, r4
    7a1a:	9aa3      	ldr	r2, [sp, #652]	; 0x28c
    7a1c:	4790      	blx	r2
    7a1e:	2800      	cmp	r0, #0
    7a20:	d0f5      	beq.n	7a0e <__ssvfiscanf_r+0x20e>
    7a22:	e7a6      	b.n	7972 <__ssvfiscanf_r+0x172>
    7a24:	9847      	ldr	r0, [sp, #284]	; 0x11c
    7a26:	6861      	ldr	r1, [r4, #4]
    7a28:	1c42      	adds	r2, r0, #1
    7a2a:	1e48      	subs	r0, r1, #1
    7a2c:	2800      	cmp	r0, #0
    7a2e:	9247      	str	r2, [sp, #284]	; 0x11c
    7a30:	6060      	str	r0, [r4, #4]
    7a32:	dd16      	ble.n	7a62 <__ssvfiscanf_r+0x262>
    7a34:	1c5a      	adds	r2, r3, #1
    7a36:	6022      	str	r2, [r4, #0]
    7a38:	490f      	ldr	r1, [pc, #60]	; (7a78 <__ssvfiscanf_r+0x278>)
    7a3a:	6823      	ldr	r3, [r4, #0]
    7a3c:	6808      	ldr	r0, [r1, #0]
    7a3e:	781a      	ldrb	r2, [r3, #0]
    7a40:	1882      	adds	r2, r0, r2
    7a42:	7851      	ldrb	r1, [r2, #1]
    7a44:	f001 0008 	and.w	r0, r1, #8
    7a48:	b2c2      	uxtb	r2, r0
    7a4a:	2a00      	cmp	r2, #0
    7a4c:	d1ea      	bne.n	7a24 <__ssvfiscanf_r+0x224>
    7a4e:	9b49      	ldr	r3, [sp, #292]	; 0x124
    7a50:	2b02      	cmp	r3, #2
    7a52:	dc13      	bgt.n	7a7c <__ssvfiscanf_r+0x27c>
    7a54:	4638      	mov	r0, r7
    7a56:	a943      	add	r1, sp, #268	; 0x10c
    7a58:	4622      	mov	r2, r4
    7a5a:	ab01      	add	r3, sp, #4
    7a5c:	f000 fb34 	bl	80c8 <_scanf_chars>
    7a60:	e01f      	b.n	7aa2 <__ssvfiscanf_r+0x2a2>
    7a62:	4638      	mov	r0, r7
    7a64:	4621      	mov	r1, r4
    7a66:	9ba3      	ldr	r3, [sp, #652]	; 0x28c
    7a68:	4798      	blx	r3
    7a6a:	2800      	cmp	r0, #0
    7a6c:	d0e4      	beq.n	7a38 <__ssvfiscanf_r+0x238>
    7a6e:	e780      	b.n	7972 <__ssvfiscanf_r+0x172>
    7a70:	0000774d 	.word	0x0000774d
    7a74:	000077c7 	.word	0x000077c7
    7a78:	10000138 	.word	0x10000138
    7a7c:	2b04      	cmp	r3, #4
    7a7e:	dc06      	bgt.n	7a8e <__ssvfiscanf_r+0x28e>
    7a80:	4638      	mov	r0, r7
    7a82:	a943      	add	r1, sp, #268	; 0x10c
    7a84:	4622      	mov	r2, r4
    7a86:	ab01      	add	r3, sp, #4
    7a88:	f000 fb84 	bl	8194 <_scanf_i>
    7a8c:	e009      	b.n	7aa2 <__ssvfiscanf_r+0x2a2>
    7a8e:	490f      	ldr	r1, [pc, #60]	; (7acc <__ssvfiscanf_r+0x2cc>)
    7a90:	2900      	cmp	r1, #0
    7a92:	f43f aef3 	beq.w	787c <__ssvfiscanf_r+0x7c>
    7a96:	4638      	mov	r0, r7
    7a98:	a943      	add	r1, sp, #268	; 0x10c
    7a9a:	4622      	mov	r2, r4
    7a9c:	ab01      	add	r3, sp, #4
    7a9e:	f3af 8000 	nop.w
    7aa2:	2801      	cmp	r0, #1
    7aa4:	d00b      	beq.n	7abe <__ssvfiscanf_r+0x2be>
    7aa6:	2802      	cmp	r0, #2
    7aa8:	f47f aee8 	bne.w	787c <__ssvfiscanf_r+0x7c>
    7aac:	e761      	b.n	7972 <__ssvfiscanf_r+0x172>
    7aae:	89a3      	ldrh	r3, [r4, #12]
    7ab0:	f003 0240 	and.w	r2, r3, #64	; 0x40
    7ab4:	b211      	sxth	r1, r2
    7ab6:	b129      	cbz	r1, 7ac4 <__ssvfiscanf_r+0x2c4>
    7ab8:	f04f 30ff 	mov.w	r0, #4294967295	; 0xffffffff
    7abc:	e002      	b.n	7ac4 <__ssvfiscanf_r+0x2c4>
    7abe:	f7fe fdd0 	bl	6662 <__sfp_lock_release>
    7ac2:	9846      	ldr	r0, [sp, #280]	; 0x118
    7ac4:	f50d 7d24 	add.w	sp, sp, #656	; 0x290
    7ac8:	e8bd 81f0 	ldmia.w	sp!, {r4, r5, r6, r7, r8, pc}
    7acc:	00000000 	.word	0x00000000

00007ad0 <__submore>:
    7ad0:	e92d 41f0 	stmdb	sp!, {r4, r5, r6, r7, r8, lr}
    7ad4:	460c      	mov	r4, r1
    7ad6:	6b49      	ldr	r1, [r1, #52]	; 0x34
    7ad8:	f104 0344 	add.w	r3, r4, #68	; 0x44
    7adc:	4299      	cmp	r1, r3
    7ade:	d11c      	bne.n	7b1a <__submore+0x4a>
    7ae0:	f44f 6180 	mov.w	r1, #1024	; 0x400
    7ae4:	f7ff f994 	bl	6e10 <_malloc_r>
    7ae8:	b918      	cbnz	r0, 7af2 <__submore+0x22>
    7aea:	f04f 30ff 	mov.w	r0, #4294967295	; 0xffffffff
    7aee:	e8bd 81f0 	ldmia.w	sp!, {r4, r5, r6, r7, r8, pc}
    7af2:	f894 2046 	ldrb.w	r2, [r4, #70]	; 0x46
    7af6:	f44f 6180 	mov.w	r1, #1024	; 0x400
    7afa:	6360      	str	r0, [r4, #52]	; 0x34
    7afc:	63a1      	str	r1, [r4, #56]	; 0x38
    7afe:	f880 23ff 	strb.w	r2, [r0, #1023]	; 0x3ff
    7b02:	f894 3045 	ldrb.w	r3, [r4, #69]	; 0x45
    7b06:	f880 33fe 	strb.w	r3, [r0, #1022]	; 0x3fe
    7b0a:	f894 1044 	ldrb.w	r1, [r4, #68]	; 0x44
    7b0e:	f880 13fd 	strb.w	r1, [r0, #1021]	; 0x3fd
    7b12:	f200 30fd 	addw	r0, r0, #1021	; 0x3fd
    7b16:	6020      	str	r0, [r4, #0]
    7b18:	e012      	b.n	7b40 <__submore+0x70>
    7b1a:	6ba6      	ldr	r6, [r4, #56]	; 0x38
    7b1c:	0077      	lsls	r7, r6, #1
    7b1e:	463a      	mov	r2, r7
    7b20:	f7ff fa80 	bl	7024 <_realloc_r>
    7b24:	4605      	mov	r5, r0
    7b26:	2800      	cmp	r0, #0
    7b28:	d0df      	beq.n	7aea <__submore+0x1a>
    7b2a:	eb00 0806 	add.w	r8, r0, r6
    7b2e:	4640      	mov	r0, r8
    7b30:	4629      	mov	r1, r5
    7b32:	4632      	mov	r2, r6
    7b34:	f7ff f9d3 	bl	6ede <memcpy>
    7b38:	f8c4 8000 	str.w	r8, [r4]
    7b3c:	6365      	str	r5, [r4, #52]	; 0x34
    7b3e:	63a7      	str	r7, [r4, #56]	; 0x38
    7b40:	2000      	movs	r0, #0
    7b42:	e8bd 81f0 	ldmia.w	sp!, {r4, r5, r6, r7, r8, pc}

00007b46 <__sfputc_r>:
    7b46:	6893      	ldr	r3, [r2, #8]
    7b48:	b510      	push	{r4, lr}
    7b4a:	3b01      	subs	r3, #1
    7b4c:	2b00      	cmp	r3, #0
    7b4e:	6093      	str	r3, [r2, #8]
    7b50:	da05      	bge.n	7b5e <__sfputc_r+0x18>
    7b52:	6994      	ldr	r4, [r2, #24]
    7b54:	42a3      	cmp	r3, r4
    7b56:	db08      	blt.n	7b6a <__sfputc_r+0x24>
    7b58:	b2cb      	uxtb	r3, r1
    7b5a:	2b0a      	cmp	r3, #10
    7b5c:	d005      	beq.n	7b6a <__sfputc_r+0x24>
    7b5e:	6813      	ldr	r3, [r2, #0]
    7b60:	b2c8      	uxtb	r0, r1
    7b62:	f803 1b01 	strb.w	r1, [r3], #1
    7b66:	6013      	str	r3, [r2, #0]
    7b68:	bd10      	pop	{r4, pc}
    7b6a:	e8bd 4010 	ldmia.w	sp!, {r4, lr}
    7b6e:	f000 bc03 	b.w	8378 <__swbuf_r>
	...

00007b74 <_vfiprintf_r>:
    7b74:	e92d 47f0 	stmdb	sp!, {r4, r5, r6, r7, r8, r9, r10, lr}
    7b78:	b09c      	sub	sp, #112	; 0x70
    7b7a:	460d      	mov	r5, r1
    7b7c:	4614      	mov	r4, r2
    7b7e:	9303      	str	r3, [sp, #12]
    7b80:	4606      	mov	r6, r0
    7b82:	b118      	cbz	r0, 7b8c <_vfiprintf_r+0x18>
    7b84:	6983      	ldr	r3, [r0, #24]
    7b86:	b90b      	cbnz	r3, 7b8c <_vfiprintf_r+0x18>
    7b88:	f7fe fd02 	bl	6590 <__sinit>
    7b8c:	487c      	ldr	r0, [pc, #496]	; (7d80 <_vfiprintf_r+0x20c>)
    7b8e:	4285      	cmp	r5, r0
    7b90:	d101      	bne.n	7b96 <_vfiprintf_r+0x22>
    7b92:	6875      	ldr	r5, [r6, #4]
    7b94:	e008      	b.n	7ba8 <_vfiprintf_r+0x34>
    7b96:	497b      	ldr	r1, [pc, #492]	; (7d84 <_vfiprintf_r+0x210>)
    7b98:	428d      	cmp	r5, r1
    7b9a:	d101      	bne.n	7ba0 <_vfiprintf_r+0x2c>
    7b9c:	68b5      	ldr	r5, [r6, #8]
    7b9e:	e003      	b.n	7ba8 <_vfiprintf_r+0x34>
    7ba0:	4a79      	ldr	r2, [pc, #484]	; (7d88 <_vfiprintf_r+0x214>)
    7ba2:	4295      	cmp	r5, r2
    7ba4:	bf08      	it	eq
    7ba6:	68f5      	ldreq	r5, [r6, #12]
    7ba8:	89ab      	ldrh	r3, [r5, #12]
    7baa:	f003 0008 	and.w	r0, r3, #8
    7bae:	b201      	sxth	r1, r0
    7bb0:	b151      	cbz	r1, 7bc8 <_vfiprintf_r+0x54>
    7bb2:	692a      	ldr	r2, [r5, #16]
    7bb4:	b142      	cbz	r2, 7bc8 <_vfiprintf_r+0x54>
    7bb6:	2700      	movs	r7, #0
    7bb8:	2320      	movs	r3, #32
    7bba:	2030      	movs	r0, #48	; 0x30
    7bbc:	9709      	str	r7, [sp, #36]	; 0x24
    7bbe:	f88d 3029 	strb.w	r3, [sp, #41]	; 0x29
    7bc2:	f88d 002a 	strb.w	r0, [sp, #42]	; 0x2a
    7bc6:	e03c      	b.n	7c42 <_vfiprintf_r+0xce>
    7bc8:	4630      	mov	r0, r6
    7bca:	4629      	mov	r1, r5
    7bcc:	f000 fc40 	bl	8450 <__swsetup_r>
    7bd0:	2800      	cmp	r0, #0
    7bd2:	d0f0      	beq.n	7bb6 <_vfiprintf_r+0x42>
    7bd4:	f04f 30ff 	mov.w	r0, #4294967295	; 0xffffffff
    7bd8:	e0ce      	b.n	7d78 <_vfiprintf_r+0x204>
    7bda:	9803      	ldr	r0, [sp, #12]
    7bdc:	6807      	ldr	r7, [r0, #0]
    7bde:	1d02      	adds	r2, r0, #4
    7be0:	2f00      	cmp	r7, #0
    7be2:	9203      	str	r2, [sp, #12]
    7be4:	db7d      	blt.n	7ce2 <_vfiprintf_r+0x16e>
    7be6:	9707      	str	r7, [sp, #28]
    7be8:	3401      	adds	r4, #1
    7bea:	7820      	ldrb	r0, [r4, #0]
    7bec:	282e      	cmp	r0, #46	; 0x2e
    7bee:	f000 808a 	beq.w	7d06 <_vfiprintf_r+0x192>
    7bf2:	4f66      	ldr	r7, [pc, #408]	; (7d8c <_vfiprintf_r+0x218>)
    7bf4:	7821      	ldrb	r1, [r4, #0]
    7bf6:	4638      	mov	r0, r7
    7bf8:	2203      	movs	r2, #3
    7bfa:	f7ff f953 	bl	6ea4 <memchr>
    7bfe:	b138      	cbz	r0, 7c10 <_vfiprintf_r+0x9c>
    7c00:	1bc7      	subs	r7, r0, r7
    7c02:	2140      	movs	r1, #64	; 0x40
    7c04:	fa01 f107 	lsl.w	r1, r1, r7
    7c08:	9b04      	ldr	r3, [sp, #16]
    7c0a:	3401      	adds	r4, #1
    7c0c:	430b      	orrs	r3, r1
    7c0e:	9304      	str	r3, [sp, #16]
    7c10:	f814 1b01 	ldrb.w	r1, [r4], #1
    7c14:	485e      	ldr	r0, [pc, #376]	; (7d90 <_vfiprintf_r+0x21c>)
    7c16:	2206      	movs	r2, #6
    7c18:	f88d 1028 	strb.w	r1, [sp, #40]	; 0x28
    7c1c:	f7ff f942 	bl	6ea4 <memchr>
    7c20:	2800      	cmp	r0, #0
    7c22:	f000 8094 	beq.w	7d4e <_vfiprintf_r+0x1da>
    7c26:	4a5b      	ldr	r2, [pc, #364]	; (7d94 <_vfiprintf_r+0x220>)
    7c28:	2a00      	cmp	r2, #0
    7c2a:	f040 8087 	bne.w	7d3c <_vfiprintf_r+0x1c8>
    7c2e:	9f03      	ldr	r7, [sp, #12]
    7c30:	1dfb      	adds	r3, r7, #7
    7c32:	f023 0007 	bic.w	r0, r3, #7
    7c36:	3008      	adds	r0, #8
    7c38:	9003      	str	r0, [sp, #12]
    7c3a:	9a09      	ldr	r2, [sp, #36]	; 0x24
    7c3c:	eb02 0108 	add.w	r1, r2, r8
    7c40:	9109      	str	r1, [sp, #36]	; 0x24
    7c42:	4621      	mov	r1, r4
    7c44:	460f      	mov	r7, r1
    7c46:	f811 2b01 	ldrb.w	r2, [r1], #1
    7c4a:	b92a      	cbnz	r2, 7c58 <_vfiprintf_r+0xe4>
    7c4c:	ebb7 0a04 	subs.w	r10, r7, r4
    7c50:	d015      	beq.n	7c7e <_vfiprintf_r+0x10a>
    7c52:	f04f 0900 	mov.w	r9, #0
    7c56:	e00c      	b.n	7c72 <_vfiprintf_r+0xfe>
    7c58:	2a25      	cmp	r2, #37	; 0x25
    7c5a:	d1f3      	bne.n	7c44 <_vfiprintf_r+0xd0>
    7c5c:	e7f6      	b.n	7c4c <_vfiprintf_r+0xd8>
    7c5e:	4630      	mov	r0, r6
    7c60:	f814 1009 	ldrb.w	r1, [r4, r9]
    7c64:	462a      	mov	r2, r5
    7c66:	f7ff ff6e 	bl	7b46 <__sfputc_r>
    7c6a:	3001      	adds	r0, #1
    7c6c:	d07c      	beq.n	7d68 <_vfiprintf_r+0x1f4>
    7c6e:	f109 0901 	add.w	r9, r9, #1
    7c72:	45d1      	cmp	r9, r10
    7c74:	dbf3      	blt.n	7c5e <_vfiprintf_r+0xea>
    7c76:	9b09      	ldr	r3, [sp, #36]	; 0x24
    7c78:	eb03 000a 	add.w	r0, r3, r10
    7c7c:	9009      	str	r0, [sp, #36]	; 0x24
    7c7e:	7839      	ldrb	r1, [r7, #0]
    7c80:	2900      	cmp	r1, #0
    7c82:	d071      	beq.n	7d68 <_vfiprintf_r+0x1f4>
    7c84:	2400      	movs	r4, #0
    7c86:	f04f 32ff 	mov.w	r2, #4294967295	; 0xffffffff
    7c8a:	9404      	str	r4, [sp, #16]
    7c8c:	9407      	str	r4, [sp, #28]
    7c8e:	9205      	str	r2, [sp, #20]
    7c90:	9406      	str	r4, [sp, #24]
    7c92:	f88d 4053 	strb.w	r4, [sp, #83]	; 0x53
    7c96:	941a      	str	r4, [sp, #104]	; 0x68
    7c98:	f107 0901 	add.w	r9, r7, #1
    7c9c:	4f3e      	ldr	r7, [pc, #248]	; (7d98 <_vfiprintf_r+0x224>)
    7c9e:	464c      	mov	r4, r9
    7ca0:	4638      	mov	r0, r7
    7ca2:	7821      	ldrb	r1, [r4, #0]
    7ca4:	2205      	movs	r2, #5
    7ca6:	f7ff f8fd 	bl	6ea4 <memchr>
    7caa:	f109 0901 	add.w	r9, r9, #1
    7cae:	9b04      	ldr	r3, [sp, #16]
    7cb0:	b130      	cbz	r0, 7cc0 <_vfiprintf_r+0x14c>
    7cb2:	1bc4      	subs	r4, r0, r7
    7cb4:	2701      	movs	r7, #1
    7cb6:	fa07 f704 	lsl.w	r7, r7, r4
    7cba:	433b      	orrs	r3, r7
    7cbc:	9304      	str	r3, [sp, #16]
    7cbe:	e7ed      	b.n	7c9c <_vfiprintf_r+0x128>
    7cc0:	06d9      	lsls	r1, r3, #27
    7cc2:	d502      	bpl.n	7cca <_vfiprintf_r+0x156>
    7cc4:	2020      	movs	r0, #32
    7cc6:	f88d 0053 	strb.w	r0, [sp, #83]	; 0x53
    7cca:	071a      	lsls	r2, r3, #28
    7ccc:	d502      	bpl.n	7cd4 <_vfiprintf_r+0x160>
    7cce:	212b      	movs	r1, #43	; 0x2b
    7cd0:	f88d 1053 	strb.w	r1, [sp, #83]	; 0x53
    7cd4:	7822      	ldrb	r2, [r4, #0]
    7cd6:	2a2a      	cmp	r2, #42	; 0x2a
    7cd8:	f43f af7f 	beq.w	7bda <_vfiprintf_r+0x66>
    7cdc:	9b07      	ldr	r3, [sp, #28]
    7cde:	4627      	mov	r7, r4
    7ce0:	e005      	b.n	7cee <_vfiprintf_r+0x17a>
    7ce2:	4279      	negs	r1, r7
    7ce4:	f043 0302 	orr.w	r3, r3, #2
    7ce8:	9107      	str	r1, [sp, #28]
    7cea:	9304      	str	r3, [sp, #16]
    7cec:	e77c      	b.n	7be8 <_vfiprintf_r+0x74>
    7cee:	463c      	mov	r4, r7
    7cf0:	7821      	ldrb	r1, [r4, #0]
    7cf2:	3701      	adds	r7, #1
    7cf4:	3930      	subs	r1, #48	; 0x30
    7cf6:	2909      	cmp	r1, #9
    7cf8:	d803      	bhi.n	7d02 <_vfiprintf_r+0x18e>
    7cfa:	240a      	movs	r4, #10
    7cfc:	fb04 1303 	mla	r3, r4, r3, r1
    7d00:	e7f5      	b.n	7cee <_vfiprintf_r+0x17a>
    7d02:	9307      	str	r3, [sp, #28]
    7d04:	e771      	b.n	7bea <_vfiprintf_r+0x76>
    7d06:	7862      	ldrb	r2, [r4, #1]
    7d08:	2a2a      	cmp	r2, #42	; 0x2a
    7d0a:	d109      	bne.n	7d20 <_vfiprintf_r+0x1ac>
    7d0c:	9803      	ldr	r0, [sp, #12]
    7d0e:	3402      	adds	r4, #2
    7d10:	6803      	ldr	r3, [r0, #0]
    7d12:	1d02      	adds	r2, r0, #4
    7d14:	2b00      	cmp	r3, #0
    7d16:	9203      	str	r2, [sp, #12]
    7d18:	bfb8      	it	lt
    7d1a:	f04f 33ff 	movlt.w	r3, #4294967295	; 0xffffffff
    7d1e:	e00b      	b.n	7d38 <_vfiprintf_r+0x1c4>
    7d20:	1c67      	adds	r7, r4, #1
    7d22:	2300      	movs	r3, #0
    7d24:	463c      	mov	r4, r7
    7d26:	7821      	ldrb	r1, [r4, #0]
    7d28:	3701      	adds	r7, #1
    7d2a:	3930      	subs	r1, #48	; 0x30
    7d2c:	2909      	cmp	r1, #9
    7d2e:	d803      	bhi.n	7d38 <_vfiprintf_r+0x1c4>
    7d30:	240a      	movs	r4, #10
    7d32:	fb04 1303 	mla	r3, r4, r3, r1
    7d36:	e7f5      	b.n	7d24 <_vfiprintf_r+0x1b0>
    7d38:	9305      	str	r3, [sp, #20]
    7d3a:	e75a      	b.n	7bf2 <_vfiprintf_r+0x7e>
    7d3c:	a903      	add	r1, sp, #12
    7d3e:	9100      	str	r1, [sp, #0]
    7d40:	4630      	mov	r0, r6
    7d42:	a904      	add	r1, sp, #16
    7d44:	462a      	mov	r2, r5
    7d46:	4b15      	ldr	r3, [pc, #84]	; (7d9c <_vfiprintf_r+0x228>)
    7d48:	f3af 8000 	nop.w
    7d4c:	e007      	b.n	7d5e <_vfiprintf_r+0x1ea>
    7d4e:	a803      	add	r0, sp, #12
    7d50:	9000      	str	r0, [sp, #0]
    7d52:	a904      	add	r1, sp, #16
    7d54:	4630      	mov	r0, r6
    7d56:	462a      	mov	r2, r5
    7d58:	4b10      	ldr	r3, [pc, #64]	; (7d9c <_vfiprintf_r+0x228>)
    7d5a:	f000 f891 	bl	7e80 <_printf_i>
    7d5e:	f1b0 3fff 	cmp.w	r0, #4294967295	; 0xffffffff
    7d62:	4680      	mov	r8, r0
    7d64:	f47f af69 	bne.w	7c3a <_vfiprintf_r+0xc6>
    7d68:	89ab      	ldrh	r3, [r5, #12]
    7d6a:	f003 0040 	and.w	r0, r3, #64	; 0x40
    7d6e:	b202      	sxth	r2, r0
    7d70:	2a00      	cmp	r2, #0
    7d72:	f47f af2f 	bne.w	7bd4 <_vfiprintf_r+0x60>
    7d76:	9809      	ldr	r0, [sp, #36]	; 0x24
    7d78:	b01c      	add	sp, #112	; 0x70
    7d7a:	e8bd 87f0 	ldmia.w	sp!, {r4, r5, r6, r7, r8, r9, r10, pc}
    7d7e:	bf00      	nop
    7d80:	00009698 	.word	0x00009698
    7d84:	000096b8 	.word	0x000096b8
    7d88:	000096d8 	.word	0x000096d8
    7d8c:	00009706 	.word	0x00009706
    7d90:	0000970a 	.word	0x0000970a
    7d94:	00000000 	.word	0x00000000
    7d98:	00009700 	.word	0x00009700
    7d9c:	00007b47 	.word	0x00007b47

00007da0 <_printf_common>:
    7da0:	e92d 47f0 	stmdb	sp!, {r4, r5, r6, r7, r8, r9, r10, lr}
    7da4:	4615      	mov	r5, r2
    7da6:	4699      	mov	r9, r3
    7da8:	688a      	ldr	r2, [r1, #8]
    7daa:	690b      	ldr	r3, [r1, #16]
    7dac:	4680      	mov	r8, r0
    7dae:	429a      	cmp	r2, r3
    7db0:	bfa8      	it	ge
    7db2:	4613      	movge	r3, r2
    7db4:	602b      	str	r3, [r5, #0]
    7db6:	f891 0043 	ldrb.w	r0, [r1, #67]	; 0x43
    7dba:	460c      	mov	r4, r1
    7dbc:	f8dd a020 	ldr.w	r10, [sp, #32]
    7dc0:	b108      	cbz	r0, 7dc6 <_printf_common+0x26>
    7dc2:	1c59      	adds	r1, r3, #1
    7dc4:	6029      	str	r1, [r5, #0]
    7dc6:	6826      	ldr	r6, [r4, #0]
    7dc8:	06b2      	lsls	r2, r6, #26
    7dca:	d502      	bpl.n	7dd2 <_printf_common+0x32>
    7dcc:	682a      	ldr	r2, [r5, #0]
    7dce:	1c93      	adds	r3, r2, #2
    7dd0:	602b      	str	r3, [r5, #0]
    7dd2:	6820      	ldr	r0, [r4, #0]
    7dd4:	f010 0606 	ands.w	r6, r0, #6
    7dd8:	d018      	beq.n	7e0c <_printf_common+0x6c>
    7dda:	f894 7043 	ldrb.w	r7, [r4, #67]	; 0x43
    7dde:	6820      	ldr	r0, [r4, #0]
    7de0:	1c3e      	adds	r6, r7, #0
    7de2:	bf18      	it	ne
    7de4:	2601      	movne	r6, #1
    7de6:	0683      	lsls	r3, r0, #26
    7de8:	d51a      	bpl.n	7e20 <_printf_common+0x80>
    7dea:	19a1      	adds	r1, r4, r6
    7dec:	2230      	movs	r2, #48	; 0x30
    7dee:	f881 2043 	strb.w	r2, [r1, #67]	; 0x43
    7df2:	f894 3045 	ldrb.w	r3, [r4, #69]	; 0x45
    7df6:	3602      	adds	r6, #2
    7df8:	f881 3044 	strb.w	r3, [r1, #68]	; 0x44
    7dfc:	e010      	b.n	7e20 <_printf_common+0x80>
    7dfe:	4640      	mov	r0, r8
    7e00:	7e61      	ldrb	r1, [r4, #25]
    7e02:	464a      	mov	r2, r9
    7e04:	47d0      	blx	r10
    7e06:	3001      	adds	r0, #1
    7e08:	d006      	beq.n	7e18 <_printf_common+0x78>
    7e0a:	3601      	adds	r6, #1
    7e0c:	68e1      	ldr	r1, [r4, #12]
    7e0e:	682a      	ldr	r2, [r5, #0]
    7e10:	1a8b      	subs	r3, r1, r2
    7e12:	429e      	cmp	r6, r3
    7e14:	dbf3      	blt.n	7dfe <_printf_common+0x5e>
    7e16:	e7e0      	b.n	7dda <_printf_common+0x3a>
    7e18:	f04f 30ff 	mov.w	r0, #4294967295	; 0xffffffff
    7e1c:	e8bd 87f0 	ldmia.w	sp!, {r4, r5, r6, r7, r8, r9, r10, pc}
    7e20:	2700      	movs	r7, #0
    7e22:	42b7      	cmp	r7, r6
    7e24:	da09      	bge.n	7e3a <_printf_common+0x9a>
    7e26:	19e1      	adds	r1, r4, r7
    7e28:	4640      	mov	r0, r8
    7e2a:	f891 1043 	ldrb.w	r1, [r1, #67]	; 0x43
    7e2e:	464a      	mov	r2, r9
    7e30:	47d0      	blx	r10
    7e32:	3001      	adds	r0, #1
    7e34:	d0f0      	beq.n	7e18 <_printf_common+0x78>
    7e36:	3701      	adds	r7, #1
    7e38:	e7f3      	b.n	7e22 <_printf_common+0x82>
    7e3a:	6821      	ldr	r1, [r4, #0]
    7e3c:	6828      	ldr	r0, [r5, #0]
    7e3e:	68e6      	ldr	r6, [r4, #12]
    7e40:	f001 0206 	and.w	r2, r1, #6
    7e44:	2a04      	cmp	r2, #4
    7e46:	bf08      	it	eq
    7e48:	ebc0 0506 	rsbeq	r5, r0, r6
    7e4c:	6923      	ldr	r3, [r4, #16]
    7e4e:	68a6      	ldr	r6, [r4, #8]
    7e50:	bf0c      	ite	eq
    7e52:	ea25 75e5 	biceq.w	r5, r5, r5, asr #31
    7e56:	2500      	movne	r5, #0
    7e58:	429e      	cmp	r6, r3
    7e5a:	bfc4      	itt	gt
    7e5c:	ebc3 0306 	rsbgt	r3, r3, r6
    7e60:	18ed      	addgt	r5, r5, r3
    7e62:	2600      	movs	r6, #0
    7e64:	42ae      	cmp	r6, r5
    7e66:	da07      	bge.n	7e78 <_printf_common+0xd8>
    7e68:	4640      	mov	r0, r8
    7e6a:	7ea1      	ldrb	r1, [r4, #26]
    7e6c:	464a      	mov	r2, r9
    7e6e:	47d0      	blx	r10
    7e70:	3001      	adds	r0, #1
    7e72:	d0d1      	beq.n	7e18 <_printf_common+0x78>
    7e74:	3601      	adds	r6, #1
    7e76:	e7f5      	b.n	7e64 <_printf_common+0xc4>
    7e78:	2000      	movs	r0, #0
    7e7a:	e8bd 87f0 	ldmia.w	sp!, {r4, r5, r6, r7, r8, r9, r10, pc}
	...

00007e80 <_printf_i>:
    7e80:	e92d 43f0 	stmdb	sp!, {r4, r5, r6, r7, r8, r9, lr}
    7e84:	460c      	mov	r4, r1
    7e86:	7e25      	ldrb	r5, [r4, #24]
    7e88:	b085      	sub	sp, #20
    7e8a:	2d6e      	cmp	r5, #110	; 0x6e
    7e8c:	4690      	mov	r8, r2
    7e8e:	4607      	mov	r7, r0
    7e90:	4699      	mov	r9, r3
    7e92:	990c      	ldr	r1, [sp, #48]	; 0x30
    7e94:	f104 0243 	add.w	r2, r4, #67	; 0x43
    7e98:	f000 80aa 	beq.w	7ff0 <_printf_i+0x170>
    7e9c:	d812      	bhi.n	7ec4 <_printf_i+0x44>
    7e9e:	2d63      	cmp	r5, #99	; 0x63
    7ea0:	d024      	beq.n	7eec <_printf_i+0x6c>
    7ea2:	d809      	bhi.n	7eb8 <_printf_i+0x38>
    7ea4:	2d00      	cmp	r5, #0
    7ea6:	f000 80bb 	beq.w	8020 <_printf_i+0x1a0>
    7eaa:	2d58      	cmp	r5, #88	; 0x58
    7eac:	f040 80cb 	bne.w	8046 <_printf_i+0x1c6>
    7eb0:	f884 5045 	strb.w	r5, [r4, #69]	; 0x45
    7eb4:	4d82      	ldr	r5, [pc, #520]	; (80c0 <_printf_i+0x240>)
    7eb6:	e057      	b.n	7f68 <_printf_i+0xe8>
    7eb8:	2d64      	cmp	r5, #100	; 0x64
    7eba:	d020      	beq.n	7efe <_printf_i+0x7e>
    7ebc:	2d69      	cmp	r5, #105	; 0x69
    7ebe:	f040 80c2 	bne.w	8046 <_printf_i+0x1c6>
    7ec2:	e01c      	b.n	7efe <_printf_i+0x7e>
    7ec4:	2d73      	cmp	r5, #115	; 0x73
    7ec6:	f000 80af 	beq.w	8028 <_printf_i+0x1a8>
    7eca:	d809      	bhi.n	7ee0 <_printf_i+0x60>
    7ecc:	2d6f      	cmp	r5, #111	; 0x6f
    7ece:	d02f      	beq.n	7f30 <_printf_i+0xb0>
    7ed0:	2d70      	cmp	r5, #112	; 0x70
    7ed2:	f040 80b8 	bne.w	8046 <_printf_i+0x1c6>
    7ed6:	6825      	ldr	r5, [r4, #0]
    7ed8:	f045 0620 	orr.w	r6, r5, #32
    7edc:	6026      	str	r6, [r4, #0]
    7ede:	e03f      	b.n	7f60 <_printf_i+0xe0>
    7ee0:	2d75      	cmp	r5, #117	; 0x75
    7ee2:	d025      	beq.n	7f30 <_printf_i+0xb0>
    7ee4:	2d78      	cmp	r5, #120	; 0x78
    7ee6:	f040 80ae 	bne.w	8046 <_printf_i+0x1c6>
    7eea:	e039      	b.n	7f60 <_printf_i+0xe0>
    7eec:	6808      	ldr	r0, [r1, #0]
    7eee:	f104 0642 	add.w	r6, r4, #66	; 0x42
    7ef2:	1d02      	adds	r2, r0, #4
    7ef4:	600a      	str	r2, [r1, #0]
    7ef6:	6801      	ldr	r1, [r0, #0]
    7ef8:	f884 1042 	strb.w	r1, [r4, #66]	; 0x42
    7efc:	e0a7      	b.n	804e <_printf_i+0x1ce>
    7efe:	6820      	ldr	r0, [r4, #0]
    7f00:	680b      	ldr	r3, [r1, #0]
    7f02:	f010 0f80 	tst.w	r0, #128	; 0x80
    7f06:	d002      	beq.n	7f0e <_printf_i+0x8e>
    7f08:	1d1e      	adds	r6, r3, #4
    7f0a:	600e      	str	r6, [r1, #0]
    7f0c:	e008      	b.n	7f20 <_printf_i+0xa0>
    7f0e:	f103 0504 	add.w	r5, r3, #4
    7f12:	f010 0f40 	tst.w	r0, #64	; 0x40
    7f16:	600d      	str	r5, [r1, #0]
    7f18:	d002      	beq.n	7f20 <_printf_i+0xa0>
    7f1a:	f9b3 1000 	ldrsh.w	r1, [r3]
    7f1e:	e000      	b.n	7f22 <_printf_i+0xa2>
    7f20:	6819      	ldr	r1, [r3, #0]
    7f22:	2900      	cmp	r1, #0
    7f24:	da3c      	bge.n	7fa0 <_printf_i+0x120>
    7f26:	202d      	movs	r0, #45	; 0x2d
    7f28:	4249      	negs	r1, r1
    7f2a:	f884 0043 	strb.w	r0, [r4, #67]	; 0x43
    7f2e:	e037      	b.n	7fa0 <_printf_i+0x120>
    7f30:	6825      	ldr	r5, [r4, #0]
    7f32:	680e      	ldr	r6, [r1, #0]
    7f34:	f015 0f80 	tst.w	r5, #128	; 0x80
    7f38:	d002      	beq.n	7f40 <_printf_i+0xc0>
    7f3a:	1d33      	adds	r3, r6, #4
    7f3c:	600b      	str	r3, [r1, #0]
    7f3e:	e007      	b.n	7f50 <_printf_i+0xd0>
    7f40:	f106 0004 	add.w	r0, r6, #4
    7f44:	f015 0f40 	tst.w	r5, #64	; 0x40
    7f48:	6008      	str	r0, [r1, #0]
    7f4a:	d001      	beq.n	7f50 <_printf_i+0xd0>
    7f4c:	8831      	ldrh	r1, [r6, #0]
    7f4e:	e000      	b.n	7f52 <_printf_i+0xd2>
    7f50:	6831      	ldr	r1, [r6, #0]
    7f52:	7e26      	ldrb	r6, [r4, #24]
    7f54:	4d5a      	ldr	r5, [pc, #360]	; (80c0 <_printf_i+0x240>)
    7f56:	2e6f      	cmp	r6, #111	; 0x6f
    7f58:	bf14      	ite	ne
    7f5a:	230a      	movne	r3, #10
    7f5c:	2308      	moveq	r3, #8
    7f5e:	e01b      	b.n	7f98 <_printf_i+0x118>
    7f60:	2078      	movs	r0, #120	; 0x78
    7f62:	4d58      	ldr	r5, [pc, #352]	; (80c4 <_printf_i+0x244>)
    7f64:	f884 0045 	strb.w	r0, [r4, #69]	; 0x45
    7f68:	6820      	ldr	r0, [r4, #0]
    7f6a:	680b      	ldr	r3, [r1, #0]
    7f6c:	f010 0f80 	tst.w	r0, #128	; 0x80
    7f70:	f103 0604 	add.w	r6, r3, #4
    7f74:	600e      	str	r6, [r1, #0]
    7f76:	d103      	bne.n	7f80 <_printf_i+0x100>
    7f78:	0641      	lsls	r1, r0, #25
    7f7a:	d501      	bpl.n	7f80 <_printf_i+0x100>
    7f7c:	8819      	ldrh	r1, [r3, #0]
    7f7e:	e000      	b.n	7f82 <_printf_i+0x102>
    7f80:	6819      	ldr	r1, [r3, #0]
    7f82:	07c6      	lsls	r6, r0, #31
    7f84:	bf44      	itt	mi
    7f86:	f040 0020 	orrmi.w	r0, r0, #32
    7f8a:	6020      	strmi	r0, [r4, #0]
    7f8c:	b919      	cbnz	r1, 7f96 <_printf_i+0x116>
    7f8e:	6820      	ldr	r0, [r4, #0]
    7f90:	f020 0320 	bic.w	r3, r0, #32
    7f94:	6023      	str	r3, [r4, #0]
    7f96:	2310      	movs	r3, #16
    7f98:	2000      	movs	r0, #0
    7f9a:	f884 0043 	strb.w	r0, [r4, #67]	; 0x43
    7f9e:	e001      	b.n	7fa4 <_printf_i+0x124>
    7fa0:	4d47      	ldr	r5, [pc, #284]	; (80c0 <_printf_i+0x240>)
    7fa2:	230a      	movs	r3, #10
    7fa4:	6866      	ldr	r6, [r4, #4]
    7fa6:	2e00      	cmp	r6, #0
    7fa8:	60a6      	str	r6, [r4, #8]
    7faa:	db03      	blt.n	7fb4 <_printf_i+0x134>
    7fac:	6820      	ldr	r0, [r4, #0]
    7fae:	f020 0004 	bic.w	r0, r0, #4
    7fb2:	6020      	str	r0, [r4, #0]
    7fb4:	b901      	cbnz	r1, 7fb8 <_printf_i+0x138>
    7fb6:	b16e      	cbz	r6, 7fd4 <_printf_i+0x154>
    7fb8:	f104 0042 	add.w	r0, r4, #66	; 0x42
    7fbc:	fbb1 fef3 	udiv	lr, r1, r3
    7fc0:	fb03 111e 	mls	r1, r3, lr, r1
    7fc4:	5c69      	ldrb	r1, [r5, r1]
    7fc6:	4606      	mov	r6, r0
    7fc8:	f800 1901 	strb.w	r1, [r0], #-1
    7fcc:	4671      	mov	r1, lr
    7fce:	2900      	cmp	r1, #0
    7fd0:	d1f4      	bne.n	7fbc <_printf_i+0x13c>
    7fd2:	e000      	b.n	7fd6 <_printf_i+0x156>
    7fd4:	4616      	mov	r6, r2
    7fd6:	1b92      	subs	r2, r2, r6
    7fd8:	2b08      	cmp	r3, #8
    7fda:	6122      	str	r2, [r4, #16]
    7fdc:	d13c      	bne.n	8058 <_printf_i+0x1d8>
    7fde:	6823      	ldr	r3, [r4, #0]
    7fe0:	07d8      	lsls	r0, r3, #31
    7fe2:	d539      	bpl.n	8058 <_printf_i+0x1d8>
    7fe4:	6860      	ldr	r0, [r4, #4]
    7fe6:	4290      	cmp	r0, r2
    7fe8:	dc36      	bgt.n	8058 <_printf_i+0x1d8>
    7fea:	1c51      	adds	r1, r2, #1
    7fec:	6061      	str	r1, [r4, #4]
    7fee:	e033      	b.n	8058 <_printf_i+0x1d8>
    7ff0:	6826      	ldr	r6, [r4, #0]
    7ff2:	680b      	ldr	r3, [r1, #0]
    7ff4:	f016 0f80 	tst.w	r6, #128	; 0x80
    7ff8:	d005      	beq.n	8006 <_printf_i+0x186>
    7ffa:	1d1e      	adds	r6, r3, #4
    7ffc:	600e      	str	r6, [r1, #0]
    7ffe:	6819      	ldr	r1, [r3, #0]
    8000:	6960      	ldr	r0, [r4, #20]
    8002:	6008      	str	r0, [r1, #0]
    8004:	e00c      	b.n	8020 <_printf_i+0x1a0>
    8006:	f103 0004 	add.w	r0, r3, #4
    800a:	f016 0f40 	tst.w	r6, #64	; 0x40
    800e:	6008      	str	r0, [r1, #0]
    8010:	d003      	beq.n	801a <_printf_i+0x19a>
    8012:	6818      	ldr	r0, [r3, #0]
    8014:	6963      	ldr	r3, [r4, #20]
    8016:	8003      	strh	r3, [r0, #0]
    8018:	e002      	b.n	8020 <_printf_i+0x1a0>
    801a:	6961      	ldr	r1, [r4, #20]
    801c:	681e      	ldr	r6, [r3, #0]
    801e:	6031      	str	r1, [r6, #0]
    8020:	2300      	movs	r3, #0
    8022:	6123      	str	r3, [r4, #16]
    8024:	4616      	mov	r6, r2
    8026:	e017      	b.n	8058 <_printf_i+0x1d8>
    8028:	680e      	ldr	r6, [r1, #0]
    802a:	1d32      	adds	r2, r6, #4
    802c:	600a      	str	r2, [r1, #0]
    802e:	6836      	ldr	r6, [r6, #0]
    8030:	4630      	mov	r0, r6
    8032:	f7ff fa1b 	bl	746c <strlen>
    8036:	6863      	ldr	r3, [r4, #4]
    8038:	6120      	str	r0, [r4, #16]
    803a:	4298      	cmp	r0, r3
    803c:	bf88      	it	hi
    803e:	6123      	strhi	r3, [r4, #16]
    8040:	6920      	ldr	r0, [r4, #16]
    8042:	6060      	str	r0, [r4, #4]
    8044:	e005      	b.n	8052 <_printf_i+0x1d2>
    8046:	f104 0642 	add.w	r6, r4, #66	; 0x42
    804a:	f884 5042 	strb.w	r5, [r4, #66]	; 0x42
    804e:	2301      	movs	r3, #1
    8050:	6123      	str	r3, [r4, #16]
    8052:	2100      	movs	r1, #0
    8054:	f884 1043 	strb.w	r1, [r4, #67]	; 0x43
    8058:	f8cd 9000 	str.w	r9, [sp]
    805c:	4638      	mov	r0, r7
    805e:	4621      	mov	r1, r4
    8060:	aa03      	add	r2, sp, #12
    8062:	4643      	mov	r3, r8
    8064:	f7ff fe9c 	bl	7da0 <_printf_common>
    8068:	3001      	adds	r0, #1
    806a:	d102      	bne.n	8072 <_printf_i+0x1f2>
    806c:	f04f 30ff 	mov.w	r0, #4294967295	; 0xffffffff
    8070:	e022      	b.n	80b8 <_printf_i+0x238>
    8072:	2500      	movs	r5, #0
    8074:	6922      	ldr	r2, [r4, #16]
    8076:	4295      	cmp	r5, r2
    8078:	da07      	bge.n	808a <_printf_i+0x20a>
    807a:	4638      	mov	r0, r7
    807c:	5d71      	ldrb	r1, [r6, r5]
    807e:	4642      	mov	r2, r8
    8080:	47c8      	blx	r9
    8082:	3001      	adds	r0, #1
    8084:	d0f2      	beq.n	806c <_printf_i+0x1ec>
    8086:	3501      	adds	r5, #1
    8088:	e7f4      	b.n	8074 <_printf_i+0x1f4>
    808a:	6821      	ldr	r1, [r4, #0]
    808c:	0789      	lsls	r1, r1, #30
    808e:	d405      	bmi.n	809c <_printf_i+0x21c>
    8090:	68e0      	ldr	r0, [r4, #12]
    8092:	9903      	ldr	r1, [sp, #12]
    8094:	4288      	cmp	r0, r1
    8096:	bfb8      	it	lt
    8098:	4608      	movlt	r0, r1
    809a:	e00d      	b.n	80b8 <_printf_i+0x238>
    809c:	2500      	movs	r5, #0
    809e:	68e0      	ldr	r0, [r4, #12]
    80a0:	9b03      	ldr	r3, [sp, #12]
    80a2:	1ac2      	subs	r2, r0, r3
    80a4:	4295      	cmp	r5, r2
    80a6:	daf3      	bge.n	8090 <_printf_i+0x210>
    80a8:	4638      	mov	r0, r7
    80aa:	7e61      	ldrb	r1, [r4, #25]
    80ac:	4642      	mov	r2, r8
    80ae:	47c8      	blx	r9
    80b0:	3001      	adds	r0, #1
    80b2:	d0db      	beq.n	806c <_printf_i+0x1ec>
    80b4:	3501      	adds	r5, #1
    80b6:	e7f2      	b.n	809e <_printf_i+0x21e>
    80b8:	b005      	add	sp, #20
    80ba:	e8bd 83f0 	ldmia.w	sp!, {r4, r5, r6, r7, r8, r9, pc}
    80be:	bf00      	nop
    80c0:	00009711 	.word	0x00009711
    80c4:	00009722 	.word	0x00009722

000080c8 <_scanf_chars>:
    80c8:	e92d 41f0 	stmdb	sp!, {r4, r5, r6, r7, r8, lr}
    80cc:	4615      	mov	r5, r2
    80ce:	688a      	ldr	r2, [r1, #8]
    80d0:	4680      	mov	r8, r0
    80d2:	460c      	mov	r4, r1
    80d4:	b932      	cbnz	r2, 80e4 <_scanf_chars+0x1c>
    80d6:	6988      	ldr	r0, [r1, #24]
    80d8:	2800      	cmp	r0, #0
    80da:	bf14      	ite	ne
    80dc:	f04f 31ff 	movne.w	r1, #4294967295	; 0xffffffff
    80e0:	2101      	moveq	r1, #1
    80e2:	60a1      	str	r1, [r4, #8]
    80e4:	6826      	ldr	r6, [r4, #0]
    80e6:	06f2      	lsls	r2, r6, #27
    80e8:	d403      	bmi.n	80f2 <_scanf_chars+0x2a>
    80ea:	681f      	ldr	r7, [r3, #0]
    80ec:	1d3a      	adds	r2, r7, #4
    80ee:	601a      	str	r2, [r3, #0]
    80f0:	683f      	ldr	r7, [r7, #0]
    80f2:	2600      	movs	r6, #0
    80f4:	69a3      	ldr	r3, [r4, #24]
    80f6:	b9db      	cbnz	r3, 8130 <_scanf_chars+0x68>
    80f8:	6823      	ldr	r3, [r4, #0]
    80fa:	3601      	adds	r6, #1
    80fc:	06db      	lsls	r3, r3, #27
    80fe:	d403      	bmi.n	8108 <_scanf_chars+0x40>
    8100:	6828      	ldr	r0, [r5, #0]
    8102:	7802      	ldrb	r2, [r0, #0]
    8104:	f807 2b01 	strb.w	r2, [r7], #1
    8108:	6869      	ldr	r1, [r5, #4]
    810a:	6828      	ldr	r0, [r5, #0]
    810c:	1e4b      	subs	r3, r1, #1
    810e:	68a1      	ldr	r1, [r4, #8]
    8110:	1c42      	adds	r2, r0, #1
    8112:	1e48      	subs	r0, r1, #1
    8114:	606b      	str	r3, [r5, #4]
    8116:	602a      	str	r2, [r5, #0]
    8118:	60a0      	str	r0, [r4, #8]
    811a:	b328      	cbz	r0, 8168 <_scanf_chars+0xa0>
    811c:	2b00      	cmp	r3, #0
    811e:	dce9      	bgt.n	80f4 <_scanf_chars+0x2c>
    8120:	f8d4 3180 	ldr.w	r3, [r4, #384]	; 0x180
    8124:	4640      	mov	r0, r8
    8126:	4629      	mov	r1, r5
    8128:	4798      	blx	r3
    812a:	2800      	cmp	r0, #0
    812c:	d0e2      	beq.n	80f4 <_scanf_chars+0x2c>
    812e:	e01b      	b.n	8168 <_scanf_chars+0xa0>
    8130:	2b01      	cmp	r3, #1
    8132:	d107      	bne.n	8144 <_scanf_chars+0x7c>
    8134:	6829      	ldr	r1, [r5, #0]
    8136:	6962      	ldr	r2, [r4, #20]
    8138:	7808      	ldrb	r0, [r1, #0]
    813a:	5c11      	ldrb	r1, [r2, r0]
    813c:	2900      	cmp	r1, #0
    813e:	d1db      	bne.n	80f8 <_scanf_chars+0x30>
    8140:	b316      	cbz	r6, 8188 <_scanf_chars+0xc0>
    8142:	e011      	b.n	8168 <_scanf_chars+0xa0>
    8144:	2b02      	cmp	r3, #2
    8146:	d001      	beq.n	814c <_scanf_chars+0x84>
    8148:	b166      	cbz	r6, 8164 <_scanf_chars+0x9c>
    814a:	e00d      	b.n	8168 <_scanf_chars+0xa0>
    814c:	6828      	ldr	r0, [r5, #0]
    814e:	4910      	ldr	r1, [pc, #64]	; (8190 <_scanf_chars+0xc8>)
    8150:	7802      	ldrb	r2, [r0, #0]
    8152:	6808      	ldr	r0, [r1, #0]
    8154:	1882      	adds	r2, r0, r2
    8156:	7851      	ldrb	r1, [r2, #1]
    8158:	f001 0008 	and.w	r0, r1, #8
    815c:	b2c2      	uxtb	r2, r0
    815e:	2a00      	cmp	r2, #0
    8160:	d0ca      	beq.n	80f8 <_scanf_chars+0x30>
    8162:	e7f1      	b.n	8148 <_scanf_chars+0x80>
    8164:	2b01      	cmp	r3, #1
    8166:	d00f      	beq.n	8188 <_scanf_chars+0xc0>
    8168:	6822      	ldr	r2, [r4, #0]
    816a:	f012 0110 	ands.w	r1, r2, #16
    816e:	d105      	bne.n	817c <_scanf_chars+0xb4>
    8170:	68e0      	ldr	r0, [r4, #12]
    8172:	69a2      	ldr	r2, [r4, #24]
    8174:	1c43      	adds	r3, r0, #1
    8176:	60e3      	str	r3, [r4, #12]
    8178:	b102      	cbz	r2, 817c <_scanf_chars+0xb4>
    817a:	7039      	strb	r1, [r7, #0]
    817c:	6921      	ldr	r1, [r4, #16]
    817e:	2000      	movs	r0, #0
    8180:	198e      	adds	r6, r1, r6
    8182:	6126      	str	r6, [r4, #16]
    8184:	e8bd 81f0 	ldmia.w	sp!, {r4, r5, r6, r7, r8, pc}
    8188:	4618      	mov	r0, r3
    818a:	e8bd 81f0 	ldmia.w	sp!, {r4, r5, r6, r7, r8, pc}
    818e:	bf00      	nop
    8190:	10000138 	.word	0x10000138

00008194 <_scanf_i>:
    8194:	e92d 4ff0 	stmdb	sp!, {r4, r5, r6, r7, r8, r9, r10, r11, lr}
    8198:	461f      	mov	r7, r3
    819a:	4b73      	ldr	r3, [pc, #460]	; (8368 <_scanf_i+0x1d4>)
    819c:	460c      	mov	r4, r1
    819e:	b087      	sub	sp, #28
    81a0:	ae06      	add	r6, sp, #24
    81a2:	4681      	mov	r9, r0
    81a4:	4615      	mov	r5, r2
    81a6:	e893 0007 	ldmia.w	r3, {r0, r1, r2}
    81aa:	68a3      	ldr	r3, [r4, #8]
    81ac:	e906 0007 	stmdb	r6, {r0, r1, r2}
    81b0:	69a0      	ldr	r0, [r4, #24]
    81b2:	4a6e      	ldr	r2, [pc, #440]	; (836c <_scanf_i+0x1d8>)
    81b4:	496e      	ldr	r1, [pc, #440]	; (8370 <_scanf_i+0x1dc>)
    81b6:	1e5e      	subs	r6, r3, #1
    81b8:	2803      	cmp	r0, #3
    81ba:	bf08      	it	eq
    81bc:	4611      	moveq	r1, r2
    81be:	f5b6 7fae 	cmp.w	r6, #348	; 0x15c
    81c2:	9101      	str	r1, [sp, #4]
    81c4:	d907      	bls.n	81d6 <_scanf_i+0x42>
    81c6:	f46f 70ae 	mvn.w	r0, #348	; 0x15c
    81ca:	f240 125d 	movw	r2, #349	; 0x15d
    81ce:	eb03 0a00 	add.w	r10, r3, r0
    81d2:	60a2      	str	r2, [r4, #8]
    81d4:	e001      	b.n	81da <_scanf_i+0x46>
    81d6:	f04f 0a00 	mov.w	r10, #0
    81da:	6821      	ldr	r1, [r4, #0]
    81dc:	f104 061c 	add.w	r6, r4, #28
    81e0:	f441 6350 	orr.w	r3, r1, #3328	; 0xd00
    81e4:	6023      	str	r3, [r4, #0]
    81e6:	46b3      	mov	r11, r6
    81e8:	f04f 0800 	mov.w	r8, #0
    81ec:	6829      	ldr	r1, [r5, #0]
    81ee:	a803      	add	r0, sp, #12
    81f0:	f850 0028 	ldr.w	r0, [r0, r8, lsl #2]
    81f4:	7809      	ldrb	r1, [r1, #0]
    81f6:	2202      	movs	r2, #2
    81f8:	f7fe fe54 	bl	6ea4 <memchr>
    81fc:	2800      	cmp	r0, #0
    81fe:	d032      	beq.n	8266 <_scanf_i+0xd2>
    8200:	f1b8 0f01 	cmp.w	r8, #1
    8204:	d10b      	bne.n	821e <_scanf_i+0x8a>
    8206:	6863      	ldr	r3, [r4, #4]
    8208:	b92b      	cbnz	r3, 8216 <_scanf_i+0x82>
    820a:	6821      	ldr	r1, [r4, #0]
    820c:	2208      	movs	r2, #8
    820e:	f441 7000 	orr.w	r0, r1, #512	; 0x200
    8212:	6062      	str	r2, [r4, #4]
    8214:	6020      	str	r0, [r4, #0]
    8216:	6823      	ldr	r3, [r4, #0]
    8218:	f423 60a0 	bic.w	r0, r3, #1280	; 0x500
    821c:	e00c      	b.n	8238 <_scanf_i+0xa4>
    821e:	f1b8 0f02 	cmp.w	r8, #2
    8222:	d10a      	bne.n	823a <_scanf_i+0xa6>
    8224:	6823      	ldr	r3, [r4, #0]
    8226:	f403 62c0 	and.w	r2, r3, #1536	; 0x600
    822a:	f5b2 7f00 	cmp.w	r2, #512	; 0x200
    822e:	d11a      	bne.n	8266 <_scanf_i+0xd2>
    8230:	2110      	movs	r1, #16
    8232:	6061      	str	r1, [r4, #4]
    8234:	f443 7080 	orr.w	r0, r3, #256	; 0x100
    8238:	6020      	str	r0, [r4, #0]
    823a:	68a1      	ldr	r1, [r4, #8]
    823c:	1e4a      	subs	r2, r1, #1
    823e:	60a2      	str	r2, [r4, #8]
    8240:	b189      	cbz	r1, 8266 <_scanf_i+0xd2>
    8242:	6828      	ldr	r0, [r5, #0]
    8244:	f810 3b01 	ldrb.w	r3, [r0], #1
    8248:	f80b 3b01 	strb.w	r3, [r11], #1
    824c:	6869      	ldr	r1, [r5, #4]
    824e:	6028      	str	r0, [r5, #0]
    8250:	1e4a      	subs	r2, r1, #1
    8252:	2a00      	cmp	r2, #0
    8254:	606a      	str	r2, [r5, #4]
    8256:	dc06      	bgt.n	8266 <_scanf_i+0xd2>
    8258:	f8d4 3180 	ldr.w	r3, [r4, #384]	; 0x180
    825c:	4648      	mov	r0, r9
    825e:	4629      	mov	r1, r5
    8260:	4798      	blx	r3
    8262:	2800      	cmp	r0, #0
    8264:	d141      	bne.n	82ea <_scanf_i+0x156>
    8266:	f108 0801 	add.w	r8, r8, #1
    826a:	f1b8 0f03 	cmp.w	r8, #3
    826e:	d1bd      	bne.n	81ec <_scanf_i+0x58>
    8270:	6860      	ldr	r0, [r4, #4]
    8272:	b908      	cbnz	r0, 8278 <_scanf_i+0xe4>
    8274:	210a      	movs	r1, #10
    8276:	6061      	str	r1, [r4, #4]
    8278:	6862      	ldr	r2, [r4, #4]
    827a:	4b3e      	ldr	r3, [pc, #248]	; (8374 <_scanf_i+0x1e0>)
    827c:	6960      	ldr	r0, [r4, #20]
    827e:	1a99      	subs	r1, r3, r2
    8280:	f000 fa2c 	bl	86dc <__sccl>
    8284:	f04f 0800 	mov.w	r8, #0
    8288:	68a3      	ldr	r3, [r4, #8]
    828a:	2b00      	cmp	r3, #0
    828c:	d02f      	beq.n	82ee <_scanf_i+0x15a>
    828e:	682a      	ldr	r2, [r5, #0]
    8290:	6960      	ldr	r0, [r4, #20]
    8292:	7811      	ldrb	r1, [r2, #0]
    8294:	5c40      	ldrb	r0, [r0, r1]
    8296:	b350      	cbz	r0, 82ee <_scanf_i+0x15a>
    8298:	2930      	cmp	r1, #48	; 0x30
    829a:	d10c      	bne.n	82b6 <_scanf_i+0x122>
    829c:	6821      	ldr	r1, [r4, #0]
    829e:	0509      	lsls	r1, r1, #20
    82a0:	d509      	bpl.n	82b6 <_scanf_i+0x122>
    82a2:	f108 0801 	add.w	r8, r8, #1
    82a6:	f1ba 0f00 	cmp.w	r10, #0
    82aa:	d00b      	beq.n	82c4 <_scanf_i+0x130>
    82ac:	1c59      	adds	r1, r3, #1
    82ae:	f10a 3aff 	add.w	r10, r10, #4294967295	; 0xffffffff
    82b2:	60a1      	str	r1, [r4, #8]
    82b4:	e006      	b.n	82c4 <_scanf_i+0x130>
    82b6:	6823      	ldr	r3, [r4, #0]
    82b8:	f423 6010 	bic.w	r0, r3, #2304	; 0x900
    82bc:	6020      	str	r0, [r4, #0]
    82be:	7812      	ldrb	r2, [r2, #0]
    82c0:	f80b 2b01 	strb.w	r2, [r11], #1
    82c4:	686b      	ldr	r3, [r5, #4]
    82c6:	1e58      	subs	r0, r3, #1
    82c8:	2800      	cmp	r0, #0
    82ca:	6068      	str	r0, [r5, #4]
    82cc:	dd03      	ble.n	82d6 <_scanf_i+0x142>
    82ce:	6829      	ldr	r1, [r5, #0]
    82d0:	1c4b      	adds	r3, r1, #1
    82d2:	602b      	str	r3, [r5, #0]
    82d4:	e005      	b.n	82e2 <_scanf_i+0x14e>
    82d6:	f8d4 2180 	ldr.w	r2, [r4, #384]	; 0x180
    82da:	4648      	mov	r0, r9
    82dc:	4629      	mov	r1, r5
    82de:	4790      	blx	r2
    82e0:	b928      	cbnz	r0, 82ee <_scanf_i+0x15a>
    82e2:	68a0      	ldr	r0, [r4, #8]
    82e4:	1e42      	subs	r2, r0, #1
    82e6:	60a2      	str	r2, [r4, #8]
    82e8:	e7ce      	b.n	8288 <_scanf_i+0xf4>
    82ea:	f04f 0800 	mov.w	r8, #0
    82ee:	6821      	ldr	r1, [r4, #0]
    82f0:	05c8      	lsls	r0, r1, #23
    82f2:	d50d      	bpl.n	8310 <_scanf_i+0x17c>
    82f4:	45b3      	cmp	r11, r6
    82f6:	d909      	bls.n	830c <_scanf_i+0x178>
    82f8:	f81b 1c01 	ldrb.w	r1, [r11, #-1]
    82fc:	f8d4 317c 	ldr.w	r3, [r4, #380]	; 0x17c
    8300:	4648      	mov	r0, r9
    8302:	462a      	mov	r2, r5
    8304:	4798      	blx	r3
    8306:	f10b 3aff 	add.w	r10, r11, #4294967295	; 0xffffffff
    830a:	46d3      	mov	r11, r10
    830c:	45b3      	cmp	r11, r6
    830e:	d026      	beq.n	835e <_scanf_i+0x1ca>
    8310:	6820      	ldr	r0, [r4, #0]
    8312:	f010 0210 	ands.w	r2, r0, #16
    8316:	d119      	bne.n	834c <_scanf_i+0x1b8>
    8318:	f88b 2000 	strb.w	r2, [r11]
    831c:	6863      	ldr	r3, [r4, #4]
    831e:	4648      	mov	r0, r9
    8320:	4631      	mov	r1, r6
    8322:	9d01      	ldr	r5, [sp, #4]
    8324:	47a8      	blx	r5
    8326:	6822      	ldr	r2, [r4, #0]
    8328:	683b      	ldr	r3, [r7, #0]
    832a:	f012 0f20 	tst.w	r2, #32
    832e:	d106      	bne.n	833e <_scanf_i+0x1aa>
    8330:	07d1      	lsls	r1, r2, #31
    8332:	d504      	bpl.n	833e <_scanf_i+0x1aa>
    8334:	1d19      	adds	r1, r3, #4
    8336:	6039      	str	r1, [r7, #0]
    8338:	681a      	ldr	r2, [r3, #0]
    833a:	8010      	strh	r0, [r2, #0]
    833c:	e003      	b.n	8346 <_scanf_i+0x1b2>
    833e:	1d19      	adds	r1, r3, #4
    8340:	6039      	str	r1, [r7, #0]
    8342:	681b      	ldr	r3, [r3, #0]
    8344:	6018      	str	r0, [r3, #0]
    8346:	68e0      	ldr	r0, [r4, #12]
    8348:	1c42      	adds	r2, r0, #1
    834a:	60e2      	str	r2, [r4, #12]
    834c:	6921      	ldr	r1, [r4, #16]
    834e:	ebc6 060b 	rsb	r6, r6, r11
    8352:	44b0      	add	r8, r6
    8354:	eb01 0308 	add.w	r3, r1, r8
    8358:	6123      	str	r3, [r4, #16]
    835a:	2000      	movs	r0, #0
    835c:	e000      	b.n	8360 <_scanf_i+0x1cc>
    835e:	2001      	movs	r0, #1
    8360:	b007      	add	sp, #28
    8362:	e8bd 8ff0 	ldmia.w	sp!, {r4, r5, r6, r7, r8, r9, r10, r11, pc}
    8366:	bf00      	nop
    8368:	00009734 	.word	0x00009734
    836c:	0000873d 	.word	0x0000873d
    8370:	00008849 	.word	0x00008849
    8374:	00009750 	.word	0x00009750

00008378 <__swbuf_r>:
    8378:	b570      	push	{r4, r5, r6, lr}
    837a:	460e      	mov	r6, r1
    837c:	4614      	mov	r4, r2
    837e:	4605      	mov	r5, r0
    8380:	b118      	cbz	r0, 838a <__swbuf_r+0x12>
    8382:	6983      	ldr	r3, [r0, #24]
    8384:	b90b      	cbnz	r3, 838a <__swbuf_r+0x12>
    8386:	f7fe f903 	bl	6590 <__sinit>
    838a:	4825      	ldr	r0, [pc, #148]	; (8420 <__swbuf_r+0xa8>)
    838c:	4284      	cmp	r4, r0
    838e:	d101      	bne.n	8394 <__swbuf_r+0x1c>
    8390:	686c      	ldr	r4, [r5, #4]
    8392:	e008      	b.n	83a6 <__swbuf_r+0x2e>
    8394:	4923      	ldr	r1, [pc, #140]	; (8424 <__swbuf_r+0xac>)
    8396:	428c      	cmp	r4, r1
    8398:	d101      	bne.n	839e <__swbuf_r+0x26>
    839a:	68ac      	ldr	r4, [r5, #8]
    839c:	e003      	b.n	83a6 <__swbuf_r+0x2e>
    839e:	4a22      	ldr	r2, [pc, #136]	; (8428 <__swbuf_r+0xb0>)
    83a0:	4294      	cmp	r4, r2
    83a2:	bf08      	it	eq
    83a4:	68ec      	ldreq	r4, [r5, #12]
    83a6:	89a0      	ldrh	r0, [r4, #12]
    83a8:	69a3      	ldr	r3, [r4, #24]
    83aa:	f000 0108 	and.w	r1, r0, #8
    83ae:	b20a      	sxth	r2, r1
    83b0:	60a3      	str	r3, [r4, #8]
    83b2:	b10a      	cbz	r2, 83b8 <__swbuf_r+0x40>
    83b4:	6923      	ldr	r3, [r4, #16]
    83b6:	b95b      	cbnz	r3, 83d0 <__swbuf_r+0x58>
    83b8:	4628      	mov	r0, r5
    83ba:	4621      	mov	r1, r4
    83bc:	f000 f848 	bl	8450 <__swsetup_r>
    83c0:	b130      	cbz	r0, 83d0 <__swbuf_r+0x58>
    83c2:	89a6      	ldrh	r6, [r4, #12]
    83c4:	2009      	movs	r0, #9
    83c6:	f046 0240 	orr.w	r2, r6, #64	; 0x40
    83ca:	81a2      	strh	r2, [r4, #12]
    83cc:	6028      	str	r0, [r5, #0]
    83ce:	e00b      	b.n	83e8 <__swbuf_r+0x70>
    83d0:	6820      	ldr	r0, [r4, #0]
    83d2:	6921      	ldr	r1, [r4, #16]
    83d4:	6962      	ldr	r2, [r4, #20]
    83d6:	1a40      	subs	r0, r0, r1
    83d8:	4290      	cmp	r0, r2
    83da:	b2f6      	uxtb	r6, r6
    83dc:	db07      	blt.n	83ee <__swbuf_r+0x76>
    83de:	4628      	mov	r0, r5
    83e0:	4621      	mov	r1, r4
    83e2:	f7fd ff97 	bl	6314 <_fflush_r>
    83e6:	b110      	cbz	r0, 83ee <__swbuf_r+0x76>
    83e8:	f04f 36ff 	mov.w	r6, #4294967295	; 0xffffffff
    83ec:	e015      	b.n	841a <__swbuf_r+0xa2>
    83ee:	68a3      	ldr	r3, [r4, #8]
    83f0:	6822      	ldr	r2, [r4, #0]
    83f2:	1e59      	subs	r1, r3, #1
    83f4:	60a1      	str	r1, [r4, #8]
    83f6:	f802 6b01 	strb.w	r6, [r2], #1
    83fa:	6963      	ldr	r3, [r4, #20]
    83fc:	3001      	adds	r0, #1
    83fe:	4298      	cmp	r0, r3
    8400:	6022      	str	r2, [r4, #0]
    8402:	d004      	beq.n	840e <__swbuf_r+0x96>
    8404:	89a1      	ldrh	r1, [r4, #12]
    8406:	07cb      	lsls	r3, r1, #31
    8408:	d507      	bpl.n	841a <__swbuf_r+0xa2>
    840a:	2e0a      	cmp	r6, #10
    840c:	d105      	bne.n	841a <__swbuf_r+0xa2>
    840e:	4628      	mov	r0, r5
    8410:	4621      	mov	r1, r4
    8412:	f7fd ff7f 	bl	6314 <_fflush_r>
    8416:	2800      	cmp	r0, #0
    8418:	d1e6      	bne.n	83e8 <__swbuf_r+0x70>
    841a:	4630      	mov	r0, r6
    841c:	bd70      	pop	{r4, r5, r6, pc}
    841e:	bf00      	nop
    8420:	00009698 	.word	0x00009698
    8424:	000096b8 	.word	0x000096b8
    8428:	000096d8 	.word	0x000096d8

0000842c <_write_r>:
    842c:	b538      	push	{r3, r4, r5, lr}
    842e:	4c07      	ldr	r4, [pc, #28]	; (844c <_write_r+0x20>)
    8430:	4605      	mov	r5, r0
    8432:	2000      	movs	r0, #0
    8434:	6020      	str	r0, [r4, #0]
    8436:	4608      	mov	r0, r1
    8438:	4611      	mov	r1, r2
    843a:	461a      	mov	r2, r3
    843c:	f7fb fdf4 	bl	4028 <_write>
    8440:	1c43      	adds	r3, r0, #1
    8442:	d102      	bne.n	844a <_write_r+0x1e>
    8444:	6823      	ldr	r3, [r4, #0]
    8446:	b103      	cbz	r3, 844a <_write_r+0x1e>
    8448:	602b      	str	r3, [r5, #0]
    844a:	bd38      	pop	{r3, r4, r5, pc}
    844c:	10000988 	.word	0x10000988

00008450 <__swsetup_r>:
    8450:	4a36      	ldr	r2, [pc, #216]	; (852c <__swsetup_r+0xdc>)
    8452:	b570      	push	{r4, r5, r6, lr}
    8454:	4605      	mov	r5, r0
    8456:	6810      	ldr	r0, [r2, #0]
    8458:	460c      	mov	r4, r1
    845a:	4616      	mov	r6, r2
    845c:	b118      	cbz	r0, 8466 <__swsetup_r+0x16>
    845e:	6981      	ldr	r1, [r0, #24]
    8460:	b909      	cbnz	r1, 8466 <__swsetup_r+0x16>
    8462:	f7fe f895 	bl	6590 <__sinit>
    8466:	4b32      	ldr	r3, [pc, #200]	; (8530 <__swsetup_r+0xe0>)
    8468:	429c      	cmp	r4, r3
    846a:	d102      	bne.n	8472 <__swsetup_r+0x22>
    846c:	6832      	ldr	r2, [r6, #0]
    846e:	6854      	ldr	r4, [r2, #4]
    8470:	e00c      	b.n	848c <__swsetup_r+0x3c>
    8472:	4830      	ldr	r0, [pc, #192]	; (8534 <__swsetup_r+0xe4>)
    8474:	4284      	cmp	r4, r0
    8476:	d103      	bne.n	8480 <__swsetup_r+0x30>
    8478:	4b2c      	ldr	r3, [pc, #176]	; (852c <__swsetup_r+0xdc>)
    847a:	6818      	ldr	r0, [r3, #0]
    847c:	6884      	ldr	r4, [r0, #8]
    847e:	e005      	b.n	848c <__swsetup_r+0x3c>
    8480:	4a2d      	ldr	r2, [pc, #180]	; (8538 <__swsetup_r+0xe8>)
    8482:	4294      	cmp	r4, r2
    8484:	d102      	bne.n	848c <__swsetup_r+0x3c>
    8486:	4c29      	ldr	r4, [pc, #164]	; (852c <__swsetup_r+0xdc>)
    8488:	6821      	ldr	r1, [r4, #0]
    848a:	68cc      	ldr	r4, [r1, #12]
    848c:	89a1      	ldrh	r1, [r4, #12]
    848e:	f001 0308 	and.w	r3, r1, #8
    8492:	b218      	sxth	r0, r3
    8494:	bb08      	cbnz	r0, 84da <__swsetup_r+0x8a>
    8496:	f001 0210 	and.w	r2, r1, #16
    849a:	b213      	sxth	r3, r2
    849c:	b913      	cbnz	r3, 84a4 <__swsetup_r+0x54>
    849e:	f04f 30ff 	mov.w	r0, #4294967295	; 0xffffffff
    84a2:	bd70      	pop	{r4, r5, r6, pc}
    84a4:	f001 0104 	and.w	r1, r1, #4
    84a8:	b208      	sxth	r0, r1
    84aa:	b190      	cbz	r0, 84d2 <__swsetup_r+0x82>
    84ac:	6b61      	ldr	r1, [r4, #52]	; 0x34
    84ae:	b141      	cbz	r1, 84c2 <__swsetup_r+0x72>
    84b0:	f104 0244 	add.w	r2, r4, #68	; 0x44
    84b4:	4291      	cmp	r1, r2
    84b6:	d002      	beq.n	84be <__swsetup_r+0x6e>
    84b8:	4628      	mov	r0, r5
    84ba:	f7fe f95d 	bl	6778 <_free_r>
    84be:	2300      	movs	r3, #0
    84c0:	6363      	str	r3, [r4, #52]	; 0x34
    84c2:	89a1      	ldrh	r1, [r4, #12]
    84c4:	6923      	ldr	r3, [r4, #16]
    84c6:	f021 0024 	bic.w	r0, r1, #36	; 0x24
    84ca:	2200      	movs	r2, #0
    84cc:	81a0      	strh	r0, [r4, #12]
    84ce:	6062      	str	r2, [r4, #4]
    84d0:	6023      	str	r3, [r4, #0]
    84d2:	89a1      	ldrh	r1, [r4, #12]
    84d4:	f041 0008 	orr.w	r0, r1, #8
    84d8:	81a0      	strh	r0, [r4, #12]
    84da:	6922      	ldr	r2, [r4, #16]
    84dc:	b94a      	cbnz	r2, 84f2 <__swsetup_r+0xa2>
    84de:	89a3      	ldrh	r3, [r4, #12]
    84e0:	f403 7120 	and.w	r1, r3, #640	; 0x280
    84e4:	f5b1 7f00 	cmp.w	r1, #512	; 0x200
    84e8:	d003      	beq.n	84f2 <__swsetup_r+0xa2>
    84ea:	4628      	mov	r0, r5
    84ec:	4621      	mov	r1, r4
    84ee:	f7fe fc2b 	bl	6d48 <__smakebuf_r>
    84f2:	89a0      	ldrh	r0, [r4, #12]
    84f4:	f010 0201 	ands.w	r2, r0, #1
    84f8:	d005      	beq.n	8506 <__swsetup_r+0xb6>
    84fa:	6963      	ldr	r3, [r4, #20]
    84fc:	2200      	movs	r2, #0
    84fe:	4259      	negs	r1, r3
    8500:	60a2      	str	r2, [r4, #8]
    8502:	61a1      	str	r1, [r4, #24]
    8504:	e007      	b.n	8516 <__swsetup_r+0xc6>
    8506:	f000 0302 	and.w	r3, r0, #2
    850a:	b219      	sxth	r1, r3
    850c:	b909      	cbnz	r1, 8512 <__swsetup_r+0xc2>
    850e:	6960      	ldr	r0, [r4, #20]
    8510:	e000      	b.n	8514 <__swsetup_r+0xc4>
    8512:	4610      	mov	r0, r2
    8514:	60a0      	str	r0, [r4, #8]
    8516:	6920      	ldr	r0, [r4, #16]
    8518:	b930      	cbnz	r0, 8528 <__swsetup_r+0xd8>
    851a:	89a2      	ldrh	r2, [r4, #12]
    851c:	f002 0380 	and.w	r3, r2, #128	; 0x80
    8520:	b218      	sxth	r0, r3
    8522:	2800      	cmp	r0, #0
    8524:	d1bb      	bne.n	849e <__swsetup_r+0x4e>
    8526:	bd70      	pop	{r4, r5, r6, pc}
    8528:	2000      	movs	r0, #0
    852a:	bd70      	pop	{r4, r5, r6, pc}
    852c:	10000134 	.word	0x10000134
    8530:	00009698 	.word	0x00009698
    8534:	000096b8 	.word	0x000096b8
    8538:	000096d8 	.word	0x000096d8

0000853c <__do_register_exitproc>:
    853c:	e92d 43f8 	stmdb	sp!, {r3, r4, r5, r6, r7, r8, r9, lr}
    8540:	4699      	mov	r9, r3
    8542:	4b1c      	ldr	r3, [pc, #112]	; (85b4 <__do_register_exitproc+0x78>)
    8544:	4606      	mov	r6, r0
    8546:	681d      	ldr	r5, [r3, #0]
    8548:	460f      	mov	r7, r1
    854a:	6cac      	ldr	r4, [r5, #72]	; 0x48
    854c:	4690      	mov	r8, r2
    854e:	b954      	cbnz	r4, 8566 <__do_register_exitproc+0x2a>
    8550:	f44f 70c6 	mov.w	r0, #396	; 0x18c
    8554:	f7fe fc4c 	bl	6df0 <malloc>
    8558:	2100      	movs	r1, #0
    855a:	64a8      	str	r0, [r5, #72]	; 0x48
    855c:	f44f 72c6 	mov.w	r2, #396	; 0x18c
    8560:	4604      	mov	r4, r0
    8562:	f7fe fcdf 	bl	6f24 <memset>
    8566:	6825      	ldr	r5, [r4, #0]
    8568:	2d1f      	cmp	r5, #31
    856a:	dc1e      	bgt.n	85aa <__do_register_exitproc+0x6e>
    856c:	b1ae      	cbz	r6, 859a <__do_register_exitproc+0x5e>
    856e:	2201      	movs	r2, #1
    8570:	fa02 f205 	lsl.w	r2, r2, r5
    8574:	f8d4 1184 	ldr.w	r1, [r4, #388]	; 0x184
    8578:	eb04 0085 	add.w	r0, r4, r5, lsl #2
    857c:	4311      	orrs	r1, r2
    857e:	2e02      	cmp	r6, #2
    8580:	f8c0 8084 	str.w	r8, [r0, #132]	; 0x84
    8584:	f8c4 1184 	str.w	r1, [r4, #388]	; 0x184
    8588:	f8c0 9104 	str.w	r9, [r0, #260]	; 0x104
    858c:	d105      	bne.n	859a <__do_register_exitproc+0x5e>
    858e:	f8d4 3188 	ldr.w	r3, [r4, #392]	; 0x188
    8592:	ea43 0002 	orr.w	r0, r3, r2
    8596:	f8c4 0188 	str.w	r0, [r4, #392]	; 0x188
    859a:	eb04 0285 	add.w	r2, r4, r5, lsl #2
    859e:	3501      	adds	r5, #1
    85a0:	6057      	str	r7, [r2, #4]
    85a2:	6025      	str	r5, [r4, #0]
    85a4:	2000      	movs	r0, #0
    85a6:	e8bd 83f8 	ldmia.w	sp!, {r3, r4, r5, r6, r7, r8, r9, pc}
    85aa:	f04f 30ff 	mov.w	r0, #4294967295	; 0xffffffff
    85ae:	e8bd 83f8 	ldmia.w	sp!, {r3, r4, r5, r6, r7, r8, r9, pc}
    85b2:	bf00      	nop
    85b4:	000096fc 	.word	0x000096fc

000085b8 <_close_r>:
    85b8:	b538      	push	{r3, r4, r5, lr}
    85ba:	4c06      	ldr	r4, [pc, #24]	; (85d4 <_close_r+0x1c>)
    85bc:	2300      	movs	r3, #0
    85be:	4605      	mov	r5, r0
    85c0:	4608      	mov	r0, r1
    85c2:	6023      	str	r3, [r4, #0]
    85c4:	f7fb fd1a 	bl	3ffc <_close>
    85c8:	1c43      	adds	r3, r0, #1
    85ca:	d102      	bne.n	85d2 <_close_r+0x1a>
    85cc:	6821      	ldr	r1, [r4, #0]
    85ce:	b101      	cbz	r1, 85d2 <_close_r+0x1a>
    85d0:	6029      	str	r1, [r5, #0]
    85d2:	bd38      	pop	{r3, r4, r5, pc}
    85d4:	10000988 	.word	0x10000988

000085d8 <__sflags>:
    85d8:	b570      	push	{r4, r5, r6, lr}
    85da:	780b      	ldrb	r3, [r1, #0]
    85dc:	2b72      	cmp	r3, #114	; 0x72
    85de:	d00d      	beq.n	85fc <__sflags+0x24>
    85e0:	2b77      	cmp	r3, #119	; 0x77
    85e2:	d00f      	beq.n	8604 <__sflags+0x2c>
    85e4:	2b61      	cmp	r3, #97	; 0x61
    85e6:	d105      	bne.n	85f4 <__sflags+0x1c>
    85e8:	f44f 7402 	mov.w	r4, #520	; 0x208
    85ec:	2301      	movs	r3, #1
    85ee:	f44f 7084 	mov.w	r0, #264	; 0x108
    85f2:	e00b      	b.n	860c <__sflags+0x34>
    85f4:	2116      	movs	r1, #22
    85f6:	6001      	str	r1, [r0, #0]
    85f8:	2000      	movs	r0, #0
    85fa:	bd70      	pop	{r4, r5, r6, pc}
    85fc:	2400      	movs	r4, #0
    85fe:	4623      	mov	r3, r4
    8600:	2004      	movs	r0, #4
    8602:	e003      	b.n	860c <__sflags+0x34>
    8604:	f44f 64c0 	mov.w	r4, #1536	; 0x600
    8608:	2301      	movs	r3, #1
    860a:	2008      	movs	r0, #8
    860c:	784d      	ldrb	r5, [r1, #1]
    860e:	b175      	cbz	r5, 862e <__sflags+0x56>
    8610:	2d2b      	cmp	r5, #43	; 0x2b
    8612:	d002      	beq.n	861a <__sflags+0x42>
    8614:	788e      	ldrb	r6, [r1, #2]
    8616:	2e2b      	cmp	r6, #43	; 0x2b
    8618:	d104      	bne.n	8624 <__sflags+0x4c>
    861a:	f020 001c 	bic.w	r0, r0, #28
    861e:	f040 0010 	orr.w	r0, r0, #16
    8622:	2302      	movs	r3, #2
    8624:	2d62      	cmp	r5, #98	; 0x62
    8626:	d005      	beq.n	8634 <__sflags+0x5c>
    8628:	7889      	ldrb	r1, [r1, #2]
    862a:	2962      	cmp	r1, #98	; 0x62
    862c:	d002      	beq.n	8634 <__sflags+0x5c>
    862e:	4323      	orrs	r3, r4
    8630:	6013      	str	r3, [r2, #0]
    8632:	bd70      	pop	{r4, r5, r6, pc}
    8634:	f443 3380 	orr.w	r3, r3, #65536	; 0x10000
    8638:	e7f9      	b.n	862e <__sflags+0x56>
	...

0000863c <_fstat_r>:
    863c:	b538      	push	{r3, r4, r5, lr}
    863e:	4c07      	ldr	r4, [pc, #28]	; (865c <_fstat_r+0x20>)
    8640:	2300      	movs	r3, #0
    8642:	4605      	mov	r5, r0
    8644:	4608      	mov	r0, r1
    8646:	4611      	mov	r1, r2
    8648:	6023      	str	r3, [r4, #0]
    864a:	f7fb fd65 	bl	4118 <_fstat>
    864e:	1c43      	adds	r3, r0, #1
    8650:	d102      	bne.n	8658 <_fstat_r+0x1c>
    8652:	6821      	ldr	r1, [r4, #0]
    8654:	b101      	cbz	r1, 8658 <_fstat_r+0x1c>
    8656:	6029      	str	r1, [r5, #0]
    8658:	bd38      	pop	{r3, r4, r5, pc}
    865a:	bf00      	nop
    865c:	10000988 	.word	0x10000988

00008660 <_isatty_r>:
    8660:	b538      	push	{r3, r4, r5, lr}
    8662:	4c06      	ldr	r4, [pc, #24]	; (867c <_isatty_r+0x1c>)
    8664:	2300      	movs	r3, #0
    8666:	4605      	mov	r5, r0
    8668:	4608      	mov	r0, r1
    866a:	6023      	str	r3, [r4, #0]
    866c:	f7fa fe74 	bl	3358 <__wrap__isatty>
    8670:	1c43      	adds	r3, r0, #1
    8672:	d102      	bne.n	867a <_isatty_r+0x1a>
    8674:	6821      	ldr	r1, [r4, #0]
    8676:	b101      	cbz	r1, 867a <_isatty_r+0x1a>
    8678:	6029      	str	r1, [r5, #0]
    867a:	bd38      	pop	{r3, r4, r5, pc}
    867c:	10000988 	.word	0x10000988

00008680 <_lseek_r>:
    8680:	b538      	push	{r3, r4, r5, lr}
    8682:	4c07      	ldr	r4, [pc, #28]	; (86a0 <_lseek_r+0x20>)
    8684:	4605      	mov	r5, r0
    8686:	2000      	movs	r0, #0
    8688:	6020      	str	r0, [r4, #0]
    868a:	4608      	mov	r0, r1
    868c:	4611      	mov	r1, r2
    868e:	461a      	mov	r2, r3
    8690:	f7fb fd2e 	bl	40f0 <_lseek>
    8694:	1c43      	adds	r3, r0, #1
    8696:	d102      	bne.n	869e <_lseek_r+0x1e>
    8698:	6823      	ldr	r3, [r4, #0]
    869a:	b103      	cbz	r3, 869e <_lseek_r+0x1e>
    869c:	602b      	str	r3, [r5, #0]
    869e:	bd38      	pop	{r3, r4, r5, pc}
    86a0:	10000988 	.word	0x10000988

000086a4 <_malloc_usable_size_r>:
    86a4:	f851 0c04 	ldr.w	r0, [r1, #-4]
    86a8:	2800      	cmp	r0, #0
    86aa:	da02      	bge.n	86b2 <_malloc_usable_size_r+0xe>
    86ac:	3904      	subs	r1, #4
    86ae:	580b      	ldr	r3, [r1, r0]
    86b0:	18c0      	adds	r0, r0, r3
    86b2:	3804      	subs	r0, #4
    86b4:	4770      	bx	lr
	...

000086b8 <_read_r>:
    86b8:	b538      	push	{r3, r4, r5, lr}
    86ba:	4c07      	ldr	r4, [pc, #28]	; (86d8 <_read_r+0x20>)
    86bc:	4605      	mov	r5, r0
    86be:	2000      	movs	r0, #0
    86c0:	6020      	str	r0, [r4, #0]
    86c2:	4608      	mov	r0, r1
    86c4:	4611      	mov	r1, r2
    86c6:	461a      	mov	r2, r3
    86c8:	f7fb fcf4 	bl	40b4 <_read>
    86cc:	1c43      	adds	r3, r0, #1
    86ce:	d102      	bne.n	86d6 <_read_r+0x1e>
    86d0:	6823      	ldr	r3, [r4, #0]
    86d2:	b103      	cbz	r3, 86d6 <_read_r+0x1e>
    86d4:	602b      	str	r3, [r5, #0]
    86d6:	bd38      	pop	{r3, r4, r5, pc}
    86d8:	10000988 	.word	0x10000988

000086dc <__sccl>:
    86dc:	b5f0      	push	{r4, r5, r6, r7, lr}
    86de:	780b      	ldrb	r3, [r1, #0]
    86e0:	2b5e      	cmp	r3, #94	; 0x5e
    86e2:	d002      	beq.n	86ea <__sccl+0xe>
    86e4:	3101      	adds	r1, #1
    86e6:	2400      	movs	r4, #0
    86e8:	e002      	b.n	86f0 <__sccl+0x14>
    86ea:	784b      	ldrb	r3, [r1, #1]
    86ec:	2401      	movs	r4, #1
    86ee:	3102      	adds	r1, #2
    86f0:	2200      	movs	r2, #0
    86f2:	5484      	strb	r4, [r0, r2]
    86f4:	3201      	adds	r2, #1
    86f6:	f5b2 7f80 	cmp.w	r2, #256	; 0x100
    86fa:	d1fa      	bne.n	86f2 <__sccl+0x16>
    86fc:	b90b      	cbnz	r3, 8702 <__sccl+0x26>
    86fe:	1e4a      	subs	r2, r1, #1
    8700:	e01a      	b.n	8738 <__sccl+0x5c>
    8702:	f1c4 0701 	rsb	r7, r4, #1
    8706:	b2fe      	uxtb	r6, r7
    8708:	54c6      	strb	r6, [r0, r3]
    870a:	460a      	mov	r2, r1
    870c:	4611      	mov	r1, r2
    870e:	f811 4b01 	ldrb.w	r4, [r1], #1
    8712:	2c2d      	cmp	r4, #45	; 0x2d
    8714:	d004      	beq.n	8720 <__sccl+0x44>
    8716:	2c5d      	cmp	r4, #93	; 0x5d
    8718:	d00d      	beq.n	8736 <__sccl+0x5a>
    871a:	b16c      	cbz	r4, 8738 <__sccl+0x5c>
    871c:	4623      	mov	r3, r4
    871e:	e7f2      	b.n	8706 <__sccl+0x2a>
    8720:	7855      	ldrb	r5, [r2, #1]
    8722:	2d5d      	cmp	r5, #93	; 0x5d
    8724:	d0fa      	beq.n	871c <__sccl+0x40>
    8726:	429d      	cmp	r5, r3
    8728:	dbf8      	blt.n	871c <__sccl+0x40>
    872a:	3202      	adds	r2, #2
    872c:	3301      	adds	r3, #1
    872e:	42ab      	cmp	r3, r5
    8730:	54c6      	strb	r6, [r0, r3]
    8732:	dbfb      	blt.n	872c <__sccl+0x50>
    8734:	e7ea      	b.n	870c <__sccl+0x30>
    8736:	460a      	mov	r2, r1
    8738:	4610      	mov	r0, r2
    873a:	bdf0      	pop	{r4, r5, r6, r7, pc}

0000873c <_strtol_r>:
    873c:	e92d 4ff7 	stmdb	sp!, {r0, r1, r2, r4, r5, r6, r7, r8, r9, r10, r11, lr}
    8740:	9001      	str	r0, [sp, #4]
    8742:	4840      	ldr	r0, [pc, #256]	; (8844 <_strtol_r+0x108>)
    8744:	f8d0 9000 	ldr.w	r9, [r0]
    8748:	4608      	mov	r0, r1
    874a:	4604      	mov	r4, r0
    874c:	f814 5b01 	ldrb.w	r5, [r4], #1
    8750:	eb09 0605 	add.w	r6, r9, r5
    8754:	7877      	ldrb	r7, [r6, #1]
    8756:	4620      	mov	r0, r4
    8758:	f007 0608 	and.w	r6, r7, #8
    875c:	b2f7      	uxtb	r7, r6
    875e:	2f00      	cmp	r7, #0
    8760:	d1f3      	bne.n	874a <_strtol_r+0xe>
    8762:	2d2d      	cmp	r5, #45	; 0x2d
    8764:	d103      	bne.n	876e <_strtol_r+0x32>
    8766:	f814 5b01 	ldrb.w	r5, [r4], #1
    876a:	2701      	movs	r7, #1
    876c:	e004      	b.n	8778 <_strtol_r+0x3c>
    876e:	2d2b      	cmp	r5, #43	; 0x2b
    8770:	bf04      	itt	eq
    8772:	4624      	moveq	r4, r4
    8774:	f814 5b01 	ldrbeq.w	r5, [r4], #1
    8778:	2b00      	cmp	r3, #0
    877a:	d05c      	beq.n	8836 <_strtol_r+0xfa>
    877c:	2b10      	cmp	r3, #16
    877e:	d107      	bne.n	8790 <_strtol_r+0x54>
    8780:	2d30      	cmp	r5, #48	; 0x30
    8782:	d105      	bne.n	8790 <_strtol_r+0x54>
    8784:	7825      	ldrb	r5, [r4, #0]
    8786:	2d78      	cmp	r5, #120	; 0x78
    8788:	d14e      	bne.n	8828 <_strtol_r+0xec>
    878a:	7865      	ldrb	r5, [r4, #1]
    878c:	2310      	movs	r3, #16
    878e:	3402      	adds	r4, #2
    8790:	2f00      	cmp	r7, #0
    8792:	bf0c      	ite	eq
    8794:	f06f 4000 	mvneq.w	r0, #2147483648	; 0x80000000
    8798:	f04f 4000 	movne.w	r0, #2147483648	; 0x80000000
    879c:	fbb0 faf3 	udiv	r10, r0, r3
    87a0:	2600      	movs	r6, #0
    87a2:	fb03 081a 	mls	r8, r3, r10, r0
    87a6:	4630      	mov	r0, r6
    87a8:	eb09 0c05 	add.w	r12, r9, r5
    87ac:	f89c c001 	ldrb.w	r12, [r12, #1]
    87b0:	f00c 0b04 	and.w	r11, r12, #4
    87b4:	fa5f fb8b 	uxtb.w	r11, r11
    87b8:	f1bb 0f00 	cmp.w	r11, #0
    87bc:	d001      	beq.n	87c2 <_strtol_r+0x86>
    87be:	3d30      	subs	r5, #48	; 0x30
    87c0:	e00b      	b.n	87da <_strtol_r+0x9e>
    87c2:	f01c 0c03 	ands.w	r12, r12, #3
    87c6:	d01b      	beq.n	8800 <_strtol_r+0xc4>
    87c8:	f1bc 0f01 	cmp.w	r12, #1
    87cc:	bf14      	ite	ne
    87ce:	f04f 0c57 	movne.w	r12, #87	; 0x57
    87d2:	f04f 0c37 	moveq.w	r12, #55	; 0x37
    87d6:	ebcc 0505 	rsb	r5, r12, r5
    87da:	429d      	cmp	r5, r3
    87dc:	da10      	bge.n	8800 <_strtol_r+0xc4>
    87de:	f1b6 3fff 	cmp.w	r6, #4294967295	; 0xffffffff
    87e2:	d00a      	beq.n	87fa <_strtol_r+0xbe>
    87e4:	4550      	cmp	r0, r10
    87e6:	d806      	bhi.n	87f6 <_strtol_r+0xba>
    87e8:	d101      	bne.n	87ee <_strtol_r+0xb2>
    87ea:	4545      	cmp	r5, r8
    87ec:	dc03      	bgt.n	87f6 <_strtol_r+0xba>
    87ee:	fb03 5000 	mla	r0, r3, r0, r5
    87f2:	2601      	movs	r6, #1
    87f4:	e001      	b.n	87fa <_strtol_r+0xbe>
    87f6:	f04f 36ff 	mov.w	r6, #4294967295	; 0xffffffff
    87fa:	f814 5b01 	ldrb.w	r5, [r4], #1
    87fe:	e7d3      	b.n	87a8 <_strtol_r+0x6c>
    8800:	1c73      	adds	r3, r6, #1
    8802:	d10a      	bne.n	881a <_strtol_r+0xde>
    8804:	2f00      	cmp	r7, #0
    8806:	9901      	ldr	r1, [sp, #4]
    8808:	bf0c      	ite	eq
    880a:	f06f 4000 	mvneq.w	r0, #2147483648	; 0x80000000
    880e:	f04f 4000 	movne.w	r0, #2147483648	; 0x80000000
    8812:	2322      	movs	r3, #34	; 0x22
    8814:	600b      	str	r3, [r1, #0]
    8816:	b922      	cbnz	r2, 8822 <_strtol_r+0xe6>
    8818:	e011      	b.n	883e <_strtol_r+0x102>
    881a:	b107      	cbz	r7, 881e <_strtol_r+0xe2>
    881c:	4240      	negs	r0, r0
    881e:	b172      	cbz	r2, 883e <_strtol_r+0x102>
    8820:	b106      	cbz	r6, 8824 <_strtol_r+0xe8>
    8822:	1e61      	subs	r1, r4, #1
    8824:	6011      	str	r1, [r2, #0]
    8826:	e00a      	b.n	883e <_strtol_r+0x102>
    8828:	2d58      	cmp	r5, #88	; 0x58
    882a:	d0ae      	beq.n	878a <_strtol_r+0x4e>
    882c:	2530      	movs	r5, #48	; 0x30
    882e:	2b00      	cmp	r3, #0
    8830:	d1ae      	bne.n	8790 <_strtol_r+0x54>
    8832:	2308      	movs	r3, #8
    8834:	e7ac      	b.n	8790 <_strtol_r+0x54>
    8836:	2d30      	cmp	r5, #48	; 0x30
    8838:	d0a4      	beq.n	8784 <_strtol_r+0x48>
    883a:	230a      	movs	r3, #10
    883c:	e7a8      	b.n	8790 <_strtol_r+0x54>
    883e:	e8bd 8ffe 	ldmia.w	sp!, {r1, r2, r3, r4, r5, r6, r7, r8, r9, r10, r11, pc}
    8842:	bf00      	nop
    8844:	10000138 	.word	0x10000138

00008848 <_strtoul_r>:
    8848:	e92d 4ff7 	stmdb	sp!, {r0, r1, r2, r4, r5, r6, r7, r8, r9, r10, r11, lr}
    884c:	9001      	str	r0, [sp, #4]
    884e:	483c      	ldr	r0, [pc, #240]	; (8940 <_strtoul_r+0xf8>)
    8850:	f8d0 9000 	ldr.w	r9, [r0]
    8854:	4608      	mov	r0, r1
    8856:	4604      	mov	r4, r0
    8858:	f814 5b01 	ldrb.w	r5, [r4], #1
    885c:	eb09 0605 	add.w	r6, r9, r5
    8860:	7877      	ldrb	r7, [r6, #1]
    8862:	4620      	mov	r0, r4
    8864:	f007 0608 	and.w	r6, r7, #8
    8868:	b2f7      	uxtb	r7, r6
    886a:	2f00      	cmp	r7, #0
    886c:	d1f3      	bne.n	8856 <_strtoul_r+0xe>
    886e:	2d2d      	cmp	r5, #45	; 0x2d
    8870:	d103      	bne.n	887a <_strtoul_r+0x32>
    8872:	f814 5b01 	ldrb.w	r5, [r4], #1
    8876:	2701      	movs	r7, #1
    8878:	e004      	b.n	8884 <_strtoul_r+0x3c>
    887a:	2d2b      	cmp	r5, #43	; 0x2b
    887c:	bf04      	itt	eq
    887e:	4624      	moveq	r4, r4
    8880:	f814 5b01 	ldrbeq.w	r5, [r4], #1
    8884:	2b00      	cmp	r3, #0
    8886:	d055      	beq.n	8934 <_strtoul_r+0xec>
    8888:	2b10      	cmp	r3, #16
    888a:	d107      	bne.n	889c <_strtoul_r+0x54>
    888c:	2d30      	cmp	r5, #48	; 0x30
    888e:	d105      	bne.n	889c <_strtoul_r+0x54>
    8890:	7825      	ldrb	r5, [r4, #0]
    8892:	2d78      	cmp	r5, #120	; 0x78
    8894:	d147      	bne.n	8926 <_strtoul_r+0xde>
    8896:	7865      	ldrb	r5, [r4, #1]
    8898:	2310      	movs	r3, #16
    889a:	3402      	adds	r4, #2
    889c:	f04f 3aff 	mov.w	r10, #4294967295	; 0xffffffff
    88a0:	fbba faf3 	udiv	r10, r10, r3
    88a4:	fb03 f00a 	mul.w	r0, r3, r10
    88a8:	2600      	movs	r6, #0
    88aa:	ea6f 0800 	mvn.w	r8, r0
    88ae:	4630      	mov	r0, r6
    88b0:	eb09 0c05 	add.w	r12, r9, r5
    88b4:	f89c c001 	ldrb.w	r12, [r12, #1]
    88b8:	f00c 0b04 	and.w	r11, r12, #4
    88bc:	fa5f fb8b 	uxtb.w	r11, r11
    88c0:	f1bb 0f00 	cmp.w	r11, #0
    88c4:	d001      	beq.n	88ca <_strtoul_r+0x82>
    88c6:	3d30      	subs	r5, #48	; 0x30
    88c8:	e00b      	b.n	88e2 <_strtoul_r+0x9a>
    88ca:	f01c 0c03 	ands.w	r12, r12, #3
    88ce:	d01b      	beq.n	8908 <_strtoul_r+0xc0>
    88d0:	f1bc 0f01 	cmp.w	r12, #1
    88d4:	bf14      	ite	ne
    88d6:	f04f 0c57 	movne.w	r12, #87	; 0x57
    88da:	f04f 0c37 	moveq.w	r12, #55	; 0x37
    88de:	ebcc 0505 	rsb	r5, r12, r5
    88e2:	429d      	cmp	r5, r3
    88e4:	da10      	bge.n	8908 <_strtoul_r+0xc0>
    88e6:	f1b6 3fff 	cmp.w	r6, #4294967295	; 0xffffffff
    88ea:	d00a      	beq.n	8902 <_strtoul_r+0xba>
    88ec:	4550      	cmp	r0, r10
    88ee:	d806      	bhi.n	88fe <_strtoul_r+0xb6>
    88f0:	d101      	bne.n	88f6 <_strtoul_r+0xae>
    88f2:	4545      	cmp	r5, r8
    88f4:	dc03      	bgt.n	88fe <_strtoul_r+0xb6>
    88f6:	fb03 5000 	mla	r0, r3, r0, r5
    88fa:	2601      	movs	r6, #1
    88fc:	e001      	b.n	8902 <_strtoul_r+0xba>
    88fe:	f04f 36ff 	mov.w	r6, #4294967295	; 0xffffffff
    8902:	f814 5b01 	ldrb.w	r5, [r4], #1
    8906:	e7d3      	b.n	88b0 <_strtoul_r+0x68>
    8908:	1c73      	adds	r3, r6, #1
    890a:	d105      	bne.n	8918 <_strtoul_r+0xd0>
    890c:	9901      	ldr	r1, [sp, #4]
    890e:	2322      	movs	r3, #34	; 0x22
    8910:	600b      	str	r3, [r1, #0]
    8912:	4630      	mov	r0, r6
    8914:	b922      	cbnz	r2, 8920 <_strtoul_r+0xd8>
    8916:	e011      	b.n	893c <_strtoul_r+0xf4>
    8918:	b107      	cbz	r7, 891c <_strtoul_r+0xd4>
    891a:	4240      	negs	r0, r0
    891c:	b172      	cbz	r2, 893c <_strtoul_r+0xf4>
    891e:	b106      	cbz	r6, 8922 <_strtoul_r+0xda>
    8920:	1e61      	subs	r1, r4, #1
    8922:	6011      	str	r1, [r2, #0]
    8924:	e00a      	b.n	893c <_strtoul_r+0xf4>
    8926:	2d58      	cmp	r5, #88	; 0x58
    8928:	d0b5      	beq.n	8896 <_strtoul_r+0x4e>
    892a:	2530      	movs	r5, #48	; 0x30
    892c:	2b00      	cmp	r3, #0
    892e:	d1b5      	bne.n	889c <_strtoul_r+0x54>
    8930:	2308      	movs	r3, #8
    8932:	e7b3      	b.n	889c <_strtoul_r+0x54>
    8934:	2d30      	cmp	r5, #48	; 0x30
    8936:	d0ab      	beq.n	8890 <_strtoul_r+0x48>
    8938:	230a      	movs	r3, #10
    893a:	e7af      	b.n	889c <_strtoul_r+0x54>
    893c:	e8bd 8ffe 	ldmia.w	sp!, {r1, r2, r3, r4, r5, r6, r7, r8, r9, r10, r11, pc}
    8940:	10000138 	.word	0x10000138

00008944 <_isatty>:
    8944:	f640 1388 	movw	r3, #2440	; 0x988
    8948:	f2c1 0300 	movt	r3, #4096	; 0x1000
    894c:	2258      	movs	r2, #88	; 0x58
    894e:	601a      	str	r2, [r3, #0]
    8950:	2000      	movs	r0, #0
    8952:	4770      	bx	lr

00008954 <_sbrk>:
    8954:	4a06      	ldr	r2, [pc, #24]	; (8970 <_sbrk+0x1c>)
    8956:	f640 1390 	movw	r3, #2448	; 0x990
    895a:	6811      	ldr	r1, [r2, #0]
    895c:	f2c1 0300 	movt	r3, #4096	; 0x1000
    8960:	2900      	cmp	r1, #0
    8962:	bf18      	it	ne
    8964:	460b      	movne	r3, r1
    8966:	1818      	adds	r0, r3, r0
    8968:	6010      	str	r0, [r2, #0]
    896a:	4618      	mov	r0, r3
    896c:	4770      	bx	lr
    896e:	bf00      	nop
    8970:	1000097c 	.word	0x1000097c

00008974 <fabs>:
    8974:	f021 4100 	bic.w	r1, r1, #2147483648	; 0x80000000
    8978:	4770      	bx	lr
    897a:	bf00      	nop

0000897c <_init>:
    897c:	b5f8      	push	{r3, r4, r5, r6, r7, lr}
    897e:	bf00      	nop
    8980:	bcf8      	pop	{r3, r4, r5, r6, r7}
    8982:	bc08      	pop	{r3}
    8984:	469e      	mov	lr, r3
    8986:	4770      	bx	lr

00008988 <_fini>:
    8988:	b5f8      	push	{r3, r4, r5, r6, r7, lr}
    898a:	bf00      	nop
    898c:	bcf8      	pop	{r3, r4, r5, r6, r7}
    898e:	bc08      	pop	{r3}
    8990:	469e      	mov	lr, r3
    8992:	4770      	bx	lr
    8994:	0000      	movs	r0, r0
	...

00008998 <_ZTVN8std_msgs4TimeE>:
    8998:	0000 0000 8a58 0000 0121 0000 0151 0000     ....X...!...Q...
    89a8:	0195 0000 01a1 0000                         ........

000089b0 <_ZTVN14rosserial_msgs9TopicInfoE>:
    89b0:	0000 0000 8a64 0000 07b5 0000 0685 0000     ....d...........
    89c0:	01ad 0000 01b9 0000                         ........

000089c8 <_ZTVN14rosserial_msgs3LogE>:
    89c8:	0000 0000 8a70 0000 0655 0000 05ed 0000     ....p...U.......
    89d8:	01c5 0000 01d1 0000                         ........

000089e0 <_ZTVN3ros10SubscriberIN8std_msgs6StringEEE>:
    89e0:	0000 0000 8a7c 0000 0ae1 0000 0411 0000     ....|...........
    89f0:	0415 0000 0421 0000                         ....!...

000089f8 <_ZTVN8std_msgs6StringE>:
    89f8:	0000 0000 8a88 0000 04c1 0000 0461 0000     ............a...
    8a08:	01f5 0000 0201 0000                         ........

00008a10 <_ZTVN13geometry_msgs6Pose2DE>:
    8a10:	0000 0000 8a94 0000 020d 0000 030d 0000     ................
    8a20:	03f9 0000 0405 0000                         ........

00008a28 <_ZTVN3ros11NodeHandle_I12MbedHardwareLi25ELi25ELi512ELi512EEE>:
    8a28:	0000 0000 8aa0 0000 09b5 0000 0b49 0000     ............I...
    8a38:	042d 0000 0000 0000                         -.......

00008a40 <_ZTVN14rosserial_msgs20RequestParamResponseE>:
    8a40:	0000 0000 8aac 0000 04f1 0000 0849 0000     ............I...
    8a50:	01dd 0000 01e9 0000                         ........

00008a58 <_ZTIN8std_msgs4TimeE>:
    8a58:	9450 0000 8ab8 0000 8acc 0000               P...........

00008a64 <_ZTIN14rosserial_msgs9TopicInfoE>:
    8a64:	9450 0000 8ad4 0000 8acc 0000               P...........

00008a70 <_ZTIN14rosserial_msgs3LogE>:
    8a70:	9450 0000 8af4 0000 8acc 0000               P...........

00008a7c <_ZTIN3ros10SubscriberIN8std_msgs6StringEEE>:
    8a7c:	9450 0000 8b0c 0000 8b34 0000               P.......4...

00008a88 <_ZTIN8std_msgs6StringE>:
    8a88:	9450 0000 8b3c 0000 8acc 0000               P...<.......

00008a94 <_ZTIN13geometry_msgs6Pose2DE>:
    8a94:	9450 0000 8b50 0000 8acc 0000               P...P.......

00008aa0 <_ZTIN3ros11NodeHandle_I12MbedHardwareLi25ELi25ELi512ELi512EEE>:
    8aa0:	9450 0000 8b6c 0000 8ba8 0000               P...l.......

00008aac <_ZTIN14rosserial_msgs20RequestParamResponseE>:
    8aac:	9450 0000 8bb0 0000 8acc 0000               P...........

00008ab8 <_ZTSN8std_msgs4TimeE>:
    8ab8:	384e 7473 5f64 736d 7367 5434 6d69 4565     N8std_msgs4TimeE
    8ac8:	0000 0000                                   ....

00008acc <_ZTIN3ros3MsgE>:
    8acc:	93f0 0000 8bdc 0000                         ........

00008ad4 <_ZTSN14rosserial_msgs9TopicInfoE>:
    8ad4:	314e 7234 736f 6573 6972 6c61 6d5f 6773     N14rosserial_msg
    8ae4:	3973 6f54 6970 4963 666e 456f 0000 0000     s9TopicInfoE....

00008af4 <_ZTSN14rosserial_msgs3LogE>:
    8af4:	314e 7234 736f 6573 6972 6c61 6d5f 6773     N14rosserial_msg
    8b04:	3373 6f4c 4567 0000                         s3LogE..

00008b0c <_ZTSN3ros10SubscriberIN8std_msgs6StringEEE>:
    8b0c:	334e 6f72 3173 5330 6275 6373 6972 6562     N3ros10Subscribe
    8b1c:	4972 384e 7473 5f64 736d 7367 5336 7274     rIN8std_msgs6Str
    8b2c:	6e69 4567 4545 0000                         ingEEE..

00008b34 <_ZTIN3ros11Subscriber_E>:
    8b34:	93f0 0000 8be8 0000                         ........

00008b3c <_ZTSN8std_msgs6StringE>:
    8b3c:	384e 7473 5f64 736d 7367 5336 7274 6e69     N8std_msgs6Strin
    8b4c:	4567 0000                                   gE..

00008b50 <_ZTSN13geometry_msgs6Pose2DE>:
    8b50:	314e 6733 6f65 656d 7274 5f79 736d 7367     N13geometry_msgs
    8b60:	5036 736f 3265 4544 0000 0000               6Pose2DE....

00008b6c <_ZTSN3ros11NodeHandle_I12MbedHardwareLi25ELi25ELi512ELi512EEE>:
    8b6c:	334e 6f72 3173 4e31 646f 4865 6e61 6c64     N3ros11NodeHandl
    8b7c:	5f65 3149 4d32 6562 4864 7261 7764 7261     e_I12MbedHardwar
    8b8c:	4c65 3269 4535 694c 3532 4c45 3569 3231     eLi25ELi25ELi512
    8b9c:	4c45 3569 3231 4545 0045 0000               ELi512EEE...

00008ba8 <_ZTIN3ros15NodeHandleBase_E>:
    8ba8:	93f0 0000 8bfc 0000                         ........

00008bb0 <_ZTSN14rosserial_msgs20RequestParamResponseE>:
    8bb0:	314e 7234 736f 6573 6972 6c61 6d5f 6773     N14rosserial_msg
    8bc0:	3273 5230 7165 6575 7473 6150 6172 526d     s20RequestParamR
    8bd0:	7365 6f70 736e 4565 0000 0000               esponseE....

00008bdc <_ZTSN3ros3MsgE>:
    8bdc:	334e 6f72 3373 734d 4567 0000               N3ros3MsgE..

00008be8 <_ZTSN3ros11Subscriber_E>:
    8be8:	334e 6f72 3173 5331 6275 6373 6972 6562     N3ros11Subscribe
    8bf8:	5f72 0045                                   r_E.

00008bfc <_ZTSN3ros15NodeHandleBase_E>:
    8bfc:	334e 6f72 3173 4e35 646f 4865 6e61 6c64     N3ros15NodeHandl
    8c0c:	4265 7361 5f65 0045 7473 5f64 736d 7367     eBase_E.std_msgs
    8c1c:	542f 6d69 0065 0000 6463 3137 3636 3763     /Time...cd7166c7
    8c2c:	6334 3535 6332 3133 6631 6362 3263 6566     4c552c311fbcc2fe
    8c3c:	6135 6237 3263 3938 0000 0000 6f72 7373     5a7bc289....ross
    8c4c:	7265 6169 5f6c 736d 7367 542f 706f 6369     erial_msgs/Topic
    8c5c:	6e49 6f66 0000 0000 3336 6161 6535 6638     Info....63aa5e8f
    8c6c:	6231 6464 6636 3533 3663 6639 3165 3161     1bdd6f35c69fe1a1
    8c7c:	3962 3264 6538 6639 0000 0000 6f72 7373     b9d28e9f....ross
    8c8c:	7265 6169 5f6c 736d 7367 4c2f 676f 0000     erial_msgs/Log..
    8c9c:	3131 6261 3764 3133 3263 3935 3333 3632     11abd731c2593326
    8cac:	6331 3664 3831 6233 3164 6432 3236 3539     1cd6183bd12d6295
    8cbc:	0000 0000 6639 6530 3839 6462 3661 3935     ....9f0e98bda659
    8ccc:	3138 3839 6436 6664 3335 6661 3761 3461     81986ddf53afa7a4
    8cdc:	6530 3934 0000 0000 7473 5f64 736d 7367     0e49....std_msgs
    8cec:	532f 7274 6e69 0067 3939 6332 3865 3161     /String.992ce8a1
    8cfc:	3836 6337 6365 6338 6238 3864 3338 6365     687cec8c8bd883ec
    8d0c:	3337 6163 3134 3164 0000 0000 6567 6d6f     73ca41d1....geom
    8d1c:	7465 7972 6d5f 6773 2f73 6f50 6573 4432     etry_msgs/Pose2D
    8d2c:	0000 0000 3339 6638 3661 3735 3930 3835     ....938fa6570958
    8d3c:	6134 3864 3765 6437 3332 3538 3932 6562     4ad8e77d238529be
    8d4c:	3331 3862 0000 0000 654d 7373 6761 2065     13b8....Message 
    8d5c:	7266 6d6f 6420 7665 6369 2065 7264 706f     from device drop
    8d6c:	6570 3a64 6d20 7365 6173 6567 6c20 7261     ped: message lar
    8d7c:	6567 2072 6874 6e61 6220 6675 6566 2e72     ger than buffer.
    8d8c:	0000 0000 6347 646f 0065 0000 6f70 6973     ....Gcode...posi
    8d9c:	6974 6e6f 0000 0000                         tion....

00008da4 <_ZN14rosserial_msgsL12REQUESTPARAME>:
    8da4:	6f72 7373 7265 6169 5f6c 736d 7367 522f     rosserial_msgs/R
    8db4:	7165 6575 7473 6150 6172 006d               equestParam.

00008dc0 <_ZL25kernel_callback_functions>:
    8dc0:	0008 0000 0001 0000 000c 0000 0001 0000     ................
    8dd0:	0010 0000 0001 0000 0018 0000 0001 0000     ................
    8de0:	0014 0000 0001 0000 001c 0000 0001 0000     ................
    8df0:	0020 0000 0001 0000 0024 0000 0001 0000      .......$.......
    8e00:	0028 0000 0001 0000 002c 0000 0001 0000     (.......,.......
    8e10:	0030 0000 0001 0000 0034 0000 0001 0000     0.......4.......

00008e20 <_ZTS6Module>:
    8e20:	4d36 646f 6c75 0065                         6Module.

00008e28 <_ZTV6Module>:
    8e28:	0000 0000 8e68 0000 1d89 0000 1dbd 0000     ....h...........
    8e38:	1d8d 0000 1d91 0000 1d95 0000 1d9d 0000     ................
    8e48:	1d99 0000 1da1 0000 1da5 0000 1da9 0000     ................
    8e58:	1dad 0000 1db1 0000 1db5 0000 1db9 0000     ................

00008e68 <_ZTI6Module>:
    8e68:	93f0 0000 8e20 0000 3130 3332 3534 3736     .... ...01234567
    8e78:	3938 2e2d 0000 0000 0020 0000 6162 6973     89-..... ...basi
    8e88:	5f63 7473 6972 676e 3a3a 7573 7362 7274     c_string::substr
    8e98:	0000 0000 0072 0000 2e20 0000               ....r... ...

00008ea4 <_ZTI6Config>:
    8ea4:	9450 0000 8eb0 0000 8e68 0000               P.......h...

00008eb0 <_ZTS6Config>:
    8eb0:	4336 6e6f 6966 0067                         6Config.

00008eb8 <_ZTV6Config>:
    8eb8:	0000 0000 8ea4 0000 2039 0000 1dbd 0000     ........9 ......
    8ec8:	1d8d 0000 203d 0000 1d95 0000 1d9d 0000     ....= ..........
    8ed8:	1d99 0000 1da1 0000 1da5 0000 1da9 0000     ................
    8ee8:	1dad 0000 1db1 0000 1db5 0000 1db9 0000     ................
    8ef8:	6576 7463 726f 3a3a 4d5f 725f 6e61 6567     vector::_M_range
    8f08:	635f 6568 6b63 0000 6c2f 636f 6c61 632f     _check../local/c
    8f18:	6e6f 6966 0067 0000 4f4d 5344 5245 4149     onfig...MODSERIA
    8f28:	204c 756d 7473 6820 7661 2065 2061 6564     L must have a de
    8f38:	6966 656e 2064 4155 5452 7420 206f 7566     fined UART to fu
    8f48:	636e 6974 6e6f 002e                         nction..

00008f50 <_ZTSN3AjK9MODSERIALE>:
    8f50:	334e 6a41 394b 4f4d 5344 5245 4149 454c     N3AjK9MODSERIALE
	...

00008f68 <_ZTVN3AjK9MODSERIALE>:
    8f68:	0000 0000 8fb0 0000 413d 0000 4139 0000     ........=A..9A..
    8f78:	41b5 0000 4235 0000 4231 0000 4239 0000     .A..5B..1B..9B..
    8f88:	423d 0000 2989 0000 29d1 0000 288d 0000     =B...)...)...(..
    8f98:	2885 0000 fffc ffff 8fb0 0000 29c9 0000     .(...........)..
    8fa8:	29e5 0000 0000 0000                         .)......

00008fb0 <_ZTIN3AjK9MODSERIALE>:
    8fb0:	9450 0000 8f50 0000 9258 0000               P...P...X...

00008fbc <_ZTI12ConfigSource>:
    8fbc:	93f0 0000 8fc4 0000                         ........

00008fc4 <_ZTS12ConfigSource>:
    8fc4:	3231 6f43 666e 6769 6f53 7275 6563 0000     12ConfigSource..
    8fd4:	0000 0000                                   ....

00008fd8 <_ZTV16FileConfigSource>:
    8fd8:	0000 0000 902c 0000 2f15 0000 2b6d 0000     ....,..../..m+..
    8fe8:	2b79 0000 2c51 0000                         y+..Q,..

00008ff0 <_ZTS16FileConfigSource>:
    8ff0:	3631 6946 656c 6f43 666e 6769 6f53 7275     16FileConfigSour
    9000:	6563 0000 5245 4f52 3a52 6e20 206f 6f63     ce..ERROR: no co
    9010:	666e 6769 6620 6c69 2065 6f66 6e75 0d64     nfig file found.
    9020:	0000 0000 0a0d 2023 0000 0000               ......# ....

0000902c <_ZTI16FileConfigSource>:
    902c:	9450 0000 8ff0 0000 8fbc 0000               P...........

00009038 <PinMap_UART_RX>:
    9038:	c001 2009 c000 4009 0002 0000 c003 2009     ... ...@....... 
    9048:	c000 4000 0001 0000 c00b 2009 8000 4009     ...@....... ...@
    9058:	0001 0000 c010 2009 0000 4001 0001 0000     ....... ...@....
    9068:	c01a 2009 c000 4009 0003 0000 c041 2009     ... ...@....A.. 
    9078:	0000 4001 0002 0000 c049 2009 8000 4009     ...@....I.. ...@
    9088:	0002 0000 c09d 2009 c000 4009 0003 0000     ....... ...@....
    9098:	ffff ffff ffff ffff 0000 0000 6573 6972     ............seri
    90a8:	6c61 625f 7561 0064 6e49 6176 696c 2064     al_baud.Invalid 
    90b8:	756e 626d 7265 6f20 2066 6962 7374 2820     number of bits (
    90c8:	6425 2029 6e69 7320 7265 6169 206c 6f66     %d) in serial fo
    90d8:	6d72 7461 202c 6873 756f 646c 6220 2065     rmat, should be 
    90e8:	2e35 382e 0000 0000 6e49 6176 696c 2064     5..8....Invalid 
    90f8:	6573 6972 6c61 7020 7261 7469 2079 6573     serial parity se
    9108:	7474 6e69 0067 0000 6e49 6176 696c 2064     tting...Invalid 
    9118:	7473 706f 6220 7469 2073 7073 6365 6669     stop bits specif
    9128:	6569 0064 6553 6972 6c61 7020 6e69 756f     ied.Serial pinou
    9138:	2074 616d 7070 6e69 2067 6166 6c69 6465     t mapping failed
    9148:	0000 0000                                   ....

0000914c <PinMap_UART_TX>:
    914c:	c000 2009 c000 4009 0002 0000 c002 2009     ... ...@....... 
    915c:	c000 4000 0001 0000 c00a 2009 8000 4009     ...@....... ...@
    916c:	0001 0000 c00f 2009 0000 4001 0001 0000     ....... ...@....
    917c:	c019 2009 c000 4009 0003 0000 c040 2009     ... ...@....@.. 
    918c:	0000 4001 0002 0000 c048 2009 8000 4009     ...@....H.. ...@
    919c:	0002 0000 c09c 2009 c000 4009 0003 0000     ....... ...@....
    91ac:	ffff ffff ffff ffff 0000 0000 6f63 6c75     ............coul
    91bc:	2064 6f6e 2074 6970 6f6e 7475 0000 0000     d not pinout....
    91cc:	6970 6d6e 7061 6d20 7369 6d2d 7461 6863     pinmap mis-match
    91dc:	0000 0000 6970 6d6e 7061 6e20 746f 6620     ....pinmap not f
    91ec:	756f 646e 6620 726f 7020 7265 7069 6568     ound for periphe
    91fc:	6172 006c                                   ral.

00009200 <_ZTSN4mbed6SerialE>:
    9200:	344e 626d 6465 5336 7265 6169 456c 0000     N4mbed6SerialE..

00009210 <_ZTVN4mbed6SerialE>:
    9210:	0000 0000 9258 0000 413d 0000 4139 0000     ....X...=A..9A..
    9220:	41b5 0000 4235 0000 4231 0000 4239 0000     .A..5B..1B..9B..
    9230:	423d 0000 3d45 0000 3d95 0000 3d6d 0000     =B..E=...=..m=..
    9240:	3d7d 0000 fffc ffff 9258 0000 3d65 0000     }=......X...e=..
    9250:	3db9 0000 0000 0000                         .=......

00009258 <_ZTIN4mbed6SerialE>:
    9258:	9450 0000 9200 0000 9320 0000               P....... ...

00009264 <__stdin_name>:
    9264:	732f 6474 6e69 0000                         /stdin..

0000926c <__stderr_name>:
    926c:	732f 6474 7265 0072                         /stderr.

00009274 <_ZTSN4mbed10FileHandleE>:
    9274:	344e 626d 6465 3031 6946 656c 6148 646e     N4mbed10FileHand
    9284:	656c 0045                                   leE.

00009288 <__stdout_name>:
    9288:	732f 6474 756f 0074                         /stdout.

00009290 <_ZTIN4mbed10FileHandleE>:
    9290:	93f0 0000 9274 0000                         ....t...

00009298 <_ZTVN4mbed10FileHandleE>:
    9298:	0000 0000 9290 0000 336d 0000 336d 0000     ........m3..m3..
    92a8:	336d 0000 336d 0000 336d 0000 336d 0000     m3..m3..m3..m3..
    92b8:	3e21 0000 3e59 0000 3e99 0000 0000 0000     !>..Y>...>......
    92c8:	253a 0070 7845 6563 7470 6f69 006e 0000     :%p.Exception...

000092d8 <_ZTVN4mbed6StreamE>:
    92d8:	0000 0000 9320 0000 413d 0000 4139 0000     .... ...=A..9A..
    92e8:	41b5 0000 4235 0000 4231 0000 4239 0000     .A..5B..1B..9B..
    92f8:	423d 0000 4241 0000 4271 0000 336d 0000     =B..AB..qB..m3..
    9308:	336d 0000 fffc ffff 9320 0000 4269 0000     m3...... ...iB..
    9318:	4285 0000 0000 0000                         .B......

00009320 <_ZTIN4mbed6StreamE>:
    9320:	9450 0000 9330 0000 9340 0000 2b77 0000     P...0...@...w+..

00009330 <_ZTSN4mbed6StreamE>:
    9330:	344e 626d 6465 5336 7274 6165 456d 0000     N4mbed6StreamE..

00009340 <_ZTIN4mbed8FileLikeE>:
    9340:	9528 0000 9360 0000 0000 0000 0002 0000     (...`...........
    9350:	9290 0000 0002 0000 93e0 0000 0402 0000     ................

00009360 <_ZTSN4mbed8FileLikeE>:
    9360:	344e 626d 6465 4638 6c69 4c65 6b69 4565     N4mbed8FileLikeE
	...

00009378 <_ZTVN4mbed8FileLikeE>:
    9378:	0000 0000 9340 0000 336d 0000 336d 0000     ....@...m3..m3..
    9388:	336d 0000 336d 0000 336d 0000 336d 0000     m3..m3..m3..m3..
    9398:	3e21 0000 45b9 0000 45e9 0000 fffc ffff     !>...E...E......
    93a8:	9340 0000 45e1 0000 45fd 0000 0000 0000     @....E...E......

000093b8 <_ZTSN4mbed8FileBaseE>:
    93b8:	344e 626d 6465 4638 6c69 4265 7361 4565     N4mbed8FileBaseE
	...

000093d0 <_ZTVN4mbed8FileBaseE>:
    93d0:	0000 0000 93e0 0000 4701 0000 4731 0000     .........G..1G..

000093e0 <_ZTIN4mbed8FileBaseE>:
    93e0:	93f0 0000 93b8 0000                         ........

000093e8 <_ZTVN10__cxxabiv117__class_type_infoE>:
    93e8:	0000 0000 9418 0000 4839 0000 484d 0000     ........9H..MH..
    93f8:	49f1 0000 49f5 0000 4897 0000 47db 0000     .I...I...H...G..
    9408:	481d 0000 485f 0000 4811 0000 0000 0000     .H.._H...H......

00009418 <_ZTIN10__cxxabiv117__class_type_infoE>:
    9418:	9450 0000 9424 0000 94ac 0000               P...$.......

00009424 <_ZTSN10__cxxabiv117__class_type_infoE>:
    9424:	314e 5f30 635f 7878 6261 7669 3131 5f37     N10__cxxabiv117_
    9434:	635f 616c 7373 745f 7079 5f65 6e69 6f66     _class_type_info
    9444:	0045 0000                                   E...

00009448 <_ZTVN10__cxxabiv120__si_class_type_infoE>:
    9448:	0000 0000 9478 0000 4969 0000 497d 0000     ....x...iI..}I..
    9458:	49f1 0000 49f5 0000 4897 0000 47db 0000     .I...I...H...G..
    9468:	498f 0000 48ed 0000 49b3 0000 0000 0000     .I...H...I......

00009478 <_ZTIN10__cxxabiv120__si_class_type_infoE>:
    9478:	9450 0000 9484 0000 9418 0000               P...........

00009484 <_ZTSN10__cxxabiv120__si_class_type_infoE>:
    9484:	314e 5f30 635f 7878 6261 7669 3231 5f30     N10__cxxabiv120_
    9494:	735f 5f69 6c63 7361 5f73 7974 6570 695f     _si_class_type_i
    94a4:	666e 456f 0000 0000                         nfoE....

000094ac <_ZTISt9type_info>:
    94ac:	93f0 0000 94b4 0000                         ........

000094b4 <_ZTSSt9type_info>:
    94b4:	7453 7439 7079 5f65 6e69 6f66 0000 0000     St9type_info....
    94c4:	0000 0000                                   ....

000094c8 <_ZTVSt9type_info>:
    94c8:	0000 0000 94ac 0000 49e5 0000 49fd 0000     .........I...I..
    94d8:	49f1 0000 49f5 0000 4a39 0000 49f9 0000     .I...I..9J...I..

000094e8 <_ZTIN10__cxxabiv121__vmi_class_type_infoE>:
    94e8:	9450 0000 94f4 0000 9418 0000               P...........

000094f4 <_ZTSN10__cxxabiv121__vmi_class_type_infoE>:
    94f4:	314e 5f30 635f 7878 6261 7669 3231 5f31     N10__cxxabiv121_
    9504:	765f 696d 635f 616c 7373 745f 7079 5f65     _vmi_class_type_
    9514:	6e69 6f66 0045 0000 0000 0000               infoE.......

00009520 <_ZTVN10__cxxabiv121__vmi_class_type_infoE>:
    9520:	0000 0000 94e8 0000 4a3d 0000 4a51 0000     ........=J..QJ..
    9530:	49f1 0000 49f5 0000 4897 0000 47db 0000     .I...I...H...G..
    9540:	4ad5 0000 4bfb 0000 4a63 0000 0000 0000     .J...K..cJ......
    9550:	6162 6973 5f63 7473 6972 676e 3a3a 7461     basic_string::at
    9560:	6200 7361 6369 735f 7274 6e69 3a67 633a     .basic_string::c
    9570:	706f 0079 6162 6973 5f63 7473 6972 676e     opy.basic_string
    9580:	3a3a 6f63 706d 7261 0065 6162 6973 5f63     ::compare.basic_
    9590:	7473 6972 676e 3a3a 535f 635f 6572 7461     string::_S_creat
    95a0:	0065 6162 6973 5f63 7473 6972 676e 3a3a     e.basic_string::
    95b0:	7361 6973 6e67 6200 7361 6369 735f 7274     assign.basic_str
    95c0:	6e69 3a67 5f3a 5f4d 6572 6c70 6361 5f65     ing::_M_replace_
    95d0:	7561 0078 6162 6973 5f63 7473 6972 676e     aux.basic_string
    95e0:	3a3a 6572 6c70 6361 0065 6162 6973 5f63     ::replace.basic_
    95f0:	7473 6972 676e 3a3a 6e69 6573 7472 6200     string::insert.b
    9600:	7361 6369 735f 7274 6e69 3a67 653a 6172     asic_string::era
    9610:	6573 6200 7361 6369 735f 7274 6e69 3a67     se.basic_string:
    9620:	613a 7070 6e65 0064 6162 6973 5f63 7473     :append.basic_st
    9630:	6972 676e 3a3a 6572 6973 657a 6200 7361     ring::resize.bas
    9640:	6369 735f 7274 6e69 3a67 5f3a 5f53 6f63     ic_string::_S_co
    9650:	736e 7274 6375 2074 756e 6c6c 6e20 746f     nstruct null not
    9660:	7620 6c61 6469 6200 7361 6369 735f 7274      valid.basic_str
    9670:	6e69 3a67 623a 7361 6369 735f 7274 6e69     ing::basic_strin
    9680:	0067 6162 6973 5f63 7473 6972 676e 3a3a     g.basic_string::
    9690:	7573 7362 7274 0000                         substr..

00009698 <__sf_fake_stdin>:
	...

000096b8 <__sf_fake_stdout>:
	...

000096d8 <__sf_fake_stderr>:
	...
    96f8:	0043 0000                                   C...

000096fc <_global_impure_ptr>:
    96fc:	00d0 1000 2d23 2b30 0020 6c68 004c 6665     ....#-0+ .hlL.ef
    970c:	4567 4746 3000 3231 3433 3635 3837 4139     gEFG.0123456789A
    971c:	4342 4544 0046 3130 3332 3534 3736 3938     BCDEF.0123456789
    972c:	6261 6463 6665 0000 9752 0000 9755 0000     abcdef..R...U...
    973c:	9758 0000 2d41 6146 662d 3938 3130 3332     X...A-Fa-f890123
    974c:	3534 3736 005d 2d2b 3000 0030 5878 0000          4567].+-.00.xX.

0000975b <_ctype_>:
    975b:	2000 2020 2020 2020 2020 2828 2828 2028     .         ((((( 
    976b:	2020 2020 2020 2020 2020 2020 2020 2020                     
    977b:	8820 1010 1010 1010 1010 1010 1010 1010      ...............
    978b:	0410 0404 0404 0404 0404 1004 1010 1010     ................
    979b:	1010 4141 4141 4141 0101 0101 0101 0101     ..AAAAAA........
    97ab:	0101 0101 0101 0101 0101 0101 1010 1010     ................
    97bb:	1010 4242 4242 4242 0202 0202 0202 0202     ..BBBBBB........
    97cb:	0202 0202 0202 0202 0202 0202 1010 1010     ................
    97db:	0020 0000 0000 0000 0000 0000 0000 0000      ...............
	...

0000985c <__EH_FRAME_BEGIN__>:
    985c:	0000 0000                                   ....
